Archive member included to satisfy reference by file (symbol)

C:\orangec\src\..\src\lib\mingw64/libocpplib.a(Errors.o)
                              C:\orangec\src\ocpp\obj\mingw64\ppMain.o (Errors::Error(std::__cxx11::basic_string<char, std::char_traits<char>, std::allocator<char> > const&))
C:\orangec\src\..\src\lib\mingw64/libocpplib.a(MakeStubs.o)
                              C:\orangec\src\ocpp\obj\mingw64\ppMain.o (MakeStubs::Run(std::ostream*))
C:\orangec\src\..\src\lib\mingw64/libocpplib.a(PipeArbitrator.o)
                              C:\orangec\src\ocpp\obj\mingw64\ppMain.o (PipeArbitrator::~PipeArbitrator())
C:\orangec\src\..\src\lib\mingw64/libocpplib.a(ppCtx.o)
                              C:\orangec\src\ocpp\obj\mingw64\ppMain.o (ppCtx::~ppCtx())
C:\orangec\src\..\src\lib\mingw64/libocpplib.a(ppDefine.o)
                              C:\orangec\src\ocpp\obj\mingw64\ppMain.o (ppDefine::Undefine(std::__cxx11::basic_string<char, std::char_traits<char>, std::allocator<char> > const&))
C:\orangec\src\..\src\lib\mingw64/libocpplib.a(ppExpr.o)
                              C:\orangec\src\ocpp\obj\mingw64\ppMain.o (ppExpr::Eval(std::__cxx11::basic_string<char, std::char_traits<char>, std::allocator<char> >&, bool))
C:\orangec\src\..\src\lib\mingw64/libocpplib.a(ppInclude.o)
                              C:\orangec\src\ocpp\obj\mingw64\ppMain.o (ppInclude::~ppInclude())
C:\orangec\src\..\src\lib\mingw64/libocpplib.a(ppMacro.o)
                              C:\orangec\src\ocpp\obj\mingw64\ppMain.o (ppMacro::ppMacro(ppInclude&, ppDefine&))
C:\orangec\src\..\src\lib\mingw64/libocpplib.a(ppPragma.o)
                              C:\orangec\src\ocpp\obj\mingw64\ppMain.o (Once::instance)
C:\orangec\src\..\src\lib\mingw64/libocpplib.a(PreProcessor.o)
                              C:\orangec\src\..\src\lib\mingw64/libocpplib.a(ppMacro.o) (PreProcessor::GetPreLine(std::__cxx11::basic_string<char, std::char_traits<char>, std::allocator<char> >&))
C:\orangec\src\..\src\lib\mingw64/libocpplib.a(SymbolTable.o)
                              C:\orangec\src\ocpp\obj\mingw64\ppMain.o (SymbolTable::~SymbolTable())
C:\orangec\src\..\src\lib\mingw64/libocpplib.a(Token.o)
                              C:\orangec\src\..\src\lib\mingw64/libocpplib.a(ppCtx.o) (Tokenizer::Next())
C:\orangec\src\..\src\lib\mingw64/libocpplib.a(Floating.o)
                              C:\orangec\src\..\src\lib\mingw64/libocpplib.a(Token.o) (FPF::SetZero(int))
C:\orangec\src\..\src\lib\mingw64/libocpplib.a(InputFile.o)
                              C:\orangec\src\..\src\lib\mingw64/libocpplib.a(ppInclude.o) (InputFile::GetErrorName(bool, std::__cxx11::basic_string<char, std::char_traits<char>, std::allocator<char> > const&))
C:\orangec\src\..\src\lib\mingw64/libocpplib.a(ppCond.o)
                              C:\orangec\src\..\src\lib\mingw64/libocpplib.a(ppInclude.o) (ppCond::~ppCond())
C:\orangec\src\..\src\lib\mingw64/libocpplib.a(ppError.o)
                              C:\orangec\src\..\src\lib\mingw64/libocpplib.a(PreProcessor.o) (ppError::Check(kw, std::__cxx11::basic_string<char, std::char_traits<char>, std::allocator<char> > const&))
C:\orangec\src\..\src\lib\mingw64/libocpplib.a(ppFile.o)
                              C:\orangec\src\..\src\lib\mingw64/libocpplib.a(ppInclude.o) (vtable for ppFile)
C:\orangec\src\..\src\lib\mingw64/libutil.a(CmdFiles.o)
                              C:\orangec\src\ocpp\obj\mingw64\ppMain.o (CmdFiles::~CmdFiles())
C:\orangec\src\..\src\lib\mingw64/libutil.a(CmdSwitch.o)
                              C:\orangec\src\ocpp\obj\mingw64\ppMain.o (CmdSwitchDefine::GetValue(int))
C:\orangec\src\..\src\lib\mingw64/libutil.a(crc.o)
                              C:\orangec\src\..\src\lib\mingw64/libocpplib.a(ppPragma.o) (Utils::PartialCRC32(unsigned int, unsigned char const*, unsigned long long))
C:\orangec\src\..\src\lib\mingw64/libutil.a(NamedPipe.o)
                              C:\orangec\src\..\src\lib\mingw64/libocpplib.a(PipeArbitrator.o) (Utils::NamedPipe(int*, std::__cxx11::basic_string<char, std::char_traits<char>, std::allocator<char> > const&))
C:\orangec\src\..\src\lib\mingw64/libutil.a(UTF8.o)
                              C:\orangec\src\..\src\lib\mingw64/libocpplib.a(InputFile.o) (UTF8::Encode(char*, int))
C:\orangec\src\..\src\lib\mingw64/libutil.a(UTF8Table.o)
                              C:\orangec\src\..\src\lib\mingw64/libocpplib.a(Token.o) (UTF8::IsAlpha(char const*))
C:\orangec\src\..\src\lib\mingw64/libutil.a(UTF8Upper.o)
                              C:\orangec\src\..\src\lib\mingw64/libutil.a(UTF8.o) (UTF8::ToUpper(int))
C:\orangec\src\..\src\lib\mingw64/libutil.a(Utils.o)
                              C:\orangec\src\ocpp\obj\mingw64\ppMain.o (Utils::banner(char const*))
C:/mingw64/w64/bin/../lib/gcc/x86_64-w64-mingw32/8.1.0/libstdc++.dll.a(d005880.o)
                              C:\orangec\src\ocpp\obj\mingw64\ppMain.o (__gxx_personality_seh0)
C:/mingw64/w64/bin/../lib/gcc/x86_64-w64-mingw32/8.1.0/libstdc++.dll.a(d005864.o)
                              C:\orangec\src\..\src\lib\mingw64/libutil.a(CmdSwitch.o) (__cxa_throw_bad_array_new_length)
C:/mingw64/w64/bin/../lib/gcc/x86_64-w64-mingw32/8.1.0/libstdc++.dll.a(d005860.o)
                              C:\orangec\src\ocpp\obj\mingw64\ppMain.o (__cxa_rethrow)
C:/mingw64/w64/bin/../lib/gcc/x86_64-w64-mingw32/8.1.0/libstdc++.dll.a(d005857.o)
                              C:\orangec\src\ocpp\obj\mingw64\ppMain.o (__cxa_guard_release)
C:/mingw64/w64/bin/../lib/gcc/x86_64-w64-mingw32/8.1.0/libstdc++.dll.a(d005856.o)
                              C:\orangec\src\ocpp\obj\mingw64\ppMain.o (__cxa_guard_acquire)
C:/mingw64/w64/bin/../lib/gcc/x86_64-w64-mingw32/8.1.0/libstdc++.dll.a(d005855.o)
                              C:\orangec\src\ocpp\obj\mingw64\ppMain.o (__cxa_guard_abort)
C:/mingw64/w64/bin/../lib/gcc/x86_64-w64-mingw32/8.1.0/libstdc++.dll.a(d005852.o)
                              C:\orangec\src\ocpp\obj\mingw64\ppMain.o (__cxa_get_exception_ptr)
C:/mingw64/w64/bin/../lib/gcc/x86_64-w64-mingw32/8.1.0/libstdc++.dll.a(d005849.o)
                              C:\orangec\src\ocpp\obj\mingw64\ppMain.o (__cxa_end_catch)
C:/mingw64/w64/bin/../lib/gcc/x86_64-w64-mingw32/8.1.0/libstdc++.dll.a(d005843.o)
                              C:\orangec\src\ocpp\obj\mingw64\ppMain.o (__cxa_begin_catch)
C:/mingw64/w64/bin/../lib/gcc/x86_64-w64-mingw32/8.1.0/libstdc++.dll.a(d005833.o)
                              C:\orangec\src\ocpp\obj\mingw64\ppMain.o (operator new(unsigned long long))
C:/mingw64/w64/bin/../lib/gcc/x86_64-w64-mingw32/8.1.0/libstdc++.dll.a(d005829.o)
                              C:\orangec\src\..\src\lib\mingw64/libutil.a(CmdSwitch.o) (operator new[](unsigned long long))
C:/mingw64/w64/bin/../lib/gcc/x86_64-w64-mingw32/8.1.0/libstdc++.dll.a(d005827.o)
                              C:\orangec\src\ocpp\obj\mingw64\ppMain.o (operator delete(void*, unsigned long long))
C:/mingw64/w64/bin/../lib/gcc/x86_64-w64-mingw32/8.1.0/libstdc++.dll.a(d005823.o)
                              C:\orangec\src\ocpp\obj\mingw64\ppMain.o (operator delete(void*))
C:/mingw64/w64/bin/../lib/gcc/x86_64-w64-mingw32/8.1.0/libstdc++.dll.a(d005817.o)
                              C:\orangec\src\ocpp\obj\mingw64\ppMain.o (operator delete[](void*))
C:/mingw64/w64/bin/../lib/gcc/x86_64-w64-mingw32/8.1.0/libstdc++.dll.a(d005727.o)
                              (__imp__ZTVSt9basic_iosIcSt11char_traitsIcEE)
C:/mingw64/w64/bin/../lib/gcc/x86_64-w64-mingw32/8.1.0/libstdc++.dll.a(d005652.o)
                              (__imp__ZTVSt15basic_streambufIcSt11char_traitsIcEE)
C:/mingw64/w64/bin/../lib/gcc/x86_64-w64-mingw32/8.1.0/libstdc++.dll.a(d005636.o)
                              (__imp__ZTVSt13basic_fstreamIcSt11char_traitsIcEE)
C:/mingw64/w64/bin/../lib/gcc/x86_64-w64-mingw32/8.1.0/libstdc++.dll.a(d005634.o)
                              (__imp__ZTVSt13basic_filebufIcSt11char_traitsIcEE)
C:/mingw64/w64/bin/../lib/gcc/x86_64-w64-mingw32/8.1.0/libstdc++.dll.a(d005587.o)
                              (__imp__ZTVNSt7__cxx1118basic_stringstreamIcSt11char_traitsIcESaIcEEE)
C:/mingw64/w64/bin/../lib/gcc/x86_64-w64-mingw32/8.1.0/libstdc++.dll.a(d005575.o)
                              (__imp__ZTVNSt7__cxx1115basic_stringbufIcSt11char_traitsIcESaIcEEE)
C:/mingw64/w64/bin/../lib/gcc/x86_64-w64-mingw32/8.1.0/libstdc++.dll.a(d005550.o)
                              (__imp__ZTVN10__cxxabiv120__si_class_type_infoE)
C:/mingw64/w64/bin/../lib/gcc/x86_64-w64-mingw32/8.1.0/libstdc++.dll.a(d005545.o)
                              (__imp__ZTVN10__cxxabiv117__class_type_infoE)
C:/mingw64/w64/bin/../lib/gcc/x86_64-w64-mingw32/8.1.0/libstdc++.dll.a(d005526.o)
                              (__imp__ZTTSt13basic_fstreamIcSt11char_traitsIcEE)
C:/mingw64/w64/bin/../lib/gcc/x86_64-w64-mingw32/8.1.0/libstdc++.dll.a(d005515.o)
                              (__imp__ZTTNSt7__cxx1118basic_stringstreamIcSt11char_traitsIcESaIcEEE)
C:/mingw64/w64/bin/../lib/gcc/x86_64-w64-mingw32/8.1.0/libstdc++.dll.a(d004847.o)
                              C:\orangec\src\ocpp\obj\mingw64\ppMain.o (std::basic_ostream<char, std::char_traits<char> >& std::operator<< <std::char_traits<char> >(std::basic_ostream<char, std::char_traits<char> >&, char const*))
C:/mingw64/w64/bin/../lib/gcc/x86_64-w64-mingw32/8.1.0/libstdc++.dll.a(d004750.o)
                              C:\orangec\src\..\src\lib\mingw64/libutil.a(Utils.o) (std::basic_istream<char, std::char_traits<char> >& std::getline<char, std::char_traits<char>, std::allocator<char> >(std::basic_istream<char, std::char_traits<char> >&, std::__cxx11::basic_string<char, std::char_traits<char>, std::allocator<char> >&, char))
C:/mingw64/w64/bin/../lib/gcc/x86_64-w64-mingw32/8.1.0/libstdc++.dll.a(d004739.o)
                              C:\orangec\src\ocpp\obj\mingw64\ppMain.o (std::basic_ostream<char, std::char_traits<char> >& std::endl<char, std::char_traits<char> >(std::basic_ostream<char, std::char_traits<char> >&))
C:/mingw64/w64/bin/../lib/gcc/x86_64-w64-mingw32/8.1.0/libstdc++.dll.a(d004738.o)
                              (__imp__ZSt4cout)
C:/mingw64/w64/bin/../lib/gcc/x86_64-w64-mingw32/8.1.0/libstdc++.dll.a(d004736.o)
                              (__imp__ZSt4cerr)
C:/mingw64/w64/bin/../lib/gcc/x86_64-w64-mingw32/8.1.0/libstdc++.dll.a(d004732.o)
                              C:\orangec\src\..\src\lib\mingw64/libocpplib.a(ppInclude.o) (std::_Rb_tree_insert_and_rebalance(bool, std::_Rb_tree_node_base*, std::_Rb_tree_node_base*, std::_Rb_tree_node_base&))
C:/mingw64/w64/bin/../lib/gcc/x86_64-w64-mingw32/8.1.0/libstdc++.dll.a(d004729.o)
                              C:\orangec\src\..\src\lib\mingw64/libocpplib.a(ppPragma.o) (std::__throw_bad_function_call())
C:/mingw64/w64/bin/../lib/gcc/x86_64-w64-mingw32/8.1.0/libstdc++.dll.a(d004728.o)
                              C:\orangec\src\ocpp\obj\mingw64\ppMain.o (std::__throw_out_of_range_fmt(char const*, ...))
C:/mingw64/w64/bin/../lib/gcc/x86_64-w64-mingw32/8.1.0/libstdc++.dll.a(d004727.o)
                              C:\orangec\src\..\src\lib\mingw64/libutil.a(Utils.o) (std::__throw_invalid_argument(char const*))
C:/mingw64/w64/bin/../lib/gcc/x86_64-w64-mingw32/8.1.0/libstdc++.dll.a(d004714.o)
                              C:\orangec\src\..\src\lib\mingw64/libutil.a(Utils.o) (std::__throw_out_of_range(char const*))
C:/mingw64/w64/bin/../lib/gcc/x86_64-w64-mingw32/8.1.0/libstdc++.dll.a(d004713.o)
                              C:\orangec\src\ocpp\obj\mingw64\ppMain.o (std::__throw_length_error(char const*))
C:/mingw64/w64/bin/../lib/gcc/x86_64-w64-mingw32/8.1.0/libstdc++.dll.a(d004705.o)
                              C:\orangec\src\ocpp\obj\mingw64\ppMain.o (std::__throw_logic_error(char const*))
C:/mingw64/w64/bin/../lib/gcc/x86_64-w64-mingw32/8.1.0/libstdc++.dll.a(d004701.o)
                              C:\orangec\src\..\src\lib\mingw64/libocpplib.a(ppPragma.o) (std::_Rb_tree_increment(std::_Rb_tree_node_base*))
C:/mingw64/w64/bin/../lib/gcc/x86_64-w64-mingw32/8.1.0/libstdc++.dll.a(d004700.o)
                              C:\orangec\src\..\src\lib\mingw64/libocpplib.a(MakeStubs.o) (std::_Rb_tree_increment(std::_Rb_tree_node_base const*))
C:/mingw64/w64/bin/../lib/gcc/x86_64-w64-mingw32/8.1.0/libstdc++.dll.a(d004699.o)
                              C:\orangec\src\..\src\lib\mingw64/libocpplib.a(ppInclude.o) (std::_Rb_tree_decrement(std::_Rb_tree_node_base*))
C:/mingw64/w64/bin/../lib/gcc/x86_64-w64-mingw32/8.1.0/libstdc++.dll.a(d004692.o)
                              C:\orangec\src\ocpp\obj\mingw64\ppMain.o (std::__throw_bad_alloc())
C:/mingw64/w64/bin/../lib/gcc/x86_64-w64-mingw32/8.1.0/libstdc++.dll.a(d004687.o)
                              C:\orangec\src\ocpp\obj\mingw64\ppMain.o (std::__throw_bad_cast())
C:/mingw64/w64/bin/../lib/gcc/x86_64-w64-mingw32/8.1.0/libstdc++.dll.a(d004685.o)
                              C:\orangec\src\ocpp\obj\mingw64\ppMain.o (std::basic_ostream<char, std::char_traits<char> >& std::__ostream_insert<char, std::char_traits<char> >(std::basic_ostream<char, std::char_traits<char> >&, char const*, long long))
C:/mingw64/w64/bin/../lib/gcc/x86_64-w64-mingw32/8.1.0/libstdc++.dll.a(d004661.o)
                              C:\orangec\src\..\src\lib\mingw64/libocpplib.a(ppDefine.o) (std::_Hash_bytes(void const*, unsigned long long, unsigned long long))
C:/mingw64/w64/bin/../lib/gcc/x86_64-w64-mingw32/8.1.0/libstdc++.dll.a(d004586.o)
                              C:\orangec\src\ocpp\obj\mingw64\ppMain.o (std::basic_ios<char, std::char_traits<char> >::clear(std::_Ios_Iostate))
C:/mingw64/w64/bin/../lib/gcc/x86_64-w64-mingw32/8.1.0/libstdc++.dll.a(d004582.o)
                              C:\orangec\src\ocpp\obj\mingw64\ppMain.o (std::basic_ios<char, std::char_traits<char> >::init(std::basic_streambuf<char, std::char_traits<char> >*))
C:/mingw64/w64/bin/../lib/gcc/x86_64-w64-mingw32/8.1.0/libstdc++.dll.a(d004493.o)
                              C:\orangec\src\ocpp\obj\mingw64\ppMain.o (std::ios_base::~ios_base())
C:/mingw64/w64/bin/../lib/gcc/x86_64-w64-mingw32/8.1.0/libstdc++.dll.a(d004490.o)
                              C:\orangec\src\ocpp\obj\mingw64\ppMain.o (std::ios_base::ios_base())
C:/mingw64/w64/bin/../lib/gcc/x86_64-w64-mingw32/8.1.0/libstdc++.dll.a(d004450.o)
                              C:\orangec\src\ocpp\obj\mingw64\ppMain.o (std::ios_base::Init::~Init())
C:/mingw64/w64/bin/../lib/gcc/x86_64-w64-mingw32/8.1.0/libstdc++.dll.a(d004448.o)
                              C:\orangec\src\ocpp\obj\mingw64\ppMain.o (std::ios_base::Init::Init())
C:/mingw64/w64/bin/../lib/gcc/x86_64-w64-mingw32/8.1.0/libstdc++.dll.a(d004424.o)
                              C:\orangec\src\..\src\lib\mingw64/libocpplib.a(ppInclude.o) (std::__detail::_List_node_base::_M_unhook())
C:/mingw64/w64/bin/../lib/gcc/x86_64-w64-mingw32/8.1.0/libstdc++.dll.a(d004423.o)
                              C:\orangec\src\ocpp\obj\mingw64\ppMain.o (std::__detail::_List_node_base::_M_hook(std::__detail::_List_node_base*))
C:/mingw64/w64/bin/../lib/gcc/x86_64-w64-mingw32/8.1.0/libstdc++.dll.a(d004202.o)
                              C:\orangec\src\..\src\lib\mingw64/libutil.a(Utils.o) (std::__cxx11::basic_stringstream<char, std::char_traits<char>, std::allocator<char> >::~basic_stringstream())
C:/mingw64/w64/bin/../lib/gcc/x86_64-w64-mingw32/8.1.0/libstdc++.dll.a(d004072.o)
                              C:\orangec\src\..\src\lib\mingw64/libutil.a(Utils.o) (std::__cxx11::basic_stringbuf<char, std::char_traits<char>, std::allocator<char> >::_M_sync(char*, unsigned long long, unsigned long long))
C:/mingw64/w64/bin/../lib/gcc/x86_64-w64-mingw32/8.1.0/libstdc++.dll.a(d004000.o)
                              C:\orangec\src\..\src\lib\mingw64/libocpplib.a(Token.o) (std::__cxx11::basic_string<wchar_t, std::char_traits<wchar_t>, std::allocator<wchar_t> >::_M_create(unsigned long long&, unsigned long long))
C:/mingw64/w64/bin/../lib/gcc/x86_64-w64-mingw32/8.1.0/libstdc++.dll.a(d003998.o)
                              C:\orangec\src\..\src\lib\mingw64/libocpplib.a(Token.o) (std::__cxx11::basic_string<wchar_t, std::char_traits<wchar_t>, std::allocator<wchar_t> >::_M_append(wchar_t const*, unsigned long long))
C:/mingw64/w64/bin/../lib/gcc/x86_64-w64-mingw32/8.1.0/libstdc++.dll.a(d003895.o)
                              C:\orangec\src\..\src\lib\mingw64/libocpplib.a(PreProcessor.o) (std::__cxx11::basic_string<char, std::char_traits<char>, std::allocator<char> >::operator=(std::__cxx11::basic_string<char, std::char_traits<char>, std::allocator<char> >&&))
C:/mingw64/w64/bin/../lib/gcc/x86_64-w64-mingw32/8.1.0/libstdc++.dll.a(d003858.o)
                              C:\orangec\src\..\src\lib\mingw64/libutil.a(CmdSwitch.o) (std::__cxx11::basic_string<char, std::char_traits<char>, std::allocator<char> >::_M_mutate(unsigned long long, unsigned long long, char const*, unsigned long long))
C:/mingw64/w64/bin/../lib/gcc/x86_64-w64-mingw32/8.1.0/libstdc++.dll.a(d003856.o)
                              C:\orangec\src\ocpp\obj\mingw64\ppMain.o (std::__cxx11::basic_string<char, std::char_traits<char>, std::allocator<char> >::_M_create(unsigned long long&, unsigned long long))
C:/mingw64/w64/bin/../lib/gcc/x86_64-w64-mingw32/8.1.0/libstdc++.dll.a(d003855.o)
                              C:\orangec\src\ocpp\obj\mingw64\ppMain.o (std::__cxx11::basic_string<char, std::char_traits<char>, std::allocator<char> >::_M_assign(std::__cxx11::basic_string<char, std::char_traits<char>, std::allocator<char> > const&))
C:/mingw64/w64/bin/../lib/gcc/x86_64-w64-mingw32/8.1.0/libstdc++.dll.a(d003854.o)
                              C:\orangec\src\ocpp\obj\mingw64\ppMain.o (std::__cxx11::basic_string<char, std::char_traits<char>, std::allocator<char> >::_M_append(char const*, unsigned long long))
C:/mingw64/w64/bin/../lib/gcc/x86_64-w64-mingw32/8.1.0/libstdc++.dll.a(d003852.o)
                              C:\orangec\src\ocpp\obj\mingw64\ppMain.o (std::__cxx11::basic_string<char, std::char_traits<char>, std::allocator<char> >::_M_erase(unsigned long long, unsigned long long))
C:/mingw64/w64/bin/../lib/gcc/x86_64-w64-mingw32/8.1.0/libstdc++.dll.a(d003851.o)
                              C:\orangec\src\..\src\lib\mingw64/libocpplib.a(ppInclude.o) (std::__cxx11::basic_string<char, std::char_traits<char>, std::allocator<char> >::reserve(unsigned long long))
C:/mingw64/w64/bin/../lib/gcc/x86_64-w64-mingw32/8.1.0/libstdc++.dll.a(d003797.o)
                              C:\orangec\src\..\src\lib\mingw64/libocpplib.a(PreProcessor.o) (std::__cxx11::basic_string<char, std::char_traits<char>, std::allocator<char> >::erase(unsigned long long, unsigned long long))
C:/mingw64/w64/bin/../lib/gcc/x86_64-w64-mingw32/8.1.0/libstdc++.dll.a(d003790.o)
                              C:\orangec\src\..\src\lib\mingw64/libocpplib.a(ppMacro.o) (std::__cxx11::basic_string<char, std::char_traits<char>, std::allocator<char> >::swap(std::__cxx11::basic_string<char, std::char_traits<char>, std::allocator<char> >&))
C:/mingw64/w64/bin/../lib/gcc/x86_64-w64-mingw32/8.1.0/libstdc++.dll.a(d003782.o)
                              C:\orangec\src\..\src\lib\mingw64/libocpplib.a(Floating.o) (std::__cxx11::basic_string<char, std::char_traits<char>, std::allocator<char> >::_M_replace_aux(unsigned long long, unsigned long long, unsigned long long, char))
C:/mingw64/w64/bin/../lib/gcc/x86_64-w64-mingw32/8.1.0/libstdc++.dll.a(d003763.o)
                              C:\orangec\src\ocpp\obj\mingw64\ppMain.o (std::__cxx11::basic_string<char, std::char_traits<char>, std::allocator<char> >::_M_replace(unsigned long long, unsigned long long, char const*, unsigned long long))
C:/mingw64/w64/bin/../lib/gcc/x86_64-w64-mingw32/8.1.0/libstdc++.dll.a(d003701.o)
                              C:\orangec\src\ocpp\obj\mingw64\ppMain.o (std::locale::~locale())
C:/mingw64/w64/bin/../lib/gcc/x86_64-w64-mingw32/8.1.0/libstdc++.dll.a(d003694.o)
                              C:\orangec\src\..\src\lib\mingw64/libutil.a(Utils.o) (std::locale::locale())
C:/mingw64/w64/bin/../lib/gcc/x86_64-w64-mingw32/8.1.0/libstdc++.dll.a(d002496.o)
                              C:\orangec\src\ocpp\obj\mingw64\ppMain.o (std::runtime_error::~runtime_error())
C:/mingw64/w64/bin/../lib/gcc/x86_64-w64-mingw32/8.1.0/libstdc++.dll.a(d002489.o)
                              C:\orangec\src\ocpp\obj\mingw64\ppMain.o (std::runtime_error::runtime_error(std::runtime_error const&))
C:/mingw64/w64/bin/../lib/gcc/x86_64-w64-mingw32/8.1.0/libstdc++.dll.a(d002347.o)
                              C:\orangec\src\ocpp\obj\mingw64\ppMain.o (std::basic_fstream<char, std::char_traits<char> >::~basic_fstream())
C:/mingw64/w64/bin/../lib/gcc/x86_64-w64-mingw32/8.1.0/libstdc++.dll.a(d002294.o)
                              C:\orangec\src\ocpp\obj\mingw64\ppMain.o (std::basic_filebuf<char, std::char_traits<char> >::~basic_filebuf())
C:/mingw64/w64/bin/../lib/gcc/x86_64-w64-mingw32/8.1.0/libstdc++.dll.a(d002290.o)
                              C:\orangec\src\ocpp\obj\mingw64\ppMain.o (std::basic_filebuf<char, std::char_traits<char> >::basic_filebuf())
C:/mingw64/w64/bin/../lib/gcc/x86_64-w64-mingw32/8.1.0/libstdc++.dll.a(d002277.o)
                              C:\orangec\src\ocpp\obj\mingw64\ppMain.o (std::basic_filebuf<char, std::char_traits<char> >::close())
C:/mingw64/w64/bin/../lib/gcc/x86_64-w64-mingw32/8.1.0/libstdc++.dll.a(d002272.o)
                              C:\orangec\src\ocpp\obj\mingw64\ppMain.o (std::basic_filebuf<char, std::char_traits<char> >::open(char const*, std::_Ios_Openmode))
C:/mingw64/w64/bin/../lib/gcc/x86_64-w64-mingw32/8.1.0/libstdc++.dll.a(d002047.o)
                              C:\orangec\src\ocpp\obj\mingw64\ppMain.o (std::__basic_file<char>::~__basic_file())
C:/mingw64/w64/bin/../lib/gcc/x86_64-w64-mingw32/8.1.0/libstdc++.dll.a(d001748.o)
                              C:\orangec\src\ocpp\obj\mingw64\ppMain.o (std::ostream::operator<<(int))
C:/mingw64/w64/bin/../lib/gcc/x86_64-w64-mingw32/8.1.0/libstdc++.dll.a(d001709.o)
                              C:\orangec\src\ocpp\obj\mingw64\ppMain.o (std::ostream::flush())
C:/mingw64/w64/bin/../lib/gcc/x86_64-w64-mingw32/8.1.0/libstdc++.dll.a(d001707.o)
                              C:\orangec\src\ocpp\obj\mingw64\ppMain.o (std::ostream::put(char))
C:/mingw64/w64/bin/../lib/gcc/x86_64-w64-mingw32/8.1.0/libstdc++.dll.a(d001669.o)
                              C:\orangec\src\..\src\lib\mingw64/libutil.a(CmdSwitch.o) (std::istream::tellg())
C:/mingw64/w64/bin/../lib/gcc/x86_64-w64-mingw32/8.1.0/libstdc++.dll.a(d001668.o)
                              C:\orangec\src\..\src\lib\mingw64/libutil.a(CmdSwitch.o) (std::istream::seekg(long long, std::_Ios_Seekdir))
C:/mingw64/w64/bin/../lib/gcc/x86_64-w64-mingw32/8.1.0/libstdc++.dll.a(d001664.o)
                              C:\orangec\src\..\src\lib\mingw64/libutil.a(CmdSwitch.o) (std::istream::read(char*, long long))
C:/mingw64/w64/bin/../lib/gcc/x86_64-w64-mingw32/8.1.0/libstdc++.dll.a(d001344.o)
                              C:\orangec\src\..\src\lib\mingw64/libocpplib.a(ppDefine.o) (std::__detail::_Prime_rehash_policy::_M_need_rehash(unsigned long long, unsigned long long, unsigned long long) const)
C:/mingw64/w64/bin/../lib/gcc/x86_64-w64-mingw32/8.1.0/libstdc++.dll.a(d001343.o)
                              C:\orangec\src\..\src\lib\mingw64/libocpplib.a(ppDefine.o) (std::__detail::_Prime_rehash_policy::_M_next_bkt(unsigned long long) const)
C:/mingw64/w64/bin/../lib/gcc/x86_64-w64-mingw32/8.1.0/libstdc++.dll.a(d000977.o)
                              C:\orangec\src\ocpp\obj\mingw64\ppMain.o (std::__cxx11::basic_string<char, std::char_traits<char>, std::allocator<char> >::compare(char const*) const)
C:/mingw64/w64/bin/../lib/gcc/x86_64-w64-mingw32/8.1.0/libstdc++.dll.a(d000975.o)
                              C:\orangec\src\..\src\lib\mingw64/libocpplib.a(PreProcessor.o) (std::__cxx11::basic_string<char, std::char_traits<char>, std::allocator<char> >::substr(unsigned long long, unsigned long long) const)
C:/mingw64/w64/bin/../lib/gcc/x86_64-w64-mingw32/8.1.0/libstdc++.dll.a(d000971.o)
                              C:\orangec\src\ocpp\obj\mingw64\ppMain.o (std::__cxx11::basic_string<char, std::char_traits<char>, std::allocator<char> >::rfind(char, unsigned long long) const)
C:/mingw64/w64/bin/../lib/gcc/x86_64-w64-mingw32/8.1.0/libstdc++.dll.a(d000960.o)
                              C:\orangec\src\..\src\lib\mingw64/libocpplib.a(MakeStubs.o) (std::__cxx11::basic_string<char, std::char_traits<char>, std::allocator<char> >::find(char, unsigned long long) const)
C:/mingw64/w64/bin/../lib/gcc/x86_64-w64-mingw32/8.1.0/libstdc++.dll.a(d000958.o)
                              C:\orangec\src\..\src\lib\mingw64/libocpplib.a(ppDefine.o) (std::__cxx11::basic_string<char, std::char_traits<char>, std::allocator<char> >::find(char const*, unsigned long long, unsigned long long) const)
C:/mingw64/w64/bin/../lib/gcc/x86_64-w64-mingw32/8.1.0/libstdc++.dll.a(d000950.o)
                              C:\orangec\src\..\src\lib\mingw64/libocpplib.a(Token.o) (std::__cxx11::basic_string<char, std::char_traits<char>, std::allocator<char> >::find_first_not_of(char, unsigned long long) const)
C:/mingw64/w64/bin/../lib/gcc/x86_64-w64-mingw32/8.1.0/libstdc++.dll.a(d000948.o)
                              C:\orangec\src\ocpp\obj\mingw64\ppMain.o (std::__cxx11::basic_string<char, std::char_traits<char>, std::allocator<char> >::find_first_not_of(char const*, unsigned long long, unsigned long long) const)
C:/mingw64/w64/bin/../lib/gcc/x86_64-w64-mingw32/8.1.0/libstdc++.dll.a(d000944.o)
                              C:\orangec\src\..\src\lib\mingw64/libocpplib.a(ppDefine.o) (std::__cxx11::basic_string<char, std::char_traits<char>, std::allocator<char> >::find_last_not_of(char const*, unsigned long long, unsigned long long) const)
C:/mingw64/w64/bin/../lib/gcc/x86_64-w64-mingw32/8.1.0/libstdc++.dll.a(d000937.o)
                              C:\orangec\src\..\src\lib\mingw64/libocpplib.a(ppDefine.o) (std::__cxx11::basic_string<char, std::char_traits<char>, std::allocator<char> >::find_first_of(char const*, unsigned long long, unsigned long long) const)
C:/mingw64/w64/bin/../lib/gcc/x86_64-w64-mingw32/8.1.0/libstdc++.dll.a(d000830.o)
                              C:\orangec\src\ocpp\obj\mingw64\ppMain.o (std::ctype<char>::_M_widen_init() const)
C:/mingw64/w64/bin/../lib/gcc/x86_64-w64-mingw32/8.1.0/libstdc++.dll.a(d000693.o)
                              C:\orangec\src\ocpp\obj\mingw64\ppMain.o (std::runtime_error::what() const)
C:/mingw64/w64/bin/../lib/gcc/x86_64-w64-mingw32/8.1.0/libstdc++.dll.a(d000678.o)
                              C:\orangec\src\..\src\lib\mingw64/libocpplib.a(ppInclude.o) (std::__basic_file<char>::is_open() const)
C:/mingw64/w64/bin/../lib/gcc/x86_64-w64-mingw32/8.1.0/libstdc++.dll.a(d000000.o)
                              C:/mingw64/w64/bin/../lib/gcc/x86_64-w64-mingw32/8.1.0/libstdc++.dll.a(d005880.o) (_head_libstdc___6_dll)
C:/mingw64/w64/bin/../lib/gcc/x86_64-w64-mingw32/8.1.0/libstdc++.dll.a(d005884.o)
                              C:/mingw64/w64/bin/../lib/gcc/x86_64-w64-mingw32/8.1.0/libstdc++.dll.a(d000000.o) (libstdc___6_dll_iname)
C:/mingw64/w64/bin/../lib/gcc/x86_64-w64-mingw32/8.1.0/../../../../x86_64-w64-mingw32/lib/../lib/libkernel32.a(dqifs01527.o)
                              C:/mingw64/w64/bin/../lib/gcc/x86_64-w64-mingw32/8.1.0/../../../../x86_64-w64-mingw32/lib/../lib/crt2.o (__C_specific_handler)
C:/mingw64/w64/bin/../lib/gcc/x86_64-w64-mingw32/8.1.0/../../../../x86_64-w64-mingw32/lib/../lib/libkernel32.a(dqifs01510.o)
                              C:\orangec\src\..\src\lib\mingw64/libutil.a(NamedPipe.o) (__imp_WriteFile)
C:/mingw64/w64/bin/../lib/gcc/x86_64-w64-mingw32/8.1.0/../../../../x86_64-w64-mingw32/lib/../lib/libkernel32.a(dqifs01360.o)
                              C:/mingw64/w64/bin/../lib/gcc/x86_64-w64-mingw32/8.1.0/../../../../x86_64-w64-mingw32/lib/../lib/crt2.o (__imp_Sleep)
C:/mingw64/w64/bin/../lib/gcc/x86_64-w64-mingw32/8.1.0/../../../../x86_64-w64-mingw32/lib/../lib/libkernel32.a(dqifs01346.o)
                              C:/mingw64/w64/bin/../lib/gcc/x86_64-w64-mingw32/8.1.0/../../../../x86_64-w64-mingw32/lib/../lib/crt2.o (__imp_SetUnhandledExceptionFilter)
C:/mingw64/w64/bin/../lib/gcc/x86_64-w64-mingw32/8.1.0/../../../../x86_64-w64-mingw32/lib/../lib/libkernel32.a(dqifs01128.o)
                              C:\orangec\src\..\src\lib\mingw64/libutil.a(NamedPipe.o) (__imp_ReadFile)
C:/mingw64/w64/bin/../lib/gcc/x86_64-w64-mingw32/8.1.0/../../../../x86_64-w64-mingw32/lib/../lib/libkernel32.a(dqifs01051.o)
                              C:\orangec\src\..\src\lib\mingw64/libutil.a(NamedPipe.o) (__imp_PeekNamedPipe)
C:/mingw64/w64/bin/../lib/gcc/x86_64-w64-mingw32/8.1.0/../../../../x86_64-w64-mingw32/lib/../lib/libkernel32.a(dqifs00774.o)
                              C:\orangec\src\..\src\lib\mingw64/libutil.a(NamedPipe.o) (__imp_GetTickCount)
C:/mingw64/w64/bin/../lib/gcc/x86_64-w64-mingw32/8.1.0/../../../../x86_64-w64-mingw32/lib/../lib/libkernel32.a(dqifs00724.o)
                              C:\orangec\src\..\src\lib\mingw64/libutil.a(Utils.o) (__imp_GetStdHandle)
C:/mingw64/w64/bin/../lib/gcc/x86_64-w64-mingw32/8.1.0/../../../../x86_64-w64-mingw32/lib/../lib/libkernel32.a(dqifs00721.o)
                              C:/mingw64/w64/bin/../lib/gcc/x86_64-w64-mingw32/8.1.0/../../../../x86_64-w64-mingw32/lib/../lib/crt2.o (__imp_GetStartupInfoA)
C:/mingw64/w64/bin/../lib/gcc/x86_64-w64-mingw32/8.1.0/../../../../x86_64-w64-mingw32/lib/../lib/libkernel32.a(dqifs00628.o)
                              C:\orangec\src\ocpp\obj\mingw64\ppMain.o (GetModuleFileNameA)
C:/mingw64/w64/bin/../lib/gcc/x86_64-w64-mingw32/8.1.0/../../../../x86_64-w64-mingw32/lib/../lib/libkernel32.a(dqifs00609.o)
                              C:\orangec\src\..\src\lib\mingw64/libutil.a(NamedPipe.o) (__imp_GetLastError)
C:/mingw64/w64/bin/../lib/gcc/x86_64-w64-mingw32/8.1.0/../../../../x86_64-w64-mingw32/lib/../lib/libkernel32.a(dqifs00578.o)
                              C:\orangec\src\..\src\lib\mingw64/libutil.a(Utils.o) (__imp_GetFileAttributesA)
C:/mingw64/w64/bin/../lib/gcc/x86_64-w64-mingw32/8.1.0/../../../../x86_64-w64-mingw32/lib/../lib/libkernel32.a(dqifs00528.o)
                              C:\orangec\src\..\src\lib\mingw64/libutil.a(Utils.o) (__imp_GetCurrentDirectoryA)
C:/mingw64/w64/bin/../lib/gcc/x86_64-w64-mingw32/8.1.0/../../../../x86_64-w64-mingw32/lib/../lib/libkernel32.a(dqifs00514.o)
                              C:\orangec\src\..\src\lib\mingw64/libutil.a(Utils.o) (__imp_GetConsoleScreenBufferInfo)
C:/mingw64/w64/bin/../lib/gcc/x86_64-w64-mingw32/8.1.0/../../../../x86_64-w64-mingw32/lib/../lib/libkernel32.a(dqifs00191.o)
                              C:\orangec\src\..\src\lib\mingw64/libutil.a(NamedPipe.o) (__imp_CreateFileA)
C:/mingw64/w64/bin/../lib/gcc/x86_64-w64-mingw32/8.1.0/../../../../x86_64-w64-mingw32/lib/../lib/libkernel32.a(dqifh.o)
                              C:/mingw64/w64/bin/../lib/gcc/x86_64-w64-mingw32/8.1.0/../../../../x86_64-w64-mingw32/lib/../lib/libkernel32.a(dqifs01527.o) (_head_lib64_libkernel32_a)
C:/mingw64/w64/bin/../lib/gcc/x86_64-w64-mingw32/8.1.0/../../../../x86_64-w64-mingw32/lib/../lib/libkernel32.a(dqift.o)
                              C:/mingw64/w64/bin/../lib/gcc/x86_64-w64-mingw32/8.1.0/../../../../x86_64-w64-mingw32/lib/../lib/libkernel32.a(dqifh.o) (__lib64_libkernel32_a_iname)
C:/mingw64/w64/bin/../lib/gcc/x86_64-w64-mingw32/8.1.0/../../../../x86_64-w64-mingw32/lib/../lib/libmingw32.a(lib64_libmingw32_a-gccmain.o)
                              C:/mingw64/w64/bin/../lib/gcc/x86_64-w64-mingw32/8.1.0/../../../../x86_64-w64-mingw32/lib/../lib/crt2.o (__main)
C:/mingw64/w64/bin/../lib/gcc/x86_64-w64-mingw32/8.1.0/../../../../x86_64-w64-mingw32/lib/../lib/libmingw32.a(lib64_libmingw32_a-natstart.o)
                              C:/mingw64/w64/bin/../lib/gcc/x86_64-w64-mingw32/8.1.0/../../../../x86_64-w64-mingw32/lib/../lib/crt2.o (__native_startup_lock)
C:/mingw64/w64/bin/../lib/gcc/x86_64-w64-mingw32/8.1.0/../../../../x86_64-w64-mingw32/lib/../lib/libmingw32.a(lib64_libmingw32_a-wildcard.o)
                              C:/mingw64/w64/bin/../lib/gcc/x86_64-w64-mingw32/8.1.0/../../../../x86_64-w64-mingw32/lib/../lib/crt2.o (_dowildcard)
C:/mingw64/w64/bin/../lib/gcc/x86_64-w64-mingw32/8.1.0/../../../../x86_64-w64-mingw32/lib/../lib/libmingw32.a(lib64_libmingw32_a-charmax.o)
                              C:/mingw64/w64/bin/../lib/gcc/x86_64-w64-mingw32/8.1.0/../../../../x86_64-w64-mingw32/lib/../lib/crt2.o (mingw_initcharmax)
C:/mingw64/w64/bin/../lib/gcc/x86_64-w64-mingw32/8.1.0/../../../../x86_64-w64-mingw32/lib/../lib/libmingw32.a(lib64_libmingw32_a-dllargv.o)
                              C:/mingw64/w64/bin/../lib/gcc/x86_64-w64-mingw32/8.1.0/../../../../x86_64-w64-mingw32/lib/../lib/crt2.o (_setargv)
C:/mingw64/w64/bin/../lib/gcc/x86_64-w64-mingw32/8.1.0/../../../../x86_64-w64-mingw32/lib/../lib/libmingw32.a(lib64_libmingw32_a-gs_support.o)
                              C:/mingw64/w64/bin/../lib/gcc/x86_64-w64-mingw32/8.1.0/../../../../x86_64-w64-mingw32/lib/../lib/crt2.o (__security_init_cookie)
C:/mingw64/w64/bin/../lib/gcc/x86_64-w64-mingw32/8.1.0/../../../../x86_64-w64-mingw32/lib/../lib/libmingw32.a(lib64_libmingw32_a-_newmode.o)
                              C:/mingw64/w64/bin/../lib/gcc/x86_64-w64-mingw32/8.1.0/../../../../x86_64-w64-mingw32/lib/../lib/crt2.o (_newmode)
C:/mingw64/w64/bin/../lib/gcc/x86_64-w64-mingw32/8.1.0/../../../../x86_64-w64-mingw32/lib/../lib/libmingw32.a(lib64_libmingw32_a-tlssup.o)
                              C:/mingw64/w64/bin/../lib/gcc/x86_64-w64-mingw32/8.1.0/../../../../x86_64-w64-mingw32/lib/../lib/crt2.o (mingw_initltssuo_force)
C:/mingw64/w64/bin/../lib/gcc/x86_64-w64-mingw32/8.1.0/../../../../x86_64-w64-mingw32/lib/../lib/libmingw32.a(lib64_libmingw32_a-cinitexe.o)
                              C:/mingw64/w64/bin/../lib/gcc/x86_64-w64-mingw32/8.1.0/../../../../x86_64-w64-mingw32/lib/../lib/crt2.o (__xc_z)
C:/mingw64/w64/bin/../lib/gcc/x86_64-w64-mingw32/8.1.0/../../../../x86_64-w64-mingw32/lib/../lib/libmingw32.a(lib64_libmingw32_a-merr.o)
                              C:/mingw64/w64/bin/../lib/gcc/x86_64-w64-mingw32/8.1.0/../../../../x86_64-w64-mingw32/lib/../lib/crt2.o (__mingw_setusermatherr)
C:/mingw64/w64/bin/../lib/gcc/x86_64-w64-mingw32/8.1.0/../../../../x86_64-w64-mingw32/lib/../lib/libmingw32.a(lib64_libmingw32_a-CRT_fp10.o)
                              C:/mingw64/w64/bin/../lib/gcc/x86_64-w64-mingw32/8.1.0/../../../../x86_64-w64-mingw32/lib/../lib/crt2.o (_fpreset)
C:/mingw64/w64/bin/../lib/gcc/x86_64-w64-mingw32/8.1.0/../../../../x86_64-w64-mingw32/lib/../lib/libmingw32.a(lib64_libmingw32_a-mingw_helpers.o)
                              C:/mingw64/w64/bin/../lib/gcc/x86_64-w64-mingw32/8.1.0/../../../../x86_64-w64-mingw32/lib/../lib/crt2.o (mingw_app_type)
C:/mingw64/w64/bin/../lib/gcc/x86_64-w64-mingw32/8.1.0/../../../../x86_64-w64-mingw32/lib/../lib/libmingw32.a(lib64_libmingw32_a-pseudo-reloc.o)
                              C:/mingw64/w64/bin/../lib/gcc/x86_64-w64-mingw32/8.1.0/../../../../x86_64-w64-mingw32/lib/../lib/crt2.o (_pei386_runtime_relocator)
C:/mingw64/w64/bin/../lib/gcc/x86_64-w64-mingw32/8.1.0/../../../../x86_64-w64-mingw32/lib/../lib/libmingw32.a(lib64_libmingw32_a-xtxtmode.o)
                              C:/mingw64/w64/bin/../lib/gcc/x86_64-w64-mingw32/8.1.0/../../../../x86_64-w64-mingw32/lib/../lib/crt2.o (_fmode)
C:/mingw64/w64/bin/../lib/gcc/x86_64-w64-mingw32/8.1.0/../../../../x86_64-w64-mingw32/lib/../lib/libmingw32.a(lib64_libmingw32_a-crt_handler.o)
                              C:/mingw64/w64/bin/../lib/gcc/x86_64-w64-mingw32/8.1.0/../../../../x86_64-w64-mingw32/lib/../lib/crt2.o (__mingw_init_ehandler)
C:/mingw64/w64/bin/../lib/gcc/x86_64-w64-mingw32/8.1.0/../../../../x86_64-w64-mingw32/lib/../lib/libmingw32.a(lib64_libmingw32_a-tlsthrd.o)
                              C:/mingw64/w64/bin/../lib/gcc/x86_64-w64-mingw32/8.1.0/../../../../x86_64-w64-mingw32/lib/../lib/libmingw32.a(lib64_libmingw32_a-tlssup.o) (__mingw_TLScallback)
C:/mingw64/w64/bin/../lib/gcc/x86_64-w64-mingw32/8.1.0/../../../../x86_64-w64-mingw32/lib/../lib/libmingw32.a(lib64_libmingw32_a-tlsmcrt.o)
                              C:/mingw64/w64/bin/../lib/gcc/x86_64-w64-mingw32/8.1.0/../../../../x86_64-w64-mingw32/lib/../lib/libmingw32.a(lib64_libmingw32_a-tlssup.o) (_CRT_MT)
C:/mingw64/w64/bin/../lib/gcc/x86_64-w64-mingw32/8.1.0/../../../../x86_64-w64-mingw32/lib/../lib/libmingw32.a(lib64_libmingw32_a-pseudo-reloc-list.o)
                              C:/mingw64/w64/bin/../lib/gcc/x86_64-w64-mingw32/8.1.0/../../../../x86_64-w64-mingw32/lib/../lib/libmingw32.a(lib64_libmingw32_a-pseudo-reloc.o) (__RUNTIME_PSEUDO_RELOC_LIST__)
C:/mingw64/w64/bin/../lib/gcc/x86_64-w64-mingw32/8.1.0/../../../../x86_64-w64-mingw32/lib/../lib/libmingw32.a(lib64_libmingw32_a-pesect.o)
                              C:/mingw64/w64/bin/../lib/gcc/x86_64-w64-mingw32/8.1.0/../../../../x86_64-w64-mingw32/lib/../lib/libmingw32.a(lib64_libmingw32_a-crt_handler.o) (_FindPESectionByName)
C:/mingw64/w64/bin/../lib/gcc/x86_64-w64-mingw32/8.1.0/libgcc.a(_chkstk_ms.o)
                              C:\orangec\src\..\src\lib\mingw64/libocpplib.a(ppPragma.o) (___chkstk_ms)
C:/mingw64/w64/bin/../lib/gcc/x86_64-w64-mingw32/8.1.0/libgcc.a(_ctors.o)
                              C:/mingw64/w64/bin/../lib/gcc/x86_64-w64-mingw32/8.1.0/../../../../x86_64-w64-mingw32/lib/../lib/libmingw32.a(lib64_libmingw32_a-gccmain.o) (__DTOR_LIST__)
C:/mingw64/w64/bin/../lib/gcc/x86_64-w64-mingw32/8.1.0/libgcc_eh.a(unwind-seh.o)
                              C:\orangec\src\ocpp\obj\mingw64\ppMain.o (_Unwind_Resume)
C:/mingw64/w64/bin/../lib/gcc/x86_64-w64-mingw32/8.1.0/../../../../x86_64-w64-mingw32/lib/../lib/libmingwex.a(lib64_libmingwex_a-mingw_matherr.o)
                              C:/mingw64/w64/bin/../lib/gcc/x86_64-w64-mingw32/8.1.0/../../../../x86_64-w64-mingw32/lib/../lib/crt2.o (_MINGW_INSTALL_DEBUG_MATHERR)
C:/mingw64/w64/bin/../lib/gcc/x86_64-w64-mingw32/8.1.0/../../../../x86_64-w64-mingw32/lib/../lib/libmingwex.a(lib64_libmingwex_a-_stat.o)
                              C:\orangec\src\..\src\lib\mingw64/libocpplib.a(ppPragma.o) (stat)
C:/mingw64/w64/bin/../lib/gcc/x86_64-w64-mingw32/8.1.0/../../../../x86_64-w64-mingw32/lib/../lib/libmingwex.a(lib64_libmingwex_a-mingw_vfprintf.o)
                              C:\orangec\src\ocpp\obj\mingw64\ppMain.o (__mingw_vfprintf)
C:/mingw64/w64/bin/../lib/gcc/x86_64-w64-mingw32/8.1.0/../../../../x86_64-w64-mingw32/lib/../lib/libmingwex.a(lib64_libmingwex_a-mingw_vsnprintf.o)
                              C:\orangec\src\..\src\lib\mingw64/libutil.a(Utils.o) (__mingw_vsnprintf)
C:/mingw64/w64/bin/../lib/gcc/x86_64-w64-mingw32/8.1.0/../../../../x86_64-w64-mingw32/lib/../lib/libmingwex.a(lib64_libmingwex_a-mingw_vsprintf.o)
                              C:\orangec\src\..\src\lib\mingw64/libocpplib.a(ppDefine.o) (__mingw_vsprintf)
C:/mingw64/w64/bin/../lib/gcc/x86_64-w64-mingw32/8.1.0/../../../../x86_64-w64-mingw32/lib/../lib/libmingwex.a(lib64_libmingwex_a-mingw_pformat.o)
                              C:/mingw64/w64/bin/../lib/gcc/x86_64-w64-mingw32/8.1.0/../../../../x86_64-w64-mingw32/lib/../lib/libmingwex.a(lib64_libmingwex_a-mingw_vfprintf.o) (__mingw_pformat)
C:/mingw64/w64/bin/../lib/gcc/x86_64-w64-mingw32/8.1.0/../../../../x86_64-w64-mingw32/lib/../lib/libmingwex.a(lib64_libmingwex_a-dmisc.o)
                              C:/mingw64/w64/bin/../lib/gcc/x86_64-w64-mingw32/8.1.0/../../../../x86_64-w64-mingw32/lib/../lib/libmingwex.a(lib64_libmingwex_a-mingw_pformat.o) (__freedtoa)
C:/mingw64/w64/bin/../lib/gcc/x86_64-w64-mingw32/8.1.0/../../../../x86_64-w64-mingw32/lib/../lib/libmingwex.a(lib64_libmingwex_a-gdtoa.o)
                              C:/mingw64/w64/bin/../lib/gcc/x86_64-w64-mingw32/8.1.0/../../../../x86_64-w64-mingw32/lib/../lib/libmingwex.a(lib64_libmingwex_a-mingw_pformat.o) (__gdtoa)
C:/mingw64/w64/bin/../lib/gcc/x86_64-w64-mingw32/8.1.0/../../../../x86_64-w64-mingw32/lib/../lib/libmingwex.a(lib64_libmingwex_a-gmisc.o)
                              C:/mingw64/w64/bin/../lib/gcc/x86_64-w64-mingw32/8.1.0/../../../../x86_64-w64-mingw32/lib/../lib/libmingwex.a(lib64_libmingwex_a-gdtoa.o) (__rshift_D2A)
C:/mingw64/w64/bin/../lib/gcc/x86_64-w64-mingw32/8.1.0/../../../../x86_64-w64-mingw32/lib/../lib/libmingwex.a(lib64_libmingwex_a-misc.o)
                              C:/mingw64/w64/bin/../lib/gcc/x86_64-w64-mingw32/8.1.0/../../../../x86_64-w64-mingw32/lib/../lib/libmingwex.a(lib64_libmingwex_a-dmisc.o) (__Balloc_D2A)
C:/mingw64/w64/bin/../lib/gcc/x86_64-w64-mingw32/8.1.0/../../../../x86_64-w64-mingw32/lib/../lib/libmingwex.a(lib64_libmingwex_a-mbrtowc.o)
                              C:/mingw64/w64/bin/../lib/gcc/x86_64-w64-mingw32/8.1.0/../../../../x86_64-w64-mingw32/lib/../lib/libmingwex.a(lib64_libmingwex_a-mingw_pformat.o) (mbrtowc)
C:/mingw64/w64/bin/../lib/gcc/x86_64-w64-mingw32/8.1.0/../../../../x86_64-w64-mingw32/lib/../lib/libmingwex.a(lib64_libmingwex_a-strnlen.o)
                              C:/mingw64/w64/bin/../lib/gcc/x86_64-w64-mingw32/8.1.0/../../../../x86_64-w64-mingw32/lib/../lib/libmingwex.a(lib64_libmingwex_a-mingw_pformat.o) (strnlen)
C:/mingw64/w64/bin/../lib/gcc/x86_64-w64-mingw32/8.1.0/../../../../x86_64-w64-mingw32/lib/../lib/libmingwex.a(lib64_libmingwex_a-wcrtomb.o)
                              C:/mingw64/w64/bin/../lib/gcc/x86_64-w64-mingw32/8.1.0/../../../../x86_64-w64-mingw32/lib/../lib/libmingwex.a(lib64_libmingwex_a-mingw_pformat.o) (wcrtomb)
C:/mingw64/w64/bin/../lib/gcc/x86_64-w64-mingw32/8.1.0/../../../../x86_64-w64-mingw32/lib/../lib/libmingwex.a(lib64_libmingwex_a-wcsnlen.o)
                              C:/mingw64/w64/bin/../lib/gcc/x86_64-w64-mingw32/8.1.0/../../../../x86_64-w64-mingw32/lib/../lib/libmingwex.a(lib64_libmingwex_a-mingw_pformat.o) (wcsnlen)
C:/mingw64/w64/bin/../lib/gcc/x86_64-w64-mingw32/8.1.0/../../../../x86_64-w64-mingw32/lib/../lib/libmsvcrt.a(duags01264.o)
                              C:\orangec\src\..\src\lib\mingw64/libocpplib.a(Token.o) (wcslen)
C:/mingw64/w64/bin/../lib/gcc/x86_64-w64-mingw32/8.1.0/../../../../x86_64-w64-mingw32/lib/../lib/libmsvcrt.a(duags01243.o)
                              C:/mingw64/w64/bin/../lib/gcc/x86_64-w64-mingw32/8.1.0/../../../../x86_64-w64-mingw32/lib/../lib/libmingw32.a(lib64_libmingw32_a-pseudo-reloc.o) (vfprintf)
C:/mingw64/w64/bin/../lib/gcc/x86_64-w64-mingw32/8.1.0/../../../../x86_64-w64-mingw32/lib/../lib/libmsvcrt.a(duags01238.o)
                              C:\orangec\src\..\src\lib\mingw64/libocpplib.a(ppPragma.o) (__imp_toupper)
C:/mingw64/w64/bin/../lib/gcc/x86_64-w64-mingw32/8.1.0/../../../../x86_64-w64-mingw32/lib/../lib/libmsvcrt.a(duags01237.o)
                              C:\orangec\src\..\src\lib\mingw64/libutil.a(Utils.o) (__imp_tolower)
C:/mingw64/w64/bin/../lib/gcc/x86_64-w64-mingw32/8.1.0/../../../../x86_64-w64-mingw32/lib/../lib/libmsvcrt.a(duags01235.o)
                              C:\orangec\src\..\src\lib\mingw64/libutil.a(Utils.o) (tmpnam)
C:/mingw64/w64/bin/../lib/gcc/x86_64-w64-mingw32/8.1.0/../../../../x86_64-w64-mingw32/lib/../lib/libmsvcrt.a(duags01223.o)
                              C:\orangec\src\..\src\lib\mingw64/libocpplib.a(ppDefine.o) (strtoul)
C:/mingw64/w64/bin/../lib/gcc/x86_64-w64-mingw32/8.1.0/../../../../x86_64-w64-mingw32/lib/../lib/libmsvcrt.a(duags01222.o)
                              C:\orangec\src\..\src\lib\mingw64/libutil.a(Utils.o) (strtol)
C:/mingw64/w64/bin/../lib/gcc/x86_64-w64-mingw32/8.1.0/../../../../x86_64-w64-mingw32/lib/../lib/libmsvcrt.a(duags01215.o)
                              C:\orangec\src\..\src\lib\mingw64/libocpplib.a(ppFile.o) (strrchr)
C:/mingw64/w64/bin/../lib/gcc/x86_64-w64-mingw32/8.1.0/../../../../x86_64-w64-mingw32/lib/../lib/libmsvcrt.a(duags01212.o)
                              C:\orangec\src\..\src\lib\mingw64/libocpplib.a(ppInclude.o) (strncpy)
C:/mingw64/w64/bin/../lib/gcc/x86_64-w64-mingw32/8.1.0/../../../../x86_64-w64-mingw32/lib/../lib/libmsvcrt.a(duags01211.o)
                              C:/mingw64/w64/bin/../lib/gcc/x86_64-w64-mingw32/8.1.0/../../../../x86_64-w64-mingw32/lib/../lib/libmingw32.a(lib64_libmingw32_a-pesect.o) (strncmp)
C:/mingw64/w64/bin/../lib/gcc/x86_64-w64-mingw32/8.1.0/../../../../x86_64-w64-mingw32/lib/../lib/libmsvcrt.a(duags01209.o)
                              C:\orangec\src\..\src\lib\mingw64/libutil.a(Utils.o) (strncat)
C:/mingw64/w64/bin/../lib/gcc/x86_64-w64-mingw32/8.1.0/../../../../x86_64-w64-mingw32/lib/../lib/libmsvcrt.a(duags01208.o)
                              C:/mingw64/w64/bin/../lib/gcc/x86_64-w64-mingw32/8.1.0/../../../../x86_64-w64-mingw32/lib/../lib/crt2.o (strlen)
C:/mingw64/w64/bin/../lib/gcc/x86_64-w64-mingw32/8.1.0/../../../../x86_64-w64-mingw32/lib/../lib/libmsvcrt.a(duags01207.o)
                              C:\orangec\src\..\src\lib\mingw64/libocpplib.a(ppDefine.o) (strftime)
C:/mingw64/w64/bin/../lib/gcc/x86_64-w64-mingw32/8.1.0/../../../../x86_64-w64-mingw32/lib/../lib/libmsvcrt.a(duags01206.o)
                              C:/mingw64/w64/bin/../lib/gcc/x86_64-w64-mingw32/8.1.0/../../../../x86_64-w64-mingw32/lib/../lib/libmingwex.a(lib64_libmingwex_a-mingw_pformat.o) (strerror)
C:/mingw64/w64/bin/../lib/gcc/x86_64-w64-mingw32/8.1.0/../../../../x86_64-w64-mingw32/lib/../lib/libmsvcrt.a(duags01203.o)
                              C:\orangec\src\..\src\lib\mingw64/libutil.a(Utils.o) (strcpy)
C:/mingw64/w64/bin/../lib/gcc/x86_64-w64-mingw32/8.1.0/../../../../x86_64-w64-mingw32/lib/../lib/libmsvcrt.a(duags01200.o)
                              C:\orangec\src\..\src\lib\mingw64/libocpplib.a(ppInclude.o) (strchr)
C:/mingw64/w64/bin/../lib/gcc/x86_64-w64-mingw32/8.1.0/../../../../x86_64-w64-mingw32/lib/../lib/libmsvcrt.a(duags01198.o)
                              C:\orangec\src\..\src\lib\mingw64/libocpplib.a(ppInclude.o) (strcat)
C:/mingw64/w64/bin/../lib/gcc/x86_64-w64-mingw32/8.1.0/../../../../x86_64-w64-mingw32/lib/../lib/libmsvcrt.a(duags01187.o)
                              C:/mingw64/w64/bin/../lib/gcc/x86_64-w64-mingw32/8.1.0/../../../../x86_64-w64-mingw32/lib/../lib/libmingw32.a(lib64_libmingw32_a-crt_handler.o) (signal)
C:/mingw64/w64/bin/../lib/gcc/x86_64-w64-mingw32/8.1.0/../../../../x86_64-w64-mingw32/lib/../lib/libmsvcrt.a(duags01159.o)
                              C:\orangec\src\ocpp\obj\mingw64\ppMain.o (memset)
C:/mingw64/w64/bin/../lib/gcc/x86_64-w64-mingw32/8.1.0/../../../../x86_64-w64-mingw32/lib/../lib/libmsvcrt.a(duags01158.o)
                              C:\orangec\src\ocpp\obj\mingw64\ppMain.o (memmove)
C:/mingw64/w64/bin/../lib/gcc/x86_64-w64-mingw32/8.1.0/../../../../x86_64-w64-mingw32/lib/../lib/libmsvcrt.a(duags01157.o)
                              C:/mingw64/w64/bin/../lib/gcc/x86_64-w64-mingw32/8.1.0/../../../../x86_64-w64-mingw32/lib/../lib/crt2.o (memcpy)
C:/mingw64/w64/bin/../lib/gcc/x86_64-w64-mingw32/8.1.0/../../../../x86_64-w64-mingw32/lib/../lib/libmsvcrt.a(duags01156.o)
                              C:\orangec\src\..\src\lib\mingw64/libocpplib.a(ppDefine.o) (memcmp)
C:/mingw64/w64/bin/../lib/gcc/x86_64-w64-mingw32/8.1.0/../../../../x86_64-w64-mingw32/lib/../lib/libmsvcrt.a(duags01149.o)
                              C:/mingw64/w64/bin/../lib/gcc/x86_64-w64-mingw32/8.1.0/../../../../x86_64-w64-mingw32/lib/../lib/crt2.o (malloc)
C:/mingw64/w64/bin/../lib/gcc/x86_64-w64-mingw32/8.1.0/../../../../x86_64-w64-mingw32/lib/../lib/libmsvcrt.a(duags01142.o)
                              C:/mingw64/w64/bin/../lib/gcc/x86_64-w64-mingw32/8.1.0/../../../../x86_64-w64-mingw32/lib/../lib/libmingwex.a(lib64_libmingwex_a-mingw_pformat.o) (localeconv)
C:/mingw64/w64/bin/../lib/gcc/x86_64-w64-mingw32/8.1.0/../../../../x86_64-w64-mingw32/lib/../lib/libmsvcrt.a(duags01138.o)
                              C:\orangec\src\..\src\lib\mingw64/libocpplib.a(Token.o) (__imp_isxdigit)
C:/mingw64/w64/bin/../lib/gcc/x86_64-w64-mingw32/8.1.0/../../../../x86_64-w64-mingw32/lib/../lib/libmsvcrt.a(duags01122.o)
                              C:\orangec\src\ocpp\obj\mingw64\ppMain.o (__imp_isspace)
C:/mingw64/w64/bin/../lib/gcc/x86_64-w64-mingw32/8.1.0/../../../../x86_64-w64-mingw32/lib/../lib/libmsvcrt.a(duags01121.o)
                              C:\orangec\src\..\src\lib\mingw64/libocpplib.a(Token.o) (__imp_ispunct)
C:/mingw64/w64/bin/../lib/gcc/x86_64-w64-mingw32/8.1.0/../../../../x86_64-w64-mingw32/lib/../lib/libmsvcrt.a(duags01114.o)
                              C:\orangec\src\..\src\lib\mingw64/libutil.a(CmdSwitch.o) (__imp_isalpha)
C:/mingw64/w64/bin/../lib/gcc/x86_64-w64-mingw32/8.1.0/../../../../x86_64-w64-mingw32/lib/../lib/libmsvcrt.a(duags01113.o)
                              C:\orangec\src\..\src\lib\mingw64/libocpplib.a(ppPragma.o) (__imp_isalnum)
C:/mingw64/w64/bin/../lib/gcc/x86_64-w64-mingw32/8.1.0/../../../../x86_64-w64-mingw32/lib/../lib/libmsvcrt.a(duags01106.o)
                              C:\orangec\src\ocpp\obj\mingw64\ppMain.o (getenv)
C:/mingw64/w64/bin/../lib/gcc/x86_64-w64-mingw32/8.1.0/../../../../x86_64-w64-mingw32/lib/../lib/libmsvcrt.a(duags01101.o)
                              C:\orangec\src\ocpp\obj\mingw64\ppMain.o (fwrite)
C:/mingw64/w64/bin/../lib/gcc/x86_64-w64-mingw32/8.1.0/../../../../x86_64-w64-mingw32/lib/../lib/libmsvcrt.a(duags01089.o)
                              C:\orangec\src\..\src\lib\mingw64/libutil.a(NamedPipe.o) (free)
C:/mingw64/w64/bin/../lib/gcc/x86_64-w64-mingw32/8.1.0/../../../../x86_64-w64-mingw32/lib/../lib/libmsvcrt.a(duags01088.o)
                              C:\orangec\src\..\src\lib\mingw64/libocpplib.a(ppPragma.o) (fread)
C:/mingw64/w64/bin/../lib/gcc/x86_64-w64-mingw32/8.1.0/../../../../x86_64-w64-mingw32/lib/../lib/libmsvcrt.a(duags01085.o)
                              C:\orangec\src\..\src\lib\mingw64/libocpplib.a(Errors.o) (fputs)
C:/mingw64/w64/bin/../lib/gcc/x86_64-w64-mingw32/8.1.0/../../../../x86_64-w64-mingw32/lib/../lib/libmsvcrt.a(duags01084.o)
                              C:\orangec\src\ocpp\obj\mingw64\ppMain.o (fputc)
C:/mingw64/w64/bin/../lib/gcc/x86_64-w64-mingw32/8.1.0/../../../../x86_64-w64-mingw32/lib/../lib/libmsvcrt.a(duags01082.o)
                              C:/mingw64/w64/bin/../lib/gcc/x86_64-w64-mingw32/8.1.0/../../../../x86_64-w64-mingw32/lib/../lib/libmingw32.a(lib64_libmingw32_a-merr.o) (fprintf)
C:/mingw64/w64/bin/../lib/gcc/x86_64-w64-mingw32/8.1.0/../../../../x86_64-w64-mingw32/lib/../lib/libmsvcrt.a(duags01080.o)
                              C:\orangec\src\..\src\lib\mingw64/libocpplib.a(ppPragma.o) (fopen)
C:/mingw64/w64/bin/../lib/gcc/x86_64-w64-mingw32/8.1.0/../../../../x86_64-w64-mingw32/lib/../lib/libmsvcrt.a(duags01073.o)
                              C:\orangec\src\..\src\lib\mingw64/libutil.a(Utils.o) (fgets)
C:/mingw64/w64/bin/../lib/gcc/x86_64-w64-mingw32/8.1.0/../../../../x86_64-w64-mingw32/lib/../lib/libmsvcrt.a(duags01067.o)
                              C:\orangec\src\..\src\lib\mingw64/libocpplib.a(ppPragma.o) (fclose)
C:/mingw64/w64/bin/../lib/gcc/x86_64-w64-mingw32/8.1.0/../../../../x86_64-w64-mingw32/lib/../lib/libmsvcrt.a(duags01063.o)
                              C:/mingw64/w64/bin/../lib/gcc/x86_64-w64-mingw32/8.1.0/../../../../x86_64-w64-mingw32/lib/../lib/crt2.o (exit)
C:/mingw64/w64/bin/../lib/gcc/x86_64-w64-mingw32/8.1.0/../../../../x86_64-w64-mingw32/lib/../lib/libmsvcrt.a(duags01050.o)
                              C:\orangec\src\..\src\lib\mingw64/libutil.a(NamedPipe.o) (calloc)
C:/mingw64/w64/bin/../lib/gcc/x86_64-w64-mingw32/8.1.0/../../../../x86_64-w64-mingw32/lib/../lib/libmsvcrt.a(duags01032.o)
                              C:/mingw64/w64/bin/../lib/gcc/x86_64-w64-mingw32/8.1.0/../../../../x86_64-w64-mingw32/lib/../lib/libmingw32.a(lib64_libmingw32_a-gs_support.o) (abort)
C:/mingw64/w64/bin/../lib/gcc/x86_64-w64-mingw32/8.1.0/../../../../x86_64-w64-mingw32/lib/../lib/libmsvcrt.a(duags00791.o)
                              C:\orangec\src\..\src\lib\mingw64/libocpplib.a(ppDefine.o) (__imp__time64)
C:/mingw64/w64/bin/../lib/gcc/x86_64-w64-mingw32/8.1.0/../../../../x86_64-w64-mingw32/lib/../lib/libmsvcrt.a(duags00749.o)
                              C:\orangec\src\..\src\lib\mingw64/libocpplib.a(ppPragma.o) (strnicmp)
C:/mingw64/w64/bin/../lib/gcc/x86_64-w64-mingw32/8.1.0/../../../../x86_64-w64-mingw32/lib/../lib/libmsvcrt.a(duags00730.o)
                              C:\orangec\src\..\src\lib\mingw64/libutil.a(CmdSwitch.o) (strdup)
C:/mingw64/w64/bin/../lib/gcc/x86_64-w64-mingw32/8.1.0/../../../../x86_64-w64-mingw32/lib/../lib/libmsvcrt.a(duags00723.o)
                              C:/mingw64/w64/bin/../lib/gcc/x86_64-w64-mingw32/8.1.0/../../../../x86_64-w64-mingw32/lib/../lib/libmingwex.a(lib64_libmingwex_a-_stat.o) (_stat64)
C:/mingw64/w64/bin/../lib/gcc/x86_64-w64-mingw32/8.1.0/../../../../x86_64-w64-mingw32/lib/../lib/libmsvcrt.a(duags00647.o)
                              C:\orangec\src\..\src\lib\mingw64/libocpplib.a(InputFile.o) (read)
C:/mingw64/w64/bin/../lib/gcc/x86_64-w64-mingw32/8.1.0/../../../../x86_64-w64-mingw32/lib/../lib/libmsvcrt.a(duags00634.o)
                              C:\orangec\src\..\src\lib\mingw64/libutil.a(Utils.o) (putenv)
C:/mingw64/w64/bin/../lib/gcc/x86_64-w64-mingw32/8.1.0/../../../../x86_64-w64-mingw32/lib/../lib/libmsvcrt.a(duags00617.o)
                              C:\orangec\src\..\src\lib\mingw64/libutil.a(NamedPipe.o) (__imp__open_osfhandle)
C:/mingw64/w64/bin/../lib/gcc/x86_64-w64-mingw32/8.1.0/../../../../x86_64-w64-mingw32/lib/../lib/libmsvcrt.a(duags00616.o)
                              C:\orangec\src\..\src\lib\mingw64/libocpplib.a(InputFile.o) (open)
C:/mingw64/w64/bin/../lib/gcc/x86_64-w64-mingw32/8.1.0/../../../../x86_64-w64-mingw32/lib/../lib/libmsvcrt.a(duags00614.o)
                              C:/mingw64/w64/bin/../lib/gcc/x86_64-w64-mingw32/8.1.0/../../../../x86_64-w64-mingw32/lib/../lib/crt2.o (_onexit)
C:/mingw64/w64/bin/../lib/gcc/x86_64-w64-mingw32/8.1.0/../../../../x86_64-w64-mingw32/lib/../lib/libmsvcrt.a(duags00440.o)
                              C:\orangec\src\..\src\lib\mingw64/libocpplib.a(ppDefine.o) (__imp__localtime64)
C:/mingw64/w64/bin/../lib/gcc/x86_64-w64-mingw32/8.1.0/../../../../x86_64-w64-mingw32/lib/../lib/libmsvcrt.a(duags00337.o)
                              C:\orangec\src\..\src\lib\mingw64/libutil.a(Utils.o) (__imp__isatty)
C:/mingw64/w64/bin/../lib/gcc/x86_64-w64-mingw32/8.1.0/../../../../x86_64-w64-mingw32/lib/../lib/libmsvcrt.a(duags00332.o)
                              C:/mingw64/w64/bin/../lib/gcc/x86_64-w64-mingw32/8.1.0/../../../../x86_64-w64-mingw32/lib/../lib/crt2.o (_initterm)
C:/mingw64/w64/bin/../lib/gcc/x86_64-w64-mingw32/8.1.0/../../../../x86_64-w64-mingw32/lib/../lib/libmsvcrt.a(duags00301.o)
                              C:\orangec\src\..\src\lib\mingw64/libutil.a(Utils.o) (getcwd)
C:/mingw64/w64/bin/../lib/gcc/x86_64-w64-mingw32/8.1.0/../../../../x86_64-w64-mingw32/lib/../lib/libmsvcrt.a(duags00291.o)
                              C:\orangec\src\..\src\lib\mingw64/libutil.a(NamedPipe.o) (__imp__get_osfhandle)
C:/mingw64/w64/bin/../lib/gcc/x86_64-w64-mingw32/8.1.0/../../../../x86_64-w64-mingw32/lib/../lib/libmsvcrt.a(duags00245.o)
                              C:\orangec\src\..\src\lib\mingw64/libutil.a(CmdFiles.o) (__imp__findnext64)
C:/mingw64/w64/bin/../lib/gcc/x86_64-w64-mingw32/8.1.0/../../../../x86_64-w64-mingw32/lib/../lib/libmsvcrt.a(duags00243.o)
                              C:\orangec\src\..\src\lib\mingw64/libutil.a(Utils.o) (fileno)
C:/mingw64/w64/bin/../lib/gcc/x86_64-w64-mingw32/8.1.0/../../../../x86_64-w64-mingw32/lib/../lib/libmsvcrt.a(duags00240.o)
                              C:\orangec\src\..\src\lib\mingw64/libutil.a(CmdFiles.o) (__imp__findfirst64)
C:/mingw64/w64/bin/../lib/gcc/x86_64-w64-mingw32/8.1.0/../../../../x86_64-w64-mingw32/lib/../lib/libmsvcrt.a(duags00237.o)
                              C:\orangec\src\..\src\lib\mingw64/libutil.a(CmdFiles.o) (__imp__findclose)
C:/mingw64/w64/bin/../lib/gcc/x86_64-w64-mingw32/8.1.0/../../../../x86_64-w64-mingw32/lib/../lib/libmsvcrt.a(duags00203.o)
                              C:/mingw64/w64/bin/../lib/gcc/x86_64-w64-mingw32/8.1.0/../../../../x86_64-w64-mingw32/lib/../lib/libmingwex.a(lib64_libmingwex_a-mingw_pformat.o) (_errno)
C:/mingw64/w64/bin/../lib/gcc/x86_64-w64-mingw32/8.1.0/../../../../x86_64-w64-mingw32/lib/../lib/libmsvcrt.a(duags00166.o)
                              C:\orangec\src\..\src\lib\mingw64/libocpplib.a(PipeArbitrator.o) (close)
C:/mingw64/w64/bin/../lib/gcc/x86_64-w64-mingw32/8.1.0/../../../../x86_64-w64-mingw32/lib/../lib/libmsvcrt.a(duags00141.o)
                              C:/mingw64/w64/bin/../lib/gcc/x86_64-w64-mingw32/8.1.0/../../../../x86_64-w64-mingw32/lib/../lib/crt2.o (_cexit)
C:/mingw64/w64/bin/../lib/gcc/x86_64-w64-mingw32/8.1.0/../../../../x86_64-w64-mingw32/lib/../lib/libmsvcrt.a(duags00122.o)
                              C:/mingw64/w64/bin/../lib/gcc/x86_64-w64-mingw32/8.1.0/../../../../x86_64-w64-mingw32/lib/../lib/crt2.o (_amsg_exit)
C:/mingw64/w64/bin/../lib/gcc/x86_64-w64-mingw32/8.1.0/../../../../x86_64-w64-mingw32/lib/../lib/libmsvcrt.a(duags00114.o)
                              C:\orangec\src\..\src\lib\mingw64/libutil.a(Utils.o) (__imp__access)
C:/mingw64/w64/bin/../lib/gcc/x86_64-w64-mingw32/8.1.0/../../../../x86_64-w64-mingw32/lib/../lib/libmsvcrt.a(duags00098.o)
                              C:/mingw64/w64/bin/../lib/gcc/x86_64-w64-mingw32/8.1.0/../../../../x86_64-w64-mingw32/lib/../lib/libmingw32.a(lib64_libmingw32_a-merr.o) (__setusermatherr)
C:/mingw64/w64/bin/../lib/gcc/x86_64-w64-mingw32/8.1.0/../../../../x86_64-w64-mingw32/lib/../lib/libmsvcrt.a(duags00096.o)
                              C:/mingw64/w64/bin/../lib/gcc/x86_64-w64-mingw32/8.1.0/../../../../x86_64-w64-mingw32/lib/../lib/crt2.o (__set_app_type)
C:/mingw64/w64/bin/../lib/gcc/x86_64-w64-mingw32/8.1.0/../../../../x86_64-w64-mingw32/lib/../lib/libmsvcrt.a(duags00090.o)
                              C:/mingw64/w64/bin/../lib/gcc/x86_64-w64-mingw32/8.1.0/../../../../x86_64-w64-mingw32/lib/../lib/libmingw32.a(lib64_libmingw32_a-charmax.o) (__imp___lconv_init)
C:/mingw64/w64/bin/../lib/gcc/x86_64-w64-mingw32/8.1.0/../../../../x86_64-w64-mingw32/lib/../lib/libmsvcrt.a(duags00082.o)
                              C:/mingw64/w64/bin/../lib/gcc/x86_64-w64-mingw32/8.1.0/../../../../x86_64-w64-mingw32/lib/../lib/crt2.o (__imp___initenv)
C:/mingw64/w64/bin/../lib/gcc/x86_64-w64-mingw32/8.1.0/../../../../x86_64-w64-mingw32/lib/../lib/libmsvcrt.a(duags00081.o)
                              C:/mingw64/w64/bin/../lib/gcc/x86_64-w64-mingw32/8.1.0/../../../../x86_64-w64-mingw32/lib/../lib/crt2.o (__getmainargs)
C:/mingw64/w64/bin/../lib/gcc/x86_64-w64-mingw32/8.1.0/../../../../x86_64-w64-mingw32/lib/../lib/libmsvcrt.a(duags00069.o)
                              C:\orangec\src\..\src\lib\mingw64/libutil.a(Utils.o) (__imp___argc)
C:/mingw64/w64/bin/../lib/gcc/x86_64-w64-mingw32/8.1.0/../../../../x86_64-w64-mingw32/lib/../lib/libmsvcrt.a(duags00066.o)
                              C:/mingw64/w64/bin/../lib/gcc/x86_64-w64-mingw32/8.1.0/../../../../x86_64-w64-mingw32/lib/../lib/libmingwex.a(lib64_libmingwex_a-mbrtowc.o) (___mb_cur_max_func)
C:/mingw64/w64/bin/../lib/gcc/x86_64-w64-mingw32/8.1.0/../../../../x86_64-w64-mingw32/lib/../lib/libmsvcrt.a(duags00063.o)
                              C:/mingw64/w64/bin/../lib/gcc/x86_64-w64-mingw32/8.1.0/../../../../x86_64-w64-mingw32/lib/../lib/libmingwex.a(lib64_libmingwex_a-mbrtowc.o) (___lc_codepage_func)
C:/mingw64/w64/bin/../lib/gcc/x86_64-w64-mingw32/8.1.0/../../../../x86_64-w64-mingw32/lib/../lib/libmsvcrt.a(lib64_libmsvcrt_os_a-acrt_iob_func.o)
                              C:/mingw64/w64/bin/../lib/gcc/x86_64-w64-mingw32/8.1.0/../../../../x86_64-w64-mingw32/lib/../lib/libmingw32.a(lib64_libmingw32_a-merr.o) (__acrt_iob_func)
C:/mingw64/w64/bin/../lib/gcc/x86_64-w64-mingw32/8.1.0/../../../../x86_64-w64-mingw32/lib/../lib/libmsvcrt.a(lib64_libmsvcrt_os_a-invalid_parameter_handler.o)
                              C:/mingw64/w64/bin/../lib/gcc/x86_64-w64-mingw32/8.1.0/../../../../x86_64-w64-mingw32/lib/../lib/crt2.o (_set_invalid_parameter_handler)
C:/mingw64/w64/bin/../lib/gcc/x86_64-w64-mingw32/8.1.0/../../../../x86_64-w64-mingw32/lib/../lib/libmsvcrt.a(lib64_libmsvcrt_os_a-mingw_lock.o)
                              C:/mingw64/w64/bin/../lib/gcc/x86_64-w64-mingw32/8.1.0/../../../../x86_64-w64-mingw32/lib/../lib/libmingwex.a(lib64_libmingwex_a-mingw_vfprintf.o) (_lock_file)
C:/mingw64/w64/bin/../lib/gcc/x86_64-w64-mingw32/8.1.0/../../../../x86_64-w64-mingw32/lib/../lib/libmsvcrt.a(lib64_libmsvcrt_os_a-__p___argv.o)
                              C:\orangec\src\..\src\lib\mingw64/libutil.a(Utils.o) (__imp___p___argv)
C:/mingw64/w64/bin/../lib/gcc/x86_64-w64-mingw32/8.1.0/../../../../x86_64-w64-mingw32/lib/../lib/libmsvcrt.a(lib64_libmsvcrt_os_a-__p__acmdln.o)
                              C:/mingw64/w64/bin/../lib/gcc/x86_64-w64-mingw32/8.1.0/../../../../x86_64-w64-mingw32/lib/../lib/crt2.o (__p__acmdln)
C:/mingw64/w64/bin/../lib/gcc/x86_64-w64-mingw32/8.1.0/../../../../x86_64-w64-mingw32/lib/../lib/libmsvcrt.a(lib64_libmsvcrt_os_a-__p__fmode.o)
                              C:/mingw64/w64/bin/../lib/gcc/x86_64-w64-mingw32/8.1.0/../../../../x86_64-w64-mingw32/lib/../lib/crt2.o (__p__fmode)
C:/mingw64/w64/bin/../lib/gcc/x86_64-w64-mingw32/8.1.0/../../../../x86_64-w64-mingw32/lib/../lib/libmsvcrt.a(duagh.o)
                              C:/mingw64/w64/bin/../lib/gcc/x86_64-w64-mingw32/8.1.0/../../../../x86_64-w64-mingw32/lib/../lib/libmsvcrt.a(duags01264.o) (_head_lib64_libmsvcrt_os_a)
C:/mingw64/w64/bin/../lib/gcc/x86_64-w64-mingw32/8.1.0/../../../../x86_64-w64-mingw32/lib/../lib/libmsvcrt.a(duags00821.o)
                              C:/mingw64/w64/bin/../lib/gcc/x86_64-w64-mingw32/8.1.0/../../../../x86_64-w64-mingw32/lib/../lib/libmsvcrt.a(lib64_libmsvcrt_os_a-mingw_lock.o) (_unlock)
C:/mingw64/w64/bin/../lib/gcc/x86_64-w64-mingw32/8.1.0/../../../../x86_64-w64-mingw32/lib/../lib/libmsvcrt.a(duags00441.o)
                              C:/mingw64/w64/bin/../lib/gcc/x86_64-w64-mingw32/8.1.0/../../../../x86_64-w64-mingw32/lib/../lib/libmsvcrt.a(lib64_libmsvcrt_os_a-mingw_lock.o) (_lock)
C:/mingw64/w64/bin/../lib/gcc/x86_64-w64-mingw32/8.1.0/../../../../x86_64-w64-mingw32/lib/../lib/libmsvcrt.a(duags00115.o)
                              C:/mingw64/w64/bin/../lib/gcc/x86_64-w64-mingw32/8.1.0/../../../../x86_64-w64-mingw32/lib/../lib/libmsvcrt.a(lib64_libmsvcrt_os_a-__p__acmdln.o) (__imp__acmdln)
C:/mingw64/w64/bin/../lib/gcc/x86_64-w64-mingw32/8.1.0/../../../../x86_64-w64-mingw32/lib/../lib/libmsvcrt.a(duags00083.o)
                              C:/mingw64/w64/bin/../lib/gcc/x86_64-w64-mingw32/8.1.0/../../../../x86_64-w64-mingw32/lib/../lib/libmsvcrt.a(lib64_libmsvcrt_os_a-acrt_iob_func.o) (__iob_func)
C:/mingw64/w64/bin/../lib/gcc/x86_64-w64-mingw32/8.1.0/../../../../x86_64-w64-mingw32/lib/../lib/libmsvcrt.a(duags00070.o)
                              C:/mingw64/w64/bin/../lib/gcc/x86_64-w64-mingw32/8.1.0/../../../../x86_64-w64-mingw32/lib/../lib/libmsvcrt.a(lib64_libmsvcrt_os_a-__p___argv.o) (__imp___argv)
C:/mingw64/w64/bin/../lib/gcc/x86_64-w64-mingw32/8.1.0/../../../../x86_64-w64-mingw32/lib/../lib/libmsvcrt.a(duagt.o)
                              C:/mingw64/w64/bin/../lib/gcc/x86_64-w64-mingw32/8.1.0/../../../../x86_64-w64-mingw32/lib/../lib/libmsvcrt.a(duagh.o) (__lib64_libmsvcrt_os_a_iname)
C:/mingw64/w64/bin/../lib/gcc/x86_64-w64-mingw32/8.1.0/../../../../x86_64-w64-mingw32/lib/../lib/libkernel32.a(dqifs01490.o)
                              C:/mingw64/w64/bin/../lib/gcc/x86_64-w64-mingw32/8.1.0/../../../../x86_64-w64-mingw32/lib/../lib/libmingwex.a(lib64_libmingwex_a-wcrtomb.o) (__imp_WideCharToMultiByte)
C:/mingw64/w64/bin/../lib/gcc/x86_64-w64-mingw32/8.1.0/../../../../x86_64-w64-mingw32/lib/../lib/libkernel32.a(dqifs01445.o)
                              C:/mingw64/w64/bin/../lib/gcc/x86_64-w64-mingw32/8.1.0/../../../../x86_64-w64-mingw32/lib/../lib/libmingw32.a(lib64_libmingw32_a-pseudo-reloc.o) (__imp_VirtualQuery)
C:/mingw64/w64/bin/../lib/gcc/x86_64-w64-mingw32/8.1.0/../../../../x86_64-w64-mingw32/lib/../lib/libkernel32.a(dqifs01443.o)
                              C:/mingw64/w64/bin/../lib/gcc/x86_64-w64-mingw32/8.1.0/../../../../x86_64-w64-mingw32/lib/../lib/libmingw32.a(lib64_libmingw32_a-pseudo-reloc.o) (__imp_VirtualProtect)
C:/mingw64/w64/bin/../lib/gcc/x86_64-w64-mingw32/8.1.0/../../../../x86_64-w64-mingw32/lib/../lib/libkernel32.a(dqifs01409.o)
                              C:/mingw64/w64/bin/../lib/gcc/x86_64-w64-mingw32/8.1.0/../../../../x86_64-w64-mingw32/lib/../lib/libmingw32.a(lib64_libmingw32_a-gs_support.o) (__imp_UnhandledExceptionFilter)
C:/mingw64/w64/bin/../lib/gcc/x86_64-w64-mingw32/8.1.0/../../../../x86_64-w64-mingw32/lib/../lib/libkernel32.a(dqifs01395.o)
                              C:/mingw64/w64/bin/../lib/gcc/x86_64-w64-mingw32/8.1.0/../../../../x86_64-w64-mingw32/lib/../lib/libmingw32.a(lib64_libmingw32_a-tlsthrd.o) (__imp_TlsGetValue)
C:/mingw64/w64/bin/../lib/gcc/x86_64-w64-mingw32/8.1.0/../../../../x86_64-w64-mingw32/lib/../lib/libkernel32.a(dqifs01375.o)
                              C:/mingw64/w64/bin/../lib/gcc/x86_64-w64-mingw32/8.1.0/../../../../x86_64-w64-mingw32/lib/../lib/libmingw32.a(lib64_libmingw32_a-gs_support.o) (__imp_TerminateProcess)
C:/mingw64/w64/bin/../lib/gcc/x86_64-w64-mingw32/8.1.0/../../../../x86_64-w64-mingw32/lib/../lib/libkernel32.a(dqifs01194.o)
                              C:/mingw64/w64/bin/../lib/gcc/x86_64-w64-mingw32/8.1.0/../../../../x86_64-w64-mingw32/lib/../lib/libmingw32.a(lib64_libmingw32_a-gs_support.o) (__imp_RtlVirtualUnwind)
C:/mingw64/w64/bin/../lib/gcc/x86_64-w64-mingw32/8.1.0/../../../../x86_64-w64-mingw32/lib/../lib/libkernel32.a(dqifs01193.o)
                              C:/mingw64/w64/bin/../lib/gcc/x86_64-w64-mingw32/8.1.0/libgcc_eh.a(unwind-seh.o) (__imp_RtlUnwindEx)
C:/mingw64/w64/bin/../lib/gcc/x86_64-w64-mingw32/8.1.0/../../../../x86_64-w64-mingw32/lib/../lib/libkernel32.a(dqifs01187.o)
                              C:/mingw64/w64/bin/../lib/gcc/x86_64-w64-mingw32/8.1.0/../../../../x86_64-w64-mingw32/lib/../lib/libmingw32.a(lib64_libmingw32_a-gs_support.o) (__imp_RtlLookupFunctionEntry)
C:/mingw64/w64/bin/../lib/gcc/x86_64-w64-mingw32/8.1.0/../../../../x86_64-w64-mingw32/lib/../lib/libkernel32.a(dqifs01180.o)
                              C:/mingw64/w64/bin/../lib/gcc/x86_64-w64-mingw32/8.1.0/../../../../x86_64-w64-mingw32/lib/../lib/libmingw32.a(lib64_libmingw32_a-gs_support.o) (__imp_RtlCaptureContext)
C:/mingw64/w64/bin/../lib/gcc/x86_64-w64-mingw32/8.1.0/../../../../x86_64-w64-mingw32/lib/../lib/libkernel32.a(dqifs01179.o)
                              C:/mingw64/w64/bin/../lib/gcc/x86_64-w64-mingw32/8.1.0/../../../../x86_64-w64-mingw32/lib/../lib/libmingw32.a(lib64_libmingw32_a-crt_handler.o) (__imp_RtlAddFunctionTable)
C:/mingw64/w64/bin/../lib/gcc/x86_64-w64-mingw32/8.1.0/../../../../x86_64-w64-mingw32/lib/../lib/libkernel32.a(dqifs01112.o)
                              C:/mingw64/w64/bin/../lib/gcc/x86_64-w64-mingw32/8.1.0/libgcc_eh.a(unwind-seh.o) (__imp_RaiseException)
C:/mingw64/w64/bin/../lib/gcc/x86_64-w64-mingw32/8.1.0/../../../../x86_64-w64-mingw32/lib/../lib/libkernel32.a(dqifs01093.o)
                              C:/mingw64/w64/bin/../lib/gcc/x86_64-w64-mingw32/8.1.0/../../../../x86_64-w64-mingw32/lib/../lib/libmingw32.a(lib64_libmingw32_a-gs_support.o) (__imp_QueryPerformanceCounter)
C:/mingw64/w64/bin/../lib/gcc/x86_64-w64-mingw32/8.1.0/../../../../x86_64-w64-mingw32/lib/../lib/libkernel32.a(dqifs00999.o)
                              C:/mingw64/w64/bin/../lib/gcc/x86_64-w64-mingw32/8.1.0/../../../../x86_64-w64-mingw32/lib/../lib/libmingwex.a(lib64_libmingwex_a-mbrtowc.o) (__imp_MultiByteToWideChar)
C:/mingw64/w64/bin/../lib/gcc/x86_64-w64-mingw32/8.1.0/../../../../x86_64-w64-mingw32/lib/../lib/libkernel32.a(dqifs00951.o)
                              C:/mingw64/w64/bin/../lib/gcc/x86_64-w64-mingw32/8.1.0/../../../../x86_64-w64-mingw32/lib/../lib/libmingw32.a(lib64_libmingw32_a-tlsthrd.o) (__imp_LeaveCriticalSection)
C:/mingw64/w64/bin/../lib/gcc/x86_64-w64-mingw32/8.1.0/../../../../x86_64-w64-mingw32/lib/../lib/libkernel32.a(dqifs00889.o)
                              C:/mingw64/w64/bin/../lib/gcc/x86_64-w64-mingw32/8.1.0/../../../../x86_64-w64-mingw32/lib/../lib/libmingwex.a(lib64_libmingwex_a-mbrtowc.o) (__imp_IsDBCSLeadByteEx)
C:/mingw64/w64/bin/../lib/gcc/x86_64-w64-mingw32/8.1.0/../../../../x86_64-w64-mingw32/lib/../lib/libkernel32.a(dqifs00863.o)
                              C:/mingw64/w64/bin/../lib/gcc/x86_64-w64-mingw32/8.1.0/../../../../x86_64-w64-mingw32/lib/../lib/libmingw32.a(lib64_libmingw32_a-tlsthrd.o) (__imp_InitializeCriticalSection)
C:/mingw64/w64/bin/../lib/gcc/x86_64-w64-mingw32/8.1.0/../../../../x86_64-w64-mingw32/lib/../lib/libkernel32.a(dqifs00746.o)
                              C:/mingw64/w64/bin/../lib/gcc/x86_64-w64-mingw32/8.1.0/../../../../x86_64-w64-mingw32/lib/../lib/libmingw32.a(lib64_libmingw32_a-gs_support.o) (__imp_GetSystemTimeAsFileTime)
C:/mingw64/w64/bin/../lib/gcc/x86_64-w64-mingw32/8.1.0/../../../../x86_64-w64-mingw32/lib/../lib/libkernel32.a(dqifs00540.o)
                              C:/mingw64/w64/bin/../lib/gcc/x86_64-w64-mingw32/8.1.0/../../../../x86_64-w64-mingw32/lib/../lib/libmingw32.a(lib64_libmingw32_a-gs_support.o) (__imp_GetCurrentThreadId)
C:/mingw64/w64/bin/../lib/gcc/x86_64-w64-mingw32/8.1.0/../../../../x86_64-w64-mingw32/lib/../lib/libkernel32.a(dqifs00536.o)
                              C:/mingw64/w64/bin/../lib/gcc/x86_64-w64-mingw32/8.1.0/../../../../x86_64-w64-mingw32/lib/../lib/libmingw32.a(lib64_libmingw32_a-gs_support.o) (__imp_GetCurrentProcessId)
C:/mingw64/w64/bin/../lib/gcc/x86_64-w64-mingw32/8.1.0/../../../../x86_64-w64-mingw32/lib/../lib/libkernel32.a(dqifs00535.o)
                              C:/mingw64/w64/bin/../lib/gcc/x86_64-w64-mingw32/8.1.0/../../../../x86_64-w64-mingw32/lib/../lib/libmingw32.a(lib64_libmingw32_a-gs_support.o) (__imp_GetCurrentProcess)
C:/mingw64/w64/bin/../lib/gcc/x86_64-w64-mingw32/8.1.0/../../../../x86_64-w64-mingw32/lib/../lib/libkernel32.a(dqifs00304.o)
                              C:/mingw64/w64/bin/../lib/gcc/x86_64-w64-mingw32/8.1.0/../../../../x86_64-w64-mingw32/lib/../lib/libmingw32.a(lib64_libmingw32_a-tlsthrd.o) (__imp_EnterCriticalSection)
C:/mingw64/w64/bin/../lib/gcc/x86_64-w64-mingw32/8.1.0/../../../../x86_64-w64-mingw32/lib/../lib/libkernel32.a(dqifs00268.o)
                              C:/mingw64/w64/bin/../lib/gcc/x86_64-w64-mingw32/8.1.0/../../../../x86_64-w64-mingw32/lib/../lib/libmingw32.a(lib64_libmingw32_a-tlsthrd.o) (__imp_DeleteCriticalSection)
C:/mingw64/w64/bin/../lib/gcc/x86_64-w64-mingw32/8.1.0/../../../../x86_64-w64-mingw32/lib/../lib/libmsvcrt.a(duags00253.o)
                              C:/mingw64/w64/bin/../lib/gcc/x86_64-w64-mingw32/8.1.0/../../../../x86_64-w64-mingw32/lib/../lib/libmsvcrt.a(lib64_libmsvcrt_os_a-__p__fmode.o) (__imp__fmode)

Allocating common symbols
Common symbol       size              file

__mingw_winmain_lpCmdLine
                    0x8               C:/mingw64/w64/bin/../lib/gcc/x86_64-w64-mingw32/8.1.0/../../../../x86_64-w64-mingw32/lib/../lib/crt2.o
__native_startup_state
                    0x4               C:/mingw64/w64/bin/../lib/gcc/x86_64-w64-mingw32/8.1.0/../../../../x86_64-w64-mingw32/lib/../lib/libmingw32.a(lib64_libmingw32_a-natstart.o)
__native_startup_lock
                    0x8               C:/mingw64/w64/bin/../lib/gcc/x86_64-w64-mingw32/8.1.0/../../../../x86_64-w64-mingw32/lib/../lib/libmingw32.a(lib64_libmingw32_a-natstart.o)
__mingw_winmain_hInstance
                    0x8               C:/mingw64/w64/bin/../lib/gcc/x86_64-w64-mingw32/8.1.0/../../../../x86_64-w64-mingw32/lib/../lib/crt2.o

Discarded input sections

 .drectve       0x0000000000000000       0x54 C:/mingw64/w64/bin/../lib/gcc/x86_64-w64-mingw32/8.1.0/../../../../x86_64-w64-mingw32/lib/../lib/crt2.o
 .text$_ZNKSt5ctypeIcE8do_widenEc
                0x0000000000000000       0x10 C:\orangec\src\..\src\lib\mingw64/libocpplib.a(Errors.o)
 .text$_ZNSt7__cxx1112basic_stringIcSt11char_traitsIcESaIcEE12_M_constructIPcEEvT_S7_St20forward_iterator_tag
                0x0000000000000000       0xc0 C:\orangec\src\..\src\lib\mingw64/libocpplib.a(Errors.o)
 .rdata$.refptr._ZSt4cout
                0x0000000000000000       0x10 C:\orangec\src\..\src\lib\mingw64/libocpplib.a(Errors.o)
 .rdata$.refptr._ZN5Utils7cleanupE
                0x0000000000000000       0x10 C:\orangec\src\..\src\lib\mingw64/libocpplib.a(Errors.o)
 .text$_ZNKSt5ctypeIcE8do_widenEc
                0x0000000000000000       0x10 C:\orangec\src\..\src\lib\mingw64/libocpplib.a(MakeStubs.o)
 .text$_ZN5Utils5fatalIJPKcEEEvS2_DpT_
                0x0000000000000000       0x70 C:\orangec\src\..\src\lib\mingw64/libocpplib.a(MakeStubs.o)
 .text$_ZNSt7__cxx1112basic_stringIcSt11char_traitsIcESaIcEE12_M_constructIPKcEEvT_S8_St20forward_iterator_tag
                0x0000000000000000       0xc0 C:\orangec\src\..\src\lib\mingw64/libocpplib.a(MakeStubs.o)
 .text$_ZNSt7__cxx1112basic_stringIcSt11char_traitsIcESaIcEE12_M_constructIPcEEvT_S7_St20forward_iterator_tag
                0x0000000000000000       0xc0 C:\orangec\src\..\src\lib\mingw64/libocpplib.a(MakeStubs.o)
 .rdata$.refptr._ZTVSt13basic_fstreamIcSt11char_traitsIcEE
                0x0000000000000000       0x10 C:\orangec\src\..\src\lib\mingw64/libocpplib.a(MakeStubs.o)
 .rdata$.refptr._ZTTSt13basic_fstreamIcSt11char_traitsIcEE
                0x0000000000000000       0x10 C:\orangec\src\..\src\lib\mingw64/libocpplib.a(MakeStubs.o)
 .rdata$.refptr._ZTVSt9basic_iosIcSt11char_traitsIcEE
                0x0000000000000000       0x10 C:\orangec\src\..\src\lib\mingw64/libocpplib.a(MakeStubs.o)
 .rdata$.refptr._ZN5Utils7cleanupE
                0x0000000000000000       0x10 C:\orangec\src\..\src\lib\mingw64/libocpplib.a(MakeStubs.o)
 .text$_ZN9TokenizerD1Ev
                0x0000000000000000       0x50 C:\orangec\src\..\src\lib\mingw64/libocpplib.a(ppCtx.o)
 .text$_ZN9TokenizerD0Ev
                0x0000000000000000       0x50 C:\orangec\src\..\src\lib\mingw64/libocpplib.a(ppCtx.o)
 .text$_ZNSt7__cxx1112basic_stringIcSt11char_traitsIcESaIcEE12_M_constructIPKcEEvT_S8_St20forward_iterator_tag
                0x0000000000000000       0xc0 C:\orangec\src\..\src\lib\mingw64/libocpplib.a(ppCtx.o)
 .text$_ZNSt7__cxx1112basic_stringIcSt11char_traitsIcESaIcEE12_M_constructIPcEEvT_S7_St20forward_iterator_tag
                0x0000000000000000       0xc0 C:\orangec\src\..\src\lib\mingw64/libocpplib.a(ppCtx.o)
 .rdata$_ZTS9Tokenizer
                0x0000000000000000       0x10 C:\orangec\src\..\src\lib\mingw64/libocpplib.a(ppCtx.o)
 .rdata$_ZTI9Tokenizer
                0x0000000000000000       0x10 C:\orangec\src\..\src\lib\mingw64/libocpplib.a(ppCtx.o)
 .rdata$_ZTV9Tokenizer
                0x0000000000000000       0x20 C:\orangec\src\..\src\lib\mingw64/libocpplib.a(ppCtx.o)
 .text$_ZN9TokenizerD1Ev
                0x0000000000000000       0x50 C:\orangec\src\..\src\lib\mingw64/libocpplib.a(ppDefine.o)
 .text$_ZN9TokenizerD0Ev
                0x0000000000000000       0x50 C:\orangec\src\..\src\lib\mingw64/libocpplib.a(ppDefine.o)
 .text$_ZNSt10_HashtableINSt7__cxx1112basic_stringIcSt11char_traitsIcESaIcEEESt4pairIKS5_2kwESaIS9_ENSt8__detail10_Select1stESt8equal_toIS5_ESt4hashIS5_ENSB_18_Mod_range_hashingENSB_20_Default_ranged_hashENSB_20_Prime_rehash_policyENSB_17_Hashtable_traitsILb1ELb0ELb1EEEED1Ev
                0x0000000000000000       0x80 C:\orangec\src\..\src\lib\mingw64/libocpplib.a(ppDefine.o)
 .text$_ZNSt6vectorINSt7__cxx1112basic_stringIcSt11char_traitsIcESaIcEEESaIS5_EED1Ev
                0x0000000000000000       0x60 C:\orangec\src\..\src\lib\mingw64/libocpplib.a(ppDefine.o)
 .text$_ZNSt7__cxx1112basic_stringIcSt11char_traitsIcESaIcEE12_M_constructIPKcEEvT_S8_St20forward_iterator_tag
                0x0000000000000000       0xc0 C:\orangec\src\..\src\lib\mingw64/libocpplib.a(ppDefine.o)
 .text$_ZNSt7__cxx1112basic_stringIcSt11char_traitsIcESaIcEE12_M_constructIPcEEvT_S7_St20forward_iterator_tag
                0x0000000000000000       0xc0 C:\orangec\src\..\src\lib\mingw64/libocpplib.a(ppDefine.o)
 .rdata$_ZTS9Tokenizer
                0x0000000000000000       0x10 C:\orangec\src\..\src\lib\mingw64/libocpplib.a(ppDefine.o)
 .rdata$_ZTI9Tokenizer
                0x0000000000000000       0x10 C:\orangec\src\..\src\lib\mingw64/libocpplib.a(ppDefine.o)
 .rdata$_ZTV9Tokenizer
                0x0000000000000000       0x20 C:\orangec\src\..\src\lib\mingw64/libocpplib.a(ppDefine.o)
 .rdata$.refptr._ZN9Tokenizer12IsSymbolCharE
                0x0000000000000000       0x10 C:\orangec\src\..\src\lib\mingw64/libocpplib.a(ppDefine.o)
 .text$_ZN9TokenizerD1Ev
                0x0000000000000000       0x50 C:\orangec\src\..\src\lib\mingw64/libocpplib.a(ppExpr.o)
 .text$_ZN9TokenizerD0Ev
                0x0000000000000000       0x50 C:\orangec\src\..\src\lib\mingw64/libocpplib.a(ppExpr.o)
 .text$_ZNSt10_HashtableINSt7__cxx1112basic_stringIcSt11char_traitsIcESaIcEEESt4pairIKS5_2kwESaIS9_ENSt8__detail10_Select1stESt8equal_toIS5_ESt4hashIS5_ENSB_18_Mod_range_hashingENSB_20_Default_ranged_hashENSB_20_Prime_rehash_policyENSB_17_Hashtable_traitsILb1ELb0ELb1EEEED1Ev
                0x0000000000000000       0x80 C:\orangec\src\..\src\lib\mingw64/libocpplib.a(ppExpr.o)
 .text$_ZNSt7__cxx1112basic_stringIcSt11char_traitsIcESaIcEE12_M_constructIPKcEEvT_S8_St20forward_iterator_tag
                0x0000000000000000       0xc0 C:\orangec\src\..\src\lib\mingw64/libocpplib.a(ppExpr.o)
 .text$_ZNSt7__cxx1112basic_stringIcSt11char_traitsIcESaIcEE12_M_constructIPcEEvT_S7_St20forward_iterator_tag
                0x0000000000000000       0xc0 C:\orangec\src\..\src\lib\mingw64/libocpplib.a(ppExpr.o)
 .text$_ZNSt10_HashtableINSt7__cxx1112basic_stringIcSt11char_traitsIcESaIcEEESt4pairIKS5_2kwESaIS9_ENSt8__detail10_Select1stESt8equal_toIS5_ESt4hashIS5_ENSB_18_Mod_range_hashingENSB_20_Default_ranged_hashENSB_20_Prime_rehash_policyENSB_17_Hashtable_traitsILb1ELb0ELb1EEEE9_M_rehashEyRKy
                0x0000000000000000      0x100 C:\orangec\src\..\src\lib\mingw64/libocpplib.a(ppExpr.o)
 .text$_ZNSt10_HashtableINSt7__cxx1112basic_stringIcSt11char_traitsIcESaIcEEESt4pairIKS5_2kwESaIS9_ENSt8__detail10_Select1stESt8equal_toIS5_ESt4hashIS5_ENSB_18_Mod_range_hashingENSB_20_Default_ranged_hashENSB_20_Prime_rehash_policyENSB_17_Hashtable_traitsILb1ELb0ELb1EEEEC1IPKS9_EET_SQ_yRKSG_RKSH_RKSI_RKSE_RKSC_RKSA_
                0x0000000000000000      0x340 C:\orangec\src\..\src\lib\mingw64/libocpplib.a(ppExpr.o)
 .rdata$_ZTS9Tokenizer
                0x0000000000000000       0x10 C:\orangec\src\..\src\lib\mingw64/libocpplib.a(ppExpr.o)
 .rdata$_ZTI9Tokenizer
                0x0000000000000000       0x10 C:\orangec\src\..\src\lib\mingw64/libocpplib.a(ppExpr.o)
 .rdata$_ZTV9Tokenizer
                0x0000000000000000       0x20 C:\orangec\src\..\src\lib\mingw64/libocpplib.a(ppExpr.o)
 .text$_ZN9TokenizerD1Ev
                0x0000000000000000       0x50 C:\orangec\src\..\src\lib\mingw64/libocpplib.a(ppInclude.o)
 .text$_ZN9TokenizerD0Ev
                0x0000000000000000       0x50 C:\orangec\src\..\src\lib\mingw64/libocpplib.a(ppInclude.o)
 .text$_ZNSt8_Rb_treeINSt7__cxx1112basic_stringIcSt11char_traitsIcESaIcEEES5_St9_IdentityIS5_ESt4lessIS5_ESaIS5_EE8_M_eraseEPSt13_Rb_tree_nodeIS5_E
                0x0000000000000000       0x50 C:\orangec\src\..\src\lib\mingw64/libocpplib.a(ppInclude.o)
 .text$_ZNSt7__cxx1112basic_stringIcSt11char_traitsIcESaIcEE12_M_constructIPKcEEvT_S8_St20forward_iterator_tag
                0x0000000000000000       0xc0 C:\orangec\src\..\src\lib\mingw64/libocpplib.a(ppInclude.o)
 .text$_ZNSt7__cxx1112basic_stringIcSt11char_traitsIcESaIcEE12_M_constructIPcEEvT_S7_St20forward_iterator_tag
                0x0000000000000000       0xc0 C:\orangec\src\..\src\lib\mingw64/libocpplib.a(ppInclude.o)
 .rdata$_ZTS9Tokenizer
                0x0000000000000000       0x10 C:\orangec\src\..\src\lib\mingw64/libocpplib.a(ppInclude.o)
 .rdata$_ZTI9Tokenizer
                0x0000000000000000       0x10 C:\orangec\src\..\src\lib\mingw64/libocpplib.a(ppInclude.o)
 .rdata$_ZTV9Tokenizer
                0x0000000000000000       0x20 C:\orangec\src\..\src\lib\mingw64/libocpplib.a(ppInclude.o)
 .rdata$.refptr._ZTVSt15basic_streambufIcSt11char_traitsIcEE
                0x0000000000000000       0x10 C:\orangec\src\..\src\lib\mingw64/libocpplib.a(ppInclude.o)
 .rdata$.refptr._ZTVSt13basic_filebufIcSt11char_traitsIcEE
                0x0000000000000000       0x10 C:\orangec\src\..\src\lib\mingw64/libocpplib.a(ppInclude.o)
 .rdata$.refptr._ZTVSt13basic_fstreamIcSt11char_traitsIcEE
                0x0000000000000000       0x10 C:\orangec\src\..\src\lib\mingw64/libocpplib.a(ppInclude.o)
 .rdata$.refptr._ZTTSt13basic_fstreamIcSt11char_traitsIcEE
                0x0000000000000000       0x10 C:\orangec\src\..\src\lib\mingw64/libocpplib.a(ppInclude.o)
 .rdata$.refptr._ZTVSt9basic_iosIcSt11char_traitsIcEE
                0x0000000000000000       0x10 C:\orangec\src\..\src\lib\mingw64/libocpplib.a(ppInclude.o)
 .text$_ZN9TokenizerD1Ev
                0x0000000000000000       0x50 C:\orangec\src\..\src\lib\mingw64/libocpplib.a(ppMacro.o)
 .text$_ZN9TokenizerD0Ev
                0x0000000000000000       0x50 C:\orangec\src\..\src\lib\mingw64/libocpplib.a(ppMacro.o)
 .text$_ZNSt7__cxx1112basic_stringIcSt11char_traitsIcESaIcEE12_M_constructIPKcEEvT_S8_St20forward_iterator_tag
                0x0000000000000000       0xc0 C:\orangec\src\..\src\lib\mingw64/libocpplib.a(ppMacro.o)
 .text$_ZNSt7__cxx1112basic_stringIcSt11char_traitsIcESaIcEE12_M_constructIPcEEvT_S7_St20forward_iterator_tag
                0x0000000000000000       0xc0 C:\orangec\src\..\src\lib\mingw64/libocpplib.a(ppMacro.o)
 .text$_ZNSt6vectorINSt7__cxx1112basic_stringIcSt11char_traitsIcESaIcEEESaIS5_EE17_M_realloc_insertIJRKS5_EEEvN9__gnu_cxx17__normal_iteratorIPS5_S7_EEDpOT_
                0x0000000000000000      0x280 C:\orangec\src\..\src\lib\mingw64/libocpplib.a(ppMacro.o)
 .rdata$_ZTS9Tokenizer
                0x0000000000000000       0x10 C:\orangec\src\..\src\lib\mingw64/libocpplib.a(ppMacro.o)
 .rdata$_ZTI9Tokenizer
                0x0000000000000000       0x10 C:\orangec\src\..\src\lib\mingw64/libocpplib.a(ppMacro.o)
 .rdata$_ZTV9Tokenizer
                0x0000000000000000       0x20 C:\orangec\src\..\src\lib\mingw64/libocpplib.a(ppMacro.o)
 .text$_ZN9TokenizerD1Ev
                0x0000000000000000       0x50 C:\orangec\src\..\src\lib\mingw64/libocpplib.a(ppPragma.o)
 .text$_ZN9TokenizerD0Ev
                0x0000000000000000       0x50 C:\orangec\src\..\src\lib\mingw64/libocpplib.a(ppPragma.o)
 .text$_ZNSt10_HashtableINSt7__cxx1112basic_stringIcSt11char_traitsIcESaIcEEESt4pairIKS5_2kwESaIS9_ENSt8__detail10_Select1stESt8equal_toIS5_ESt4hashIS5_ENSB_18_Mod_range_hashingENSB_20_Default_ranged_hashENSB_20_Prime_rehash_policyENSB_17_Hashtable_traitsILb1ELb0ELb1EEEED1Ev
                0x0000000000000000       0x80 C:\orangec\src\..\src\lib\mingw64/libocpplib.a(ppPragma.o)
 .text$_ZNSt11_Deque_baseIiSaIiEED2Ev
                0x0000000000000000       0x50 C:\orangec\src\..\src\lib\mingw64/libocpplib.a(ppPragma.o)
 .text$_ZNSt11_Deque_baseIbSaIbEED2Ev
                0x0000000000000000       0x50 C:\orangec\src\..\src\lib\mingw64/libocpplib.a(ppPragma.o)
 .text$_ZNSt8_Rb_treeINSt7__cxx1112basic_stringIcSt11char_traitsIcESaIcEEESt4pairIKS5_St10unique_ptrIN8Startups10PropertiesESt14default_deleteISA_EEESt10_Select1stISE_ESt4lessIS5_ESaISE_EE8_M_eraseEPSt13_Rb_tree_nodeISE_E
                0x0000000000000000       0x60 C:\orangec\src\..\src\lib\mingw64/libocpplib.a(ppPragma.o)
 .text$_ZNSt11_Deque_baseIiSaIiEE17_M_initialize_mapEy
                0x0000000000000000      0x130 C:\orangec\src\..\src\lib\mingw64/libocpplib.a(ppPragma.o)
 .text$_ZNSt7__cxx1112basic_stringIcSt11char_traitsIcESaIcEE12_M_constructIPKcEEvT_S8_St20forward_iterator_tag
                0x0000000000000000       0xc0 C:\orangec\src\..\src\lib\mingw64/libocpplib.a(ppPragma.o)
 .text$_ZNSt7__cxx1112basic_stringIcSt11char_traitsIcESaIcEE12_M_constructIPcEEvT_S7_St20forward_iterator_tag
                0x0000000000000000       0xc0 C:\orangec\src\..\src\lib\mingw64/libocpplib.a(ppPragma.o)
 .text$_ZNSt11_Deque_baseIbSaIbEE17_M_initialize_mapEy
                0x0000000000000000      0x130 C:\orangec\src\..\src\lib\mingw64/libocpplib.a(ppPragma.o)
 .text$_ZNSt5dequeIbSaIbEE16_M_push_back_auxIJbEEEvDpOT_
                0x0000000000000000       0x90 C:\orangec\src\..\src\lib\mingw64/libocpplib.a(ppPragma.o)
 .text$_ZNSt10_HashtableINSt7__cxx1112basic_stringIcSt11char_traitsIcESaIcEEESt4pairIKS5_2kwESaIS9_ENSt8__detail10_Select1stESt8equal_toIS5_ESt4hashIS5_ENSB_18_Mod_range_hashingENSB_20_Default_ranged_hashENSB_20_Prime_rehash_policyENSB_17_Hashtable_traitsILb1ELb0ELb1EEEE9_M_rehashEyRKy
                0x0000000000000000      0x100 C:\orangec\src\..\src\lib\mingw64/libocpplib.a(ppPragma.o)
 .text$_ZNSt10_HashtableINSt7__cxx1112basic_stringIcSt11char_traitsIcESaIcEEESt4pairIKS5_2kwESaIS9_ENSt8__detail10_Select1stESt8equal_toIS5_ESt4hashIS5_ENSB_18_Mod_range_hashingENSB_20_Default_ranged_hashENSB_20_Prime_rehash_policyENSB_17_Hashtable_traitsILb1ELb0ELb1EEEEC1IPKS9_EET_SQ_yRKSG_RKSH_RKSI_RKSE_RKSC_RKSA_
                0x0000000000000000      0x340 C:\orangec\src\..\src\lib\mingw64/libocpplib.a(ppPragma.o)
 .rdata$_ZTS9Tokenizer
                0x0000000000000000       0x10 C:\orangec\src\..\src\lib\mingw64/libocpplib.a(ppPragma.o)
 .rdata$_ZTI9Tokenizer
                0x0000000000000000       0x10 C:\orangec\src\..\src\lib\mingw64/libocpplib.a(ppPragma.o)
 .rdata$_ZTV9Tokenizer
                0x0000000000000000       0x20 C:\orangec\src\..\src\lib\mingw64/libocpplib.a(ppPragma.o)
 .text$_ZN9TokenizerD1Ev
                0x0000000000000000       0x50 C:\orangec\src\..\src\lib\mingw64/libocpplib.a(PreProcessor.o)
 .text$_ZN9TokenizerD0Ev
                0x0000000000000000       0x50 C:\orangec\src\..\src\lib\mingw64/libocpplib.a(PreProcessor.o)
 .text$_ZNSt7__cxx1112basic_stringIcSt11char_traitsIcESaIcEE12_M_constructIPKcEEvT_S8_St20forward_iterator_tag
                0x0000000000000000       0xc0 C:\orangec\src\..\src\lib\mingw64/libocpplib.a(PreProcessor.o)
 .text$_ZNSt7__cxx1112basic_stringIcSt11char_traitsIcESaIcEE12_M_constructIPcEEvT_S7_St20forward_iterator_tag
                0x0000000000000000       0xc0 C:\orangec\src\..\src\lib\mingw64/libocpplib.a(PreProcessor.o)
 .rdata$_ZTS9Tokenizer
                0x0000000000000000       0x10 C:\orangec\src\..\src\lib\mingw64/libocpplib.a(PreProcessor.o)
 .rdata$_ZTI9Tokenizer
                0x0000000000000000       0x10 C:\orangec\src\..\src\lib\mingw64/libocpplib.a(PreProcessor.o)
 .rdata$_ZTV9Tokenizer
                0x0000000000000000       0x20 C:\orangec\src\..\src\lib\mingw64/libocpplib.a(PreProcessor.o)
 .text$_ZN6SymbolD1Ev
                0x0000000000000000       0x50 C:\orangec\src\..\src\lib\mingw64/libocpplib.a(SymbolTable.o)
 .text$_ZN6SymbolD0Ev
                0x0000000000000000       0x50 C:\orangec\src\..\src\lib\mingw64/libocpplib.a(SymbolTable.o)
 .rdata$_ZTS6Symbol
                0x0000000000000000       0x10 C:\orangec\src\..\src\lib\mingw64/libocpplib.a(SymbolTable.o)
 .rdata$_ZTI6Symbol
                0x0000000000000000       0x10 C:\orangec\src\..\src\lib\mingw64/libocpplib.a(SymbolTable.o)
 .rdata$_ZTV6Symbol
                0x0000000000000000       0x20 C:\orangec\src\..\src\lib\mingw64/libocpplib.a(SymbolTable.o)
 .text$_ZNSt7__cxx1112basic_stringIcSt11char_traitsIcESaIcEE12_M_constructIPKcEEvT_S8_St20forward_iterator_tag
                0x0000000000000000       0xc0 C:\orangec\src\..\src\lib\mingw64/libocpplib.a(Token.o)
 .text$_ZNKSt5ctypeIcE8do_widenEc
                0x0000000000000000       0x10 C:\orangec\src\..\src\lib\mingw64/libocpplib.a(Floating.o)
 .rdata$.refptr._ZSt4cout
                0x0000000000000000       0x10 C:\orangec\src\..\src\lib\mingw64/libocpplib.a(Floating.o)
 .text$_ZNSt8_Rb_treeINSt7__cxx1112basic_stringIcSt11char_traitsIcESaIcEEES5_St9_IdentityIS5_ESt4lessIS5_ESaIS5_EE8_M_eraseEPSt13_Rb_tree_nodeIS5_E
                0x0000000000000000       0x50 C:\orangec\src\..\src\lib\mingw64/libocpplib.a(InputFile.o)
 .text$_ZNSt7__cxx1112basic_stringIcSt11char_traitsIcESaIcEE12_M_constructIPKcEEvT_S8_St20forward_iterator_tag
                0x0000000000000000       0xc0 C:\orangec\src\..\src\lib\mingw64/libocpplib.a(InputFile.o)
 .text$_ZN9TokenizerD1Ev
                0x0000000000000000       0x50 C:\orangec\src\..\src\lib\mingw64/libocpplib.a(ppCond.o)
 .text$_ZN9TokenizerD0Ev
                0x0000000000000000       0x50 C:\orangec\src\..\src\lib\mingw64/libocpplib.a(ppCond.o)
 .text$_ZNSt7__cxx1112basic_stringIcSt11char_traitsIcESaIcEE12_M_constructIPKcEEvT_S8_St20forward_iterator_tag
                0x0000000000000000       0xc0 C:\orangec\src\..\src\lib\mingw64/libocpplib.a(ppCond.o)
 .text$_ZNSt7__cxx1112basic_stringIcSt11char_traitsIcESaIcEE12_M_constructIPcEEvT_S7_St20forward_iterator_tag
                0x0000000000000000       0xc0 C:\orangec\src\..\src\lib\mingw64/libocpplib.a(ppCond.o)
 .rdata$_ZTS9Tokenizer
                0x0000000000000000       0x10 C:\orangec\src\..\src\lib\mingw64/libocpplib.a(ppCond.o)
 .rdata$_ZTI9Tokenizer
                0x0000000000000000       0x10 C:\orangec\src\..\src\lib\mingw64/libocpplib.a(ppCond.o)
 .rdata$_ZTV9Tokenizer
                0x0000000000000000       0x20 C:\orangec\src\..\src\lib\mingw64/libocpplib.a(ppCond.o)
 .text$_ZN6ppFileD0Ev
                0x0000000000000000       0x40 C:\orangec\src\..\src\lib\mingw64/libocpplib.a(ppFile.o)
 .rdata$_ZTS9InputFile
                0x0000000000000000       0x10 C:\orangec\src\..\src\lib\mingw64/libocpplib.a(ppFile.o)
 .rdata$_ZTI9InputFile
                0x0000000000000000       0x10 C:\orangec\src\..\src\lib\mingw64/libocpplib.a(ppFile.o)
 .text$_ZNSt7__cxx1112basic_stringIcSt11char_traitsIcESaIcEE12_M_constructIPKcEEvT_S8_St20forward_iterator_tag
                0x0000000000000000       0xc0 C:\orangec\src\..\src\lib\mingw64/libutil.a(CmdFiles.o)
 .text$_ZNSt7__cxx1112basic_stringIcSt11char_traitsIcESaIcEE12_M_constructIPcEEvT_S7_St20forward_iterator_tag
                0x0000000000000000       0xc0 C:\orangec\src\..\src\lib\mingw64/libutil.a(CmdFiles.o)
 .text$_ZNSt6vectorINSt7__cxx1112basic_stringIcSt11char_traitsIcESaIcEEESaIS5_EE17_M_realloc_insertIJRKS5_EEEvN9__gnu_cxx17__normal_iteratorIPS5_S7_EEDpOT_
                0x0000000000000000      0x280 C:\orangec\src\..\src\lib\mingw64/libutil.a(CmdFiles.o)
 .text$_ZNKSt5ctypeIcE8do_widenEc
                0x0000000000000000       0x10 C:\orangec\src\..\src\lib\mingw64/libutil.a(CmdSwitch.o)
 .text$_ZN13CmdSwitchBase5ParseEPKc
                0x0000000000000000       0x10 C:\orangec\src\..\src\lib\mingw64/libutil.a(CmdSwitch.o)
 .text$_ZN13CmdSwitchBase9SetArgNumEi
                0x0000000000000000       0x10 C:\orangec\src\..\src\lib\mingw64/libutil.a(CmdSwitch.o)
 .text$_ZN13CmdSwitchBase16RequiresArgumentEv
                0x0000000000000000       0x10 C:\orangec\src\..\src\lib\mingw64/libutil.a(CmdSwitch.o)
 .text$_ZNSt11_Deque_baseINSt7__cxx1112basic_stringIcSt11char_traitsIcESaIcEEESaIS5_EED2Ev
                0x0000000000000000       0x50 C:\orangec\src\..\src\lib\mingw64/libutil.a(CmdSwitch.o)
 .text$_ZNSt5dequeINSt7__cxx1112basic_stringIcSt11char_traitsIcESaIcEEESaIS5_EED1Ev
                0x0000000000000000      0x100 C:\orangec\src\..\src\lib\mingw64/libutil.a(CmdSwitch.o)
 .text$_ZNSt11_Deque_baseINSt7__cxx1112basic_stringIcSt11char_traitsIcESaIcEEESaIS5_EE17_M_initialize_mapEy
                0x0000000000000000      0x130 C:\orangec\src\..\src\lib\mingw64/libutil.a(CmdSwitch.o)
 .text$_ZNSt7__cxx1112basic_stringIcSt11char_traitsIcESaIcEE12_M_constructIPKcEEvT_S8_St20forward_iterator_tag
                0x0000000000000000       0xc0 C:\orangec\src\..\src\lib\mingw64/libutil.a(CmdSwitch.o)
 .text$_ZNSt7__cxx1112basic_stringIcSt11char_traitsIcESaIcEE12_M_constructIPcEEvT_S7_St20forward_iterator_tag
                0x0000000000000000       0xc0 C:\orangec\src\..\src\lib\mingw64/libutil.a(CmdSwitch.o)
 .rdata$_ZTS13CmdSwitchBase
                0x0000000000000000       0x10 C:\orangec\src\..\src\lib\mingw64/libutil.a(CmdSwitch.o)
 .rdata$_ZTI13CmdSwitchBase
                0x0000000000000000       0x10 C:\orangec\src\..\src\lib\mingw64/libutil.a(CmdSwitch.o)
 .rdata$_ZTV13CmdSwitchBase
                0x0000000000000000       0x30 C:\orangec\src\..\src\lib\mingw64/libutil.a(CmdSwitch.o)
 .rdata$.refptr._ZTVSt15basic_streambufIcSt11char_traitsIcEE
                0x0000000000000000       0x10 C:\orangec\src\..\src\lib\mingw64/libutil.a(CmdSwitch.o)
 .rdata$.refptr._ZTVSt13basic_filebufIcSt11char_traitsIcEE
                0x0000000000000000       0x10 C:\orangec\src\..\src\lib\mingw64/libutil.a(CmdSwitch.o)
 .rdata$.refptr._ZTVSt13basic_fstreamIcSt11char_traitsIcEE
                0x0000000000000000       0x10 C:\orangec\src\..\src\lib\mingw64/libutil.a(CmdSwitch.o)
 .rdata$.refptr._ZTTSt13basic_fstreamIcSt11char_traitsIcEE
                0x0000000000000000       0x10 C:\orangec\src\..\src\lib\mingw64/libutil.a(CmdSwitch.o)
 .rdata$.refptr._ZTVSt9basic_iosIcSt11char_traitsIcEE
                0x0000000000000000       0x10 C:\orangec\src\..\src\lib\mingw64/libutil.a(CmdSwitch.o)
 .text$_ZNSt7__cxx1112basic_stringIcSt11char_traitsIcESaIcEE12_M_constructIPKcEEvT_S8_St20forward_iterator_tag
                0x0000000000000000       0xc0 C:\orangec\src\..\src\lib\mingw64/libutil.a(NamedPipe.o)
 .text$_ZNSt7__cxx1112basic_stringIcSt11char_traitsIcESaIcEE12_M_constructIPKcEEvT_S8_St20forward_iterator_tag
                0x0000000000000000       0xc0 C:\orangec\src\..\src\lib\mingw64/libutil.a(Utils.o)
 .text$_ZNSt7__cxx1112basic_stringIcSt11char_traitsIcESaIcEE12_M_constructIPcEEvT_S7_St20forward_iterator_tag
                0x0000000000000000       0xc0 C:\orangec\src\..\src\lib\mingw64/libutil.a(Utils.o)
 .text$_ZNSt6vectorINSt7__cxx1112basic_stringIcSt11char_traitsIcESaIcEEESaIS5_EE17_M_realloc_insertIJRKS5_EEEvN9__gnu_cxx17__normal_iteratorIPS5_S7_EEDpOT_
                0x0000000000000000      0x280 C:\orangec\src\..\src\lib\mingw64/libutil.a(Utils.o)
 .rdata$.refptr._ZN8CmdFiles7DIR_SEPE
                0x0000000000000000       0x10 C:\orangec\src\..\src\lib\mingw64/libutil.a(Utils.o)
 .rdata$.refptr._ZTVSt13basic_filebufIcSt11char_traitsIcEE
                0x0000000000000000       0x10 C:\orangec\src\..\src\lib\mingw64/libutil.a(Utils.o)
 .rdata$.refptr._ZTVSt13basic_fstreamIcSt11char_traitsIcEE
                0x0000000000000000       0x10 C:\orangec\src\..\src\lib\mingw64/libutil.a(Utils.o)
 .rdata$.refptr._ZTTSt13basic_fstreamIcSt11char_traitsIcEE
                0x0000000000000000       0x10 C:\orangec\src\..\src\lib\mingw64/libutil.a(Utils.o)
 .rdata$.refptr._ZSt4cerr
                0x0000000000000000       0x10 C:\orangec\src\..\src\lib\mingw64/libutil.a(Utils.o)
 .rdata$.refptr._ZTVSt9basic_iosIcSt11char_traitsIcEE
                0x0000000000000000       0x10 C:\orangec\src\..\src\lib\mingw64/libutil.a(Utils.o)
 .rdata$.refptr._ZTVSt15basic_streambufIcSt11char_traitsIcEE
                0x0000000000000000       0x10 C:\orangec\src\..\src\lib\mingw64/libutil.a(Utils.o)
 .drectve       0x0000000000000000       0x4c C:/mingw64/w64/bin/../lib/gcc/x86_64-w64-mingw32/8.1.0/../../../../x86_64-w64-mingw32/lib/../lib/libmingw32.a(lib64_libmingw32_a-natstart.o)
 .rdata$.refptr.__image_base__
                0x0000000000000000       0x10 C:/mingw64/w64/bin/../lib/gcc/x86_64-w64-mingw32/8.1.0/../../../../x86_64-w64-mingw32/lib/../lib/libmingw32.a(lib64_libmingw32_a-pseudo-reloc.o)
 .rdata$.refptr.__image_base__
                0x0000000000000000       0x10 C:/mingw64/w64/bin/../lib/gcc/x86_64-w64-mingw32/8.1.0/../../../../x86_64-w64-mingw32/lib/../lib/libmingw32.a(lib64_libmingw32_a-pesect.o)
 .drectve       0x0000000000000000       0x3c C:/mingw64/w64/bin/../lib/gcc/x86_64-w64-mingw32/8.1.0/libgcc.a(_ctors.o)

Memory Configuration

Name             Origin             Length             Attributes
*default*        0x0000000000000000 0xffffffffffffffff

Linker script and memory map

                0x0000000000400000                __image_base__ = 0x400000
                0x0000000000000000                __dll__ = 0x0
                0x0000000000400000                __ImageBase = 0x400000
                0x0000000000001000                __section_alignment__ = 0x1000
                0x0000000000000200                __file_alignment__ = 0x200
                0x0000000000000004                __major_os_version__ = 0x4
                0x0000000000000000                __minor_os_version__ = 0x0
                0x0000000000000000                __major_image_version__ = 0x0
                0x0000000000000000                __minor_image_version__ = 0x0
                0x0000000000000005                __major_subsystem_version__ = 0x5
                0x0000000000000002                __minor_subsystem_version__ = 0x2
                0x0000000000000003                __subsystem__ = 0x3
                0x0000000000200000                __size_of_stack_reserve__ = 0x200000
                0x0000000000001000                __size_of_stack_commit__ = 0x1000
                0x0000000000100000                __size_of_heap_reserve__ = 0x100000
                0x0000000000001000                __size_of_heap_commit__ = 0x1000
                0x0000000000000000                __loader_flags__ = 0x0
                0x0000000000000000                __dll_characteristics__ = 0x0
LOAD C:/mingw64/w64/bin/../lib/gcc/x86_64-w64-mingw32/8.1.0/../../../../x86_64-w64-mingw32/lib/../lib/crt2.o
LOAD C:/mingw64/w64/bin/../lib/gcc/x86_64-w64-mingw32/8.1.0/crtbegin.o
LOAD C:\orangec\src\ocpp\obj\mingw64\ppMain.o
LOAD C:\orangec\src\..\src\lib\mingw64/libocpplib.a
LOAD C:\orangec\src\..\src\lib\mingw64/libutil.a
LOAD C:/mingw64/w64/bin/../lib/gcc/x86_64-w64-mingw32/8.1.0/libstdc++.dll.a
LOAD C:/mingw64/w64/bin/../lib/gcc/x86_64-w64-mingw32/8.1.0/../../../../x86_64-w64-mingw32/lib/../lib/libcomctl32.a
LOAD C:/mingw64/w64/bin/../lib/gcc/x86_64-w64-mingw32/8.1.0/../../../../x86_64-w64-mingw32/lib/../lib/libgdi32.a
LOAD C:/mingw64/w64/bin/../lib/gcc/x86_64-w64-mingw32/8.1.0/../../../../x86_64-w64-mingw32/lib/../lib/libcomdlg32.a
LOAD C:/mingw64/w64/bin/../lib/gcc/x86_64-w64-mingw32/8.1.0/../../../../x86_64-w64-mingw32/lib/../lib/libole32.a
LOAD C:/mingw64/w64/bin/../lib/gcc/x86_64-w64-mingw32/8.1.0/../../../../x86_64-w64-mingw32/lib/../lib/libuxtheme.a
LOAD C:/mingw64/w64/bin/../lib/gcc/x86_64-w64-mingw32/8.1.0/../../../../x86_64-w64-mingw32/lib/../lib/libkernel32.a
LOAD C:/mingw64/w64/bin/../lib/gcc/x86_64-w64-mingw32/8.1.0/../../../../x86_64-w64-mingw32/lib/../lib/libmsimg32.a
LOAD C:/mingw64/w64/bin/../lib/gcc/x86_64-w64-mingw32/8.1.0/../../../../x86_64-w64-mingw32/lib/../lib/libuuid.a
LOAD C:/mingw64/w64/bin/../lib/gcc/x86_64-w64-mingw32/8.1.0/../../../../x86_64-w64-mingw32/lib/../lib/libmingw32.a
LOAD C:/mingw64/w64/bin/../lib/gcc/x86_64-w64-mingw32/8.1.0/libgcc.a
LOAD C:/mingw64/w64/bin/../lib/gcc/x86_64-w64-mingw32/8.1.0/libgcc_eh.a
LOAD C:/mingw64/w64/bin/../lib/gcc/x86_64-w64-mingw32/8.1.0/../../../../x86_64-w64-mingw32/lib/../lib/libmoldname.a
LOAD C:/mingw64/w64/bin/../lib/gcc/x86_64-w64-mingw32/8.1.0/../../../../x86_64-w64-mingw32/lib/../lib/libmingwex.a
LOAD C:/mingw64/w64/bin/../lib/gcc/x86_64-w64-mingw32/8.1.0/../../../../x86_64-w64-mingw32/lib/../lib/libmsvcrt.a
LOAD C:/mingw64/w64/bin/../lib/gcc/x86_64-w64-mingw32/8.1.0/../../../../x86_64-w64-mingw32/lib/../lib/libpthread.dll.a
LOAD C:/mingw64/w64/bin/../lib/gcc/x86_64-w64-mingw32/8.1.0/../../../../x86_64-w64-mingw32/lib/../lib/libadvapi32.a
LOAD C:/mingw64/w64/bin/../lib/gcc/x86_64-w64-mingw32/8.1.0/../../../../x86_64-w64-mingw32/lib/../lib/libshell32.a
LOAD C:/mingw64/w64/bin/../lib/gcc/x86_64-w64-mingw32/8.1.0/../../../../x86_64-w64-mingw32/lib/../lib/libuser32.a
LOAD C:/mingw64/w64/bin/../lib/gcc/x86_64-w64-mingw32/8.1.0/../../../../x86_64-w64-mingw32/lib/../lib/libkernel32.a
LOAD C:/mingw64/w64/bin/../lib/gcc/x86_64-w64-mingw32/8.1.0/../../../../x86_64-w64-mingw32/lib/../lib/libiconv.a
LOAD C:/mingw64/w64/bin/../lib/gcc/x86_64-w64-mingw32/8.1.0/../../../../x86_64-w64-mingw32/lib/../lib/libmingw32.a
LOAD C:/mingw64/w64/bin/../lib/gcc/x86_64-w64-mingw32/8.1.0/libgcc.a
LOAD C:/mingw64/w64/bin/../lib/gcc/x86_64-w64-mingw32/8.1.0/libgcc_eh.a
LOAD C:/mingw64/w64/bin/../lib/gcc/x86_64-w64-mingw32/8.1.0/../../../../x86_64-w64-mingw32/lib/../lib/libmoldname.a
LOAD C:/mingw64/w64/bin/../lib/gcc/x86_64-w64-mingw32/8.1.0/../../../../x86_64-w64-mingw32/lib/../lib/libmingwex.a
LOAD C:/mingw64/w64/bin/../lib/gcc/x86_64-w64-mingw32/8.1.0/../../../../x86_64-w64-mingw32/lib/../lib/libmsvcrt.a
LOAD C:/mingw64/w64/bin/../lib/gcc/x86_64-w64-mingw32/8.1.0/crtend.o
                0x0000000000000408                . = SIZEOF_HEADERS
                0x0000000000001000                . = ALIGN (__section_alignment__)

.text           0x0000000000401000    0x3d800
 *(.init)
 *(.text)
 .text          0x0000000000401000      0x530 C:/mingw64/w64/bin/../lib/gcc/x86_64-w64-mingw32/8.1.0/../../../../x86_64-w64-mingw32/lib/../lib/crt2.o
                0x00000000004014b0                WinMainCRTStartup
                0x00000000004014e0                mainCRTStartup
                0x0000000000401510                atexit
 .text          0x0000000000401530       0x20 C:/mingw64/w64/bin/../lib/gcc/x86_64-w64-mingw32/8.1.0/crtbegin.o
                0x0000000000401530                __gcc_register_frame
                0x0000000000401540                __gcc_deregister_frame
 .text          0x0000000000401550     0x58b0 C:\orangec\src\ocpp\obj\mingw64\ppMain.o
                0x0000000000402e30                ppMain::Run(int, char**)
 .text          0x0000000000406e00      0x9c0 C:\orangec\src\..\src\lib\mingw64/libocpplib.a(Errors.o)
                0x0000000000406e40                Errors::ErrorWithLine(std::__cxx11::basic_string<char, std::char_traits<char>, std::allocator<char> > const&, std::__cxx11::basic_string<char, std::char_traits<char>, std::allocator<char> >&, int)
                0x0000000000406f60                Errors::WarningWithLine(std::__cxx11::basic_string<char, std::char_traits<char>, std::allocator<char> > const&, std::__cxx11::basic_string<char, std::char_traits<char>, std::allocator<char> >&, int)
                0x00000000004070a0                Errors::TrivialWarningWithLine(std::__cxx11::basic_string<char, std::char_traits<char>, std::allocator<char> > const&, std::__cxx11::basic_string<char, std::char_traits<char>, std::allocator<char> >&, int)
                0x00000000004071e0                Errors::Previous(std::__cxx11::basic_string<char, std::char_traits<char>, std::allocator<char> > const&, int, std::__cxx11::basic_string<char, std::char_traits<char>, std::allocator<char> > const&)
                0x00000000004072c0                Errors::ErrorCount()
                0x0000000000407390                Errors::ToNum[abi:cxx11](long long)
                0x00000000004073b0                Errors::GetErrorLine()
                0x00000000004073d0                Errors::FileName()
                0x00000000004074c0                Errors::Error(std::__cxx11::basic_string<char, std::char_traits<char>, std::allocator<char> > const&)
                0x0000000000407590                Errors::Warning(std::__cxx11::basic_string<char, std::char_traits<char>, std::allocator<char> > const&)
                0x0000000000407680                Errors::TrivialWarning(std::__cxx11::basic_string<char, std::char_traits<char>, std::allocator<char> > const&)
                0x0000000000407770                Errors::GetFileName[abi:cxx11]()
 .text          0x00000000004077c0     0x1200 C:\orangec\src\..\src\lib\mingw64/libocpplib.a(MakeStubs.o)
                0x0000000000407800                MakeStubs::Run(std::ostream*)
 .text          0x00000000004089c0       0xe0 C:\orangec\src\..\src\lib\mingw64/libocpplib.a(PipeArbitrator.o)
                0x00000000004089c0                PipeArbitrator::~PipeArbitrator()
                0x00000000004089c0                PipeArbitrator::~PipeArbitrator()
                0x00000000004089e0                PipeArbitrator::Init(std::__cxx11::basic_string<char, std::char_traits<char>, std::allocator<char> > const&)
                0x0000000000408a10                PipeArbitrator::OpenFile(std::__cxx11::basic_string<char, std::char_traits<char>, std::allocator<char> > const&)
 .text          0x0000000000408aa0      0x7c0 C:\orangec\src\..\src\lib\mingw64/libocpplib.a(ppCtx.o)
                0x0000000000408aa0                ppCtx::~ppCtx()
                0x0000000000408aa0                ppCtx::~ppCtx()
                0x0000000000408c50                ppCtx::pop()
                0x0000000000408d80                ppCtx::GetId(std::__cxx11::basic_string<char, std::char_traits<char>, std::allocator<char> >&)
                0x0000000000408ee0                ppCtx::repl(std::__cxx11::basic_string<char, std::char_traits<char>, std::allocator<char> >&)
                0x0000000000409050                ppCtx::push(std::__cxx11::basic_string<char, std::char_traits<char>, std::allocator<char> >&)
                0x0000000000409220                ppCtx::Check(kw, std::__cxx11::basic_string<char, std::char_traits<char>, std::allocator<char> >&)
 .text          0x0000000000409260     0x8090 C:\orangec\src\..\src\lib\mingw64/libocpplib.a(ppDefine.o)
                0x00000000004092e0                ppDefine::SetDefaults()
                0x00000000004094a0                ppDefine::Tokenize(std::__cxx11::basic_string<char, std::char_traits<char>, std::allocator<char> >&)
                0x00000000004097e0                ppDefine::NotSlashed(std::__cxx11::basic_string<char, std::char_traits<char>, std::allocator<char> > const&, int)
                0x0000000000409830                ppDefine::ppNumber(std::__cxx11::basic_string<char, std::char_traits<char>, std::allocator<char> > const&, int, int)
                0x00000000004099e0                ppDefine::Undefine(std::__cxx11::basic_string<char, std::char_traits<char>, std::allocator<char> > const&)
                0x0000000000409a20                ppDefine::Lookup(std::__cxx11::basic_string<char, std::char_traits<char>, std::allocator<char> > const&)
                0x0000000000409a50                ppDefine::ppDefine(bool, ppInclude*, bool, bool)
                0x0000000000409a50                ppDefine::ppDefine(bool, ppInclude*, bool, bool)
                0x000000000040a010                ppDefine::SyntaxError(std::__cxx11::basic_string<char, std::char_traits<char>, std::allocator<char> > const&)
                0x000000000040a110                ppDefine::replaceDefined(std::__cxx11::basic_string<char, std::char_traits<char>, std::allocator<char> >&)
                0x000000000040a4e0                ppDefine::ReplaceAsmMacros(std::__cxx11::basic_string<char, std::char_traits<char>, std::allocator<char> >&)
                0x000000000040a8c0                ppDefine::Stringize(std::__cxx11::basic_string<char, std::char_traits<char>, std::allocator<char> >&)
                0x000000000040b040                ppDefine::defid(std::__cxx11::basic_string<char, std::char_traits<char>, std::allocator<char> > const&, int&, int&)
                0x000000000040b440                ppDefine::SetupAlreadyReplaced(std::__cxx11::basic_string<char, std::char_traits<char>, std::allocator<char> >&)
                0x000000000040b6c0                ppDefine::ParseAsmSubstitutions(std::__cxx11::basic_string<char, std::char_traits<char>, std::allocator<char> >&)
                0x000000000040bed0                ppDefine::LookupDefault(std::__cxx11::basic_string<char, std::char_traits<char>, std::allocator<char> >&, int, int, std::__cxx11::basic_string<char, std::char_traits<char>, std::allocator<char> > const&)
                0x000000000040c4c0                ppDefine::InsertReplacementString(std::__cxx11::basic_string<char, std::char_traits<char>, std::allocator<char> >&, int, int, std::__cxx11::basic_string<char, std::char_traits<char>, std::allocator<char> >, std::__cxx11::basic_string<char, std::char_traits<char>, std::allocator<char> >)
                0x000000000040c860                ppDefine::ReplaceArgs(std::__cxx11::basic_string<char, std::char_traits<char>, std::allocator<char> >&, std::vector<std::__cxx11::basic_string<char, std::char_traits<char>, std::allocator<char> >, std::allocator<std::__cxx11::basic_string<char, std::char_traits<char>, std::allocator<char> > > > const&, std::vector<std::__cxx11::basic_string<char, std::char_traits<char>, std::allocator<char> >, std::allocator<std::__cxx11::basic_string<char, std::char_traits<char>, std::allocator<char> > > > const&, std::vector<std::__cxx11::basic_string<char, std::char_traits<char>, std::allocator<char> >, std::allocator<std::__cxx11::basic_string<char, std::char_traits<char>, std::allocator<char> > > > const&, std::__cxx11::basic_string<char, std::char_traits<char>, std::allocator<char> >)
                0x000000000040ce30                ppDefine::DoUndefine(std::__cxx11::basic_string<char, std::char_traits<char>, std::allocator<char> >&)
                0x000000000040cf60                ppDefine::Definition::operator=(ppDefine::Definition const&)
                0x000000000040d090                ppDefine::Definition::Definition(ppDefine::Definition const&)
                0x000000000040d090                ppDefine::Definition::Definition(ppDefine::Definition const&)
                0x000000000040d280                ppDefine::ReplaceSegment(std::__cxx11::basic_string<char, std::char_traits<char>, std::allocator<char> >&, int, int, int&, bool, std::deque<ppDefine::Definition*, std::allocator<ppDefine::Definition*> >&, std::deque<ppDefine::TokenPos, std::allocator<ppDefine::TokenPos> >*)
                0x000000000040ec70                ppDefine::Process(std::__cxx11::basic_string<char, std::char_traits<char>, std::allocator<char> >&, bool)
                0x000000000040f230                ppDefine::Define(std::__cxx11::basic_string<char, std::char_traits<char>, std::allocator<char> > const&, std::__cxx11::basic_string<char, std::char_traits<char>, std::allocator<char> >&, std::vector<std::__cxx11::basic_string<char, std::char_traits<char>, std::allocator<char> >, std::allocator<std::__cxx11::basic_string<char, std::char_traits<char>, std::allocator<char> > > >*, bool, bool, bool, bool)
                0x00000000004104f0                ppDefine::DoDefine(std::__cxx11::basic_string<char, std::char_traits<char>, std::allocator<char> >&, bool)
                0x0000000000410cd0                ppDefine::Check(kw, std::__cxx11::basic_string<char, std::char_traits<char>, std::allocator<char> >&)
                0x0000000000410d40                ppDefine::DoAssign(std::__cxx11::basic_string<char, std::char_traits<char>, std::allocator<char> >&, bool)
                0x0000000000411090                ppDefine::PushPopMacro(std::__cxx11::basic_string<char, std::char_traits<char>, std::allocator<char> >, bool)
 .text          0x00000000004112f0     0x1660 C:\orangec\src\..\src\lib\mingw64/libocpplib.a(ppExpr.o)
                0x0000000000411390                ppExpr::primary(std::__cxx11::basic_string<char, std::char_traits<char>, std::allocator<char> >&, bool&)
                0x0000000000411c00                ppExpr::unary(std::__cxx11::basic_string<char, std::char_traits<char>, std::allocator<char> >&, bool&)
                0x0000000000411d20                ppExpr::multiply(std::__cxx11::basic_string<char, std::char_traits<char>, std::allocator<char> >&, bool&)
                0x0000000000411e10                ppExpr::add(std::__cxx11::basic_string<char, std::char_traits<char>, std::allocator<char> >&, bool&)
                0x0000000000411e90                ppExpr::shift(std::__cxx11::basic_string<char, std::char_traits<char>, std::allocator<char> >&, bool&)
                0x0000000000411f30                ppExpr::relation(std::__cxx11::basic_string<char, std::char_traits<char>, std::allocator<char> >&, bool&)
                0x0000000000412050                ppExpr::equal(std::__cxx11::basic_string<char, std::char_traits<char>, std::allocator<char> >&, bool&)
                0x00000000004120e0                ppExpr::and_(std::__cxx11::basic_string<char, std::char_traits<char>, std::allocator<char> >&, bool&)
                0x0000000000412160                ppExpr::xor_(std::__cxx11::basic_string<char, std::char_traits<char>, std::allocator<char> >&, bool&)
                0x00000000004121e0                ppExpr::or_(std::__cxx11::basic_string<char, std::char_traits<char>, std::allocator<char> >&, bool&)
                0x0000000000412260                ppExpr::logicaland(std::__cxx11::basic_string<char, std::char_traits<char>, std::allocator<char> >&, bool&)
                0x00000000004122f0                ppExpr::logicalor(std::__cxx11::basic_string<char, std::char_traits<char>, std::allocator<char> >&, bool&)
                0x0000000000412370                ppExpr::conditional(std::__cxx11::basic_string<char, std::char_traits<char>, std::allocator<char> >&, bool&)
                0x00000000004124c0                ppExpr::comma_(std::__cxx11::basic_string<char, std::char_traits<char>, std::allocator<char> >&, bool&)
                0x0000000000412540                ppExpr::Eval(std::__cxx11::basic_string<char, std::char_traits<char>, std::allocator<char> >&, bool)
 .text          0x0000000000412950     0x3220 C:\orangec\src\..\src\lib\mingw64/libocpplib.a(ppInclude.o)
                0x00000000004129c0                ppInclude::popFile()
                0x0000000000412b50                ppInclude::RetrievePath(char*, char const*)
                0x0000000000412b90                ppInclude::AddName(char*, std::__cxx11::basic_string<char, std::char_traits<char>, std::allocator<char> > const&)
                0x0000000000412bd0                ppInclude::StripAsmComment(std::__cxx11::basic_string<char, std::char_traits<char>, std::allocator<char> >&)
                0x0000000000412d60                ppInclude::GetLine(std::__cxx11::basic_string<char, std::char_traits<char>, std::allocator<char> >&, int&)
                0x0000000000412fb0                ppInclude::~ppInclude()
                0x0000000000412fb0                ppInclude::~ppInclude()
                0x00000000004131f0                ppInclude::ParseName(std::__cxx11::basic_string<char, std::char_traits<char>, std::allocator<char> > const&, bool&)
                0x00000000004133d0                ppInclude::SrchPath(bool, std::__cxx11::basic_string<char, std::char_traits<char>, std::allocator<char> > const&, std::__cxx11::basic_string<char, std::char_traits<char>, std::allocator<char> > const&, bool, int&)
                0x00000000004136c0                ppInclude::FindFile(bool, std::__cxx11::basic_string<char, std::char_traits<char>, std::allocator<char> > const&, bool, int&, bool&)
                0x0000000000413ff0                ppInclude::has_include_next(std::__cxx11::basic_string<char, std::char_traits<char>, std::allocator<char> > const&)
                0x00000000004141d0                ppInclude::has_include(std::__cxx11::basic_string<char, std::char_traits<char>, std::allocator<char> > const&)
                0x00000000004143b0                ppInclude::CheckLine(kw, std::__cxx11::basic_string<char, std::char_traits<char>, std::allocator<char> > const&)
                0x0000000000414690                ppInclude::pushFile(std::__cxx11::basic_string<char, std::char_traits<char>, std::allocator<char> > const&, std::__cxx11::basic_string<char, std::char_traits<char>, std::allocator<char> > const&, bool, bool, int)
                0x00000000004156d0                ppInclude::CheckInclude(kw, std::__cxx11::basic_string<char, std::char_traits<char>, std::allocator<char> > const&)
                0x0000000000415b00                ppInclude::Check(kw, std::__cxx11::basic_string<char, std::char_traits<char>, std::allocator<char> > const&)
 .text          0x0000000000415b70     0x2be0 C:\orangec\src\..\src\lib\mingw64/libocpplib.a(ppMacro.o)
                0x0000000000415c50                ppMacro::ppMacro(ppInclude&, ppDefine&)
                0x0000000000415c50                ppMacro::ppMacro(ppInclude&, ppDefine&)
                0x0000000000415ce0                ppMacro::~ppMacro()
                0x0000000000415ce0                ppMacro::~ppMacro()
                0x0000000000415f00                ppMacro::HandleExitRep()
                0x0000000000416010                ppMacro::GetLine(std::__cxx11::basic_string<char, std::char_traits<char>, std::allocator<char> >&, int&)
                0x0000000000416180                ppMacro::reverse(std::vector<std::__cxx11::basic_string<char, std::char_traits<char>, std::allocator<char> >, std::allocator<std::__cxx11::basic_string<char, std::char_traits<char>, std::allocator<char> > > >&, int, int)
                0x00000000004161f0                ppMacro::GetTopMacro()
                0x0000000000416250                ppMacro::HandleEndMacro()
                0x00000000004162c0                ppMacro::HandleEndRep()
                0x0000000000416330                ppMacro::HandleRotate(std::__cxx11::basic_string<char, std::char_traits<char>, std::allocator<char> >&)
                0x0000000000416530                ppMacro::ExtractArg(std::__cxx11::basic_string<char, std::char_traits<char>, std::allocator<char> >&)
                0x00000000004167f0                ppMacro::GetArgs(int, std::__cxx11::basic_string<char, std::char_traits<char>, std::allocator<char> >&, std::vector<std::__cxx11::basic_string<char, std::char_traits<char>, std::allocator<char> >, std::allocator<std::__cxx11::basic_string<char, std::char_traits<char>, std::allocator<char> > > >&)
                0x00000000004169f0                ppMacro::HandleRep(std::__cxx11::basic_string<char, std::char_traits<char>, std::allocator<char> >&)
                0x0000000000417270                ppMacro::Invoke(std::__cxx11::basic_string<char, std::char_traits<char>, std::allocator<char> >, std::__cxx11::basic_string<char, std::char_traits<char>, std::allocator<char> >)
                0x0000000000417770                ppMacro::HandleMacro(std::__cxx11::basic_string<char, std::char_traits<char>, std::allocator<char> >&, bool)
                0x00000000004184d0                ppMacro::Check(kw, std::__cxx11::basic_string<char, std::char_traits<char>, std::allocator<char> >&)
 .text          0x0000000000418750     0x2800 C:\orangec\src\..\src\lib\mingw64/libocpplib.a(ppPragma.o)
                0x00000000004187d0                Once::TriggerEOF()
                0x00000000004187e0                Once::OnceItem::operator<(Once::OnceItem const&) const
                0x0000000000418800                Once::OnceItem::SetParams(std::__cxx11::basic_string<char, std::char_traits<char>, std::allocator<char> > const&)
                0x00000000004188d0                ppPragma::HandleFar(Tokenizer&)
                0x00000000004188e0                ppPragma::HandleIgnoreGlobalInit(Tokenizer&)
                0x0000000000418930                Startups::~Startups()
                0x0000000000418930                Startups::~Startups()
                0x0000000000418940                Once::AddToList()
                0x0000000000418a20                ppPragma::HandleOnce(Tokenizer&)
                0x0000000000418ae0                ppPragma::HandleError(Tokenizer&)
                0x0000000000418b50                ppPragma::HandlePushPopMacro(Tokenizer&, bool)
                0x0000000000418ce0                ppPragma::HandleLibrary(Tokenizer&)
                0x0000000000418e90                ppPragma::HandleAlias(Tokenizer&)
                0x0000000000418fe0                ppPragma::HandleSR(Tokenizer&, bool)
                0x0000000000419250                ppPragma::HandlePack(Tokenizer&)
                0x0000000000419680                ppPragma::HandleSTDC(Tokenizer&)
                0x0000000000419c60                ppPragma::StdPragmas()
                0x000000000041a140                ppPragma::HandleWarning(Tokenizer&)
                0x000000000041ab50                ppPragma::ParsePragma(std::__cxx11::basic_string<char, std::char_traits<char>, std::allocator<char> > const&)
                0x000000000041af20                ppPragma::Check(kw, std::__cxx11::basic_string<char, std::char_traits<char>, std::allocator<char> > const&)
 .text          0x000000000041af50     0x2640 C:\orangec\src\..\src\lib\mingw64/libocpplib.a(PreProcessor.o)
                0x000000000041af50                PreProcessor::GetPreLine(std::__cxx11::basic_string<char, std::char_traits<char>, std::allocator<char> >&)
                0x000000000041b160                PreProcessor::StripDigraphs(std::__cxx11::basic_string<char, std::char_traits<char>, std::allocator<char> >)
                0x000000000041b5b0                PreProcessor::InitHash()
                0x000000000041ca10                PreProcessor::GetLine(std::__cxx11::basic_string<char, std::char_traits<char>, std::allocator<char> >&)
 .text          0x000000000041d590      0x470 C:\orangec\src\..\src\lib\mingw64/libocpplib.a(SymbolTable.o)
                0x000000000041d5c0                SymbolTable::~SymbolTable()
                0x000000000041d660                SymbolTable::~SymbolTable()
                0x000000000041d660                SymbolTable::~SymbolTable()
                0x000000000041d700                SymbolTable::Remove(Symbol*)
                0x000000000041d870                SymbolTable::Add(Symbol*)
 .text          0x000000000041da00     0x2470 C:\orangec\src\..\src\lib\mingw64/libocpplib.a(Token.o)
                0x000000000041da30                NumericToken::GetInteger() const
                0x000000000041da50                NumericToken::GetFloat() const
                0x000000000041dab0                Tokenizer::IsSymbolCharDefault(char const*, bool)
                0x000000000041db50                StringToken::Start(std::__cxx11::basic_string<char, std::char_traits<char>, std::allocator<char> > const&)
                0x000000000041db80                CharacterToken::Start(std::__cxx11::basic_string<char, std::char_traits<char>, std::allocator<char> > const&)
                0x000000000041dbb0                CharacterToken::QuotedChar(int, char const**)
                0x000000000041ddc0                NumericToken::Start(std::__cxx11::basic_string<char, std::char_traits<char>, std::allocator<char> > const&)
                0x000000000041ddf0                NumericToken::Radix36(char)
                0x000000000041de30                NumericToken::GetFraction(int, char**, FPF&)
                0x000000000041dfa0                KeywordToken::Start(std::__cxx11::basic_string<char, std::char_traits<char>, std::allocator<char> > const&)
                0x000000000041dfc0                IdentifierToken::Start(std::__cxx11::basic_string<char, std::char_traits<char>, std::allocator<char> > const&)
                0x000000000041dfd0                ErrorToken::Parse(std::__cxx11::basic_string<char, std::char_traits<char>, std::allocator<char> >&)
                0x000000000041e080                NumericToken::GetBase(int, char**)
                0x000000000041e190                NumericToken::GetExponent(char**)
                0x000000000041e200                NumericToken::GetFloating(FPF&, int, char**)
                0x000000000041e430                Tokenizer::Reset(std::__cxx11::basic_string<char, std::char_traits<char>, std::allocator<char> > const&)
                0x000000000041e600                CharacterToken::Parse(std::__cxx11::basic_string<char, std::char_traits<char>, std::allocator<char> >&)
                0x000000000041e7a0                IdentifierToken::Parse(std::__cxx11::basic_string<char, std::char_traits<char>, std::allocator<char> >&)
                0x000000000041ea50                KeywordToken::Parse(std::__cxx11::basic_string<char, std::char_traits<char>, std::allocator<char> >&)
                0x000000000041ed00                NumericToken::GetNumber(char const**)
                0x000000000041f4f0                NumericToken::Parse(std::__cxx11::basic_string<char, std::char_traits<char>, std::allocator<char> >&)
                0x000000000041f5d0                StringToken::Parse(std::__cxx11::basic_string<char, std::char_traits<char>, std::allocator<char> >&)
                0x000000000041f990                Tokenizer::Next()
 .text          0x000000000041fe70     0x2660 C:\orangec\src\..\src\lib\mingw64/libocpplib.a(Floating.o)
                0x000000000041fee0                FPF::SetZero(int)
                0x000000000041ff00                FPF::SetInfinity(int)
                0x000000000041ff20                FPF::SetNaN()
                0x000000000041ff50                FPF::ValueIsOne() const
                0x000000000041ff90                FPF::ValueIsZero() const
                0x000000000041ffa0                FPF::operator==(FPF const&)
                0x0000000000420010                FPF::operator>(FPF&)
                0x00000000004200f0                FPF::operator>=(FPF&)
                0x0000000000420130                FPF::IsMantissaZero() const
                0x0000000000420150                FPF::IsMantissaOne() const
                0x0000000000420180                FPF::Add16Bits(unsigned short*, unsigned short*, unsigned short, unsigned short)
                0x00000000004201b0                FPF::Sub16Bits(unsigned short*, unsigned short*, unsigned short, unsigned short)
                0x00000000004201e0                FPF::ShiftMantLeft1(unsigned short*)
                0x0000000000420210                FPF::ShiftMantRight1(unsigned short*)
                0x0000000000420250                FPF::StickyShiftRightMant(int)
                0x00000000004202d0                FPF::Normalize()
                0x0000000000420330                FPF::Denormalize(int)
                0x0000000000420440                FPF::Round()
                0x00000000004204d0                FPF::choose_nan(FPF const&, FPF const&, bool)
                0x0000000000420560                FPF::AddSub(int, FPF const&, FPF const&)
                0x00000000004209a0                FPF::Multiply(FPF const&, FPF const&)
                0x0000000000420ea0                FPF::Init()
                0x0000000000420ec0                FPF::Divide(FPF const&, FPF const&)
                0x00000000004212a0                FPF::FromLongLong(long long)
                0x0000000000421360                FPF::FromUnsignedLongLong(unsigned long long)
                0x00000000004213c0                FPF::TensExponent() const
                0x00000000004213e0                FPF::MultiplyPowTen(int)
                0x0000000000421660                FPF::ToString(std::__cxx11::basic_string<char, std::char_traits<char>, std::allocator<char> >&) const
                0x0000000000421bf0                FPF::ToLongLong() const
                0x0000000000421ce0                FPF::ToFloat(unsigned char*) const
                0x0000000000421dd0                FPF::ToDouble(unsigned char*) const
                0x0000000000422020                FPF::ToLongDouble(unsigned char*) const
                0x0000000000422300                FPF::Truncate(int, int, int)
 .text          0x00000000004224d0      0x790 C:\orangec\src\..\src\lib\mingw64/libocpplib.a(InputFile.o)
                0x0000000000422600                InputFile::GetErrorName(bool, std::__cxx11::basic_string<char, std::char_traits<char>, std::allocator<char> > const&)
                0x00000000004226b0                InputFile::ReadString(char*, int)
                0x00000000004226d0                InputFile::ReadLine(char*)
                0x0000000000422750                InputFile::CheckUTF8BOM()
                0x0000000000422820                InputFile::Open()
                0x00000000004228c0                InputFile::GetLine(std::__cxx11::basic_string<char, std::char_traits<char>, std::allocator<char> >&)
                0x0000000000422a60                InputFile::CheckErrors()
                0x0000000000422bf0                InputFile::~InputFile()
                0x0000000000422bf0                InputFile::~InputFile()
                0x0000000000422c40                InputFile::~InputFile()
 .text          0x0000000000422c60     0x1ed0 C:\orangec\src\..\src\lib\mingw64/libocpplib.a(ppCond.o)
                0x0000000000422c60                ppCond::~ppCond()
                0x0000000000422c60                ppCond::~ppCond()
                0x0000000000422e50                ppCond::CheckErrors()
                0x0000000000422f70                ppCond::HandleIf(bool, std::__cxx11::basic_string<char, std::char_traits<char>, std::allocator<char> > const&, int)
                0x0000000000423090                ppCond::ansieol(std::__cxx11::basic_string<char, std::char_traits<char>, std::allocator<char> > const&)
                0x0000000000423130                ppCond::HandleElif(bool, std::__cxx11::basic_string<char, std::char_traits<char>, std::allocator<char> > const&)
                0x0000000000423200                ppCond::HandleEndIf(std::__cxx11::basic_string<char, std::char_traits<char>, std::allocator<char> >&)
                0x0000000000423350                ppCond::HandleIdn(std::__cxx11::basic_string<char, std::char_traits<char>, std::allocator<char> >&, bool, bool, bool, int)
                0x00000000004239e0                ppCond::HandleElse(std::__cxx11::basic_string<char, std::char_traits<char>, std::allocator<char> >&)
                0x0000000000423d60                ppCond::HandleDef(std::__cxx11::basic_string<char, std::char_traits<char>, std::allocator<char> >&, bool, bool, int)
                0x0000000000424000                ppCond::HandleId(std::__cxx11::basic_string<char, std::char_traits<char>, std::allocator<char> >&, bool, bool, int)
                0x0000000000424160                ppCond::HandleNum(std::__cxx11::basic_string<char, std::char_traits<char>, std::allocator<char> >&, bool, bool, int)
                0x00000000004242c0                ppCond::HandleStr(std::__cxx11::basic_string<char, std::char_traits<char>, std::allocator<char> >&, bool, bool, int)
                0x0000000000424420                ppCond::HandleCtx(std::__cxx11::basic_string<char, std::char_traits<char>, std::allocator<char> >&, bool, bool, int)
                0x0000000000424640                ppCond::Check(kw, std::__cxx11::basic_string<char, std::char_traits<char>, std::allocator<char> > const&, int)
 .text          0x0000000000424b30       0xa0 C:\orangec\src\..\src\lib\mingw64/libocpplib.a(ppError.o)
                0x0000000000424b30                ppError::Check(kw, std::__cxx11::basic_string<char, std::char_traits<char>, std::allocator<char> > const&)
 .text          0x0000000000424bd0      0xb20 C:\orangec\src\..\src\lib\mingw64/libocpplib.a(ppFile.o)
                0x0000000000424bd0                ppFile::StripComment(char*)
                0x0000000000424d40                ppFile::StripTrigraphs(char*)
                0x0000000000424e30                ppFile::GetLine(std::__cxx11::basic_string<char, std::char_traits<char>, std::allocator<char> >&)
 .text          0x00000000004256f0     0x1330 C:\orangec\src\..\src\lib\mingw64/libutil.a(CmdFiles.o)
                0x00000000004256f0                CmdFiles::~CmdFiles()
                0x00000000004256f0                CmdFiles::~CmdFiles()
                0x0000000000425750                CmdFiles::Add(std::__cxx11::basic_string<char, std::char_traits<char>, std::allocator<char> > const&, bool)
                0x00000000004260f0                CmdFiles::Add(char**, bool)
                0x00000000004261a0                CmdFiles::RecurseDirs(std::__cxx11::basic_string<char, std::char_traits<char>, std::allocator<char> > const&, std::__cxx11::basic_string<char, std::char_traits<char>, std::allocator<char> > const&, bool)
                0x0000000000426710                CmdFiles::AddFromPath(std::__cxx11::basic_string<char, std::char_traits<char>, std::allocator<char> > const&, std::__cxx11::basic_string<char, std::char_traits<char>, std::allocator<char> > const&)
 .text          0x0000000000426a20     0x2230 C:\orangec\src\..\src\lib\mingw64/libutil.a(CmdSwitch.o)
                0x0000000000426a20                CmdSwitchBool::Parse(char const*)
                0x0000000000426a50                CmdSwitchString::Parse(char const*)
                0x0000000000426b70                CmdSwitchCombineString::Parse(char const*)
                0x0000000000426b90                CmdSwitchCombo::Parse(char const*)
                0x0000000000426c00                CmdSwitchOutput::Parse(char const*)
                0x0000000000426ca0                CmdSwitchDefine::GetValue(int)
                0x0000000000426cc0                CmdSwitchFile::GetStr(char*)
                0x0000000000426f90                CmdSwitchParser::ScanEnv(char*, unsigned long long, char const*)
                0x0000000000427050                CmdSwitchDefine::~CmdSwitchDefine()
                0x0000000000427050                CmdSwitchDefine::~CmdSwitchDefine()
                0x00000000004271c0                CmdSwitchDefine::~CmdSwitchDefine()
                0x0000000000427350                CmdSwitchDefine::Parse(char const*)
                0x0000000000427700                CmdSwitchInt::Parse(char const*)
                0x0000000000427870                CmdSwitchHex::Parse(char const*)
                0x00000000004279d0                CmdSwitchParser::Find(char const*, bool, bool)
                0x0000000000427f40                CmdSwitchParser::Parse(int*, char**)
                0x0000000000428310                CmdSwitchFile::Dispatch(char*)
                0x00000000004284a0                CmdSwitchFile::Parse(char const*)
                0x00000000004288b0                CmdSwitchParser::Parse(std::__cxx11::basic_string<char, std::char_traits<char>, std::allocator<char> > const&, int*, char**)
                0x00000000004289b0                CmdSwitchBase::CmdSwitchBase(CmdSwitchParser&, char, std::deque<std::__cxx11::basic_string<char, std::char_traits<char>, std::allocator<char> >, std::allocator<std::__cxx11::basic_string<char, std::char_traits<char>, std::allocator<char> > > >)
                0x00000000004289b0                CmdSwitchBase::CmdSwitchBase(CmdSwitchParser&, char, std::deque<std::__cxx11::basic_string<char, std::char_traits<char>, std::allocator<char> >, std::allocator<std::__cxx11::basic_string<char, std::char_traits<char>, std::allocator<char> > > >)
 .text          0x0000000000428c50       0x40 C:\orangec\src\..\src\lib\mingw64/libutil.a(crc.o)
                0x0000000000428c50                Utils::PartialCRC32(unsigned int, unsigned char const*, unsigned long long)
 .text          0x0000000000428c90      0x370 C:\orangec\src\..\src\lib\mingw64/libutil.a(NamedPipe.o)
                0x0000000000428d40                Utils::NamedPipe(int*, std::__cxx11::basic_string<char, std::char_traits<char>, std::allocator<char> > const&)
                0x0000000000428dc0                Utils::PipeWrite(int, std::__cxx11::basic_string<char, std::char_traits<char>, std::allocator<char> > const&)
                0x0000000000428e60                Utils::PipeRead[abi:cxx11](int)
 .text          0x0000000000429000      0x460 C:\orangec\src\..\src\lib\mingw64/libutil.a(UTF8.o)
                0x0000000000429000                UTF8::Decode(char const*)
                0x0000000000429110                UTF8::Encode(char*, int)
                0x00000000004291a0                UTF8::CharSpan(char const*)
                0x0000000000429200                UTF8::Span(char const*)
                0x00000000004292a0                UTF8::ToUpper(std::__cxx11::basic_string<char, std::char_traits<char>, std::allocator<char> > const&)
 .text          0x0000000000429460      0x140 C:\orangec\src\..\src\lib\mingw64/libutil.a(UTF8Table.o)
                0x0000000000429460                UTF8::IsAlpha(int)
                0x00000000004294e0                UTF8::IsAlnum(int)
                0x0000000000429560                UTF8::IsAlpha(char const*)
                0x0000000000429580                UTF8::IsAlnum(char const*)
 .text          0x00000000004295a0       0x80 C:\orangec\src\..\src\lib\mingw64/libutil.a(UTF8Upper.o)
                0x00000000004295a0                UTF8::ToUpper(int)
 .text          0x0000000000429620     0x3200 C:\orangec\src\..\src\lib\mingw64/libutil.a(Utils.o)
                0x0000000000429630                Utils::ShortName(char const*)
                0x00000000004296e0                Utils::banner(char const*)
                0x0000000000429980                Utils::ScreenHeight()
                0x00000000004299c0                Utils::GetModuleName()
                0x00000000004299f0                Utils::SetEnvironmentToPathParent(char const*)
                0x0000000000429bc0                Utils::FullQualify(char*)
                0x0000000000429d40                Utils::HasLocalExe(std::__cxx11::basic_string<char, std::char_traits<char>, std::allocator<char> > const&)
                0x0000000000429e00                Utils::iequal(std::__cxx11::basic_string<char, std::char_traits<char>, std::allocator<char> > const&, std::__cxx11::basic_string<char, std::char_traits<char>, std::allocator<char> > const&, int)
                0x0000000000429eb0                Utils::TempName(std::__cxx11::basic_string<char, std::char_traits<char>, std::allocator<char> >&)
                0x000000000042a0a0                Utils::AddExt(char*, char const*)
                0x000000000042a0f0                Utils::StripExt(char*)
                0x000000000042a120                Utils::FileExists(char const*)
                0x000000000042a140                Utils::StringToNumber(std::__cxx11::basic_string<char, std::char_traits<char>, std::allocator<char> >)
                0x000000000042a170                Utils::StringToNumberHex(std::__cxx11::basic_string<char, std::char_traits<char>, std::allocator<char> >)
                0x000000000042a1a0                Utils::NumberToStringHex[abi:cxx11](int)
                0x000000000042a590                Utils::GetLine(char const**, std::__cxx11::basic_string<char, std::char_traits<char>, std::allocator<char> >&)
                0x000000000042a6a0                Utils::usage(char const*, char const*)
                0x000000000042a7e0                Utils::QualifiedFile[abi:cxx11](char const*, char const*)
                0x000000000042a8f0                Utils::HasExt(char const*, char const*)
                0x000000000042aa00                Utils::FullPath(std::__cxx11::basic_string<char, std::char_traits<char>, std::allocator<char> > const&, std::__cxx11::basic_string<char, std::char_traits<char>, std::allocator<char> > const&)
                0x000000000042b290                Utils::AbsolutePath(std::__cxx11::basic_string<char, std::char_traits<char>, std::allocator<char> > const&)
                0x000000000042bb40                Utils::SearchForFile(std::__cxx11::basic_string<char, std::char_traits<char>, std::allocator<char> > const&, std::__cxx11::basic_string<char, std::char_traits<char>, std::allocator<char> > const&)
                0x000000000042bf10                Utils::FindOnPath(std::__cxx11::basic_string<char, std::char_traits<char>, std::allocator<char> > const&, std::__cxx11::basic_string<char, std::char_traits<char>, std::allocator<char> > const&)
                0x000000000042c320                Utils::NumberToString[abi:cxx11](int)
                0x000000000042c350                Utils::split(std::__cxx11::basic_string<char, std::char_traits<char>, std::allocator<char> >, char)
 .text          0x000000000042c820        0x8 C:/mingw64/w64/bin/../lib/gcc/x86_64-w64-mingw32/8.1.0/libstdc++.dll.a(d005880.o)
                0x000000000042c820                __gxx_personality_seh0
 .text          0x000000000042c828        0x8 C:/mingw64/w64/bin/../lib/gcc/x86_64-w64-mingw32/8.1.0/libstdc++.dll.a(d005864.o)
                0x000000000042c828                __cxa_throw_bad_array_new_length
 .text          0x000000000042c830        0x8 C:/mingw64/w64/bin/../lib/gcc/x86_64-w64-mingw32/8.1.0/libstdc++.dll.a(d005860.o)
                0x000000000042c830                __cxa_rethrow
 .text          0x000000000042c838        0x8 C:/mingw64/w64/bin/../lib/gcc/x86_64-w64-mingw32/8.1.0/libstdc++.dll.a(d005857.o)
                0x000000000042c838                __cxa_guard_release
 .text          0x000000000042c840        0x8 C:/mingw64/w64/bin/../lib/gcc/x86_64-w64-mingw32/8.1.0/libstdc++.dll.a(d005856.o)
                0x000000000042c840                __cxa_guard_acquire
 .text          0x000000000042c848        0x8 C:/mingw64/w64/bin/../lib/gcc/x86_64-w64-mingw32/8.1.0/libstdc++.dll.a(d005855.o)
                0x000000000042c848                __cxa_guard_abort
 .text          0x000000000042c850        0x8 C:/mingw64/w64/bin/../lib/gcc/x86_64-w64-mingw32/8.1.0/libstdc++.dll.a(d005852.o)
                0x000000000042c850                __cxa_get_exception_ptr
 .text          0x000000000042c858        0x8 C:/mingw64/w64/bin/../lib/gcc/x86_64-w64-mingw32/8.1.0/libstdc++.dll.a(d005849.o)
                0x000000000042c858                __cxa_end_catch
 .text          0x000000000042c860        0x8 C:/mingw64/w64/bin/../lib/gcc/x86_64-w64-mingw32/8.1.0/libstdc++.dll.a(d005843.o)
                0x000000000042c860                __cxa_begin_catch
 .text          0x000000000042c868        0x8 C:/mingw64/w64/bin/../lib/gcc/x86_64-w64-mingw32/8.1.0/libstdc++.dll.a(d005833.o)
                0x000000000042c868                operator new(unsigned long long)
 .text          0x000000000042c870        0x8 C:/mingw64/w64/bin/../lib/gcc/x86_64-w64-mingw32/8.1.0/libstdc++.dll.a(d005829.o)
                0x000000000042c870                operator new[](unsigned long long)
 .text          0x000000000042c878        0x8 C:/mingw64/w64/bin/../lib/gcc/x86_64-w64-mingw32/8.1.0/libstdc++.dll.a(d005827.o)
                0x000000000042c878                operator delete(void*, unsigned long long)
 .text          0x000000000042c880        0x8 C:/mingw64/w64/bin/../lib/gcc/x86_64-w64-mingw32/8.1.0/libstdc++.dll.a(d005823.o)
                0x000000000042c880                operator delete(void*)
 .text          0x000000000042c888        0x8 C:/mingw64/w64/bin/../lib/gcc/x86_64-w64-mingw32/8.1.0/libstdc++.dll.a(d005817.o)
                0x000000000042c888                operator delete[](void*)
 .text          0x000000000042c890        0x0 C:/mingw64/w64/bin/../lib/gcc/x86_64-w64-mingw32/8.1.0/libstdc++.dll.a(d005727.o)
 .text          0x000000000042c890        0x0 C:/mingw64/w64/bin/../lib/gcc/x86_64-w64-mingw32/8.1.0/libstdc++.dll.a(d005652.o)
 .text          0x000000000042c890        0x0 C:/mingw64/w64/bin/../lib/gcc/x86_64-w64-mingw32/8.1.0/libstdc++.dll.a(d005636.o)
 .text          0x000000000042c890        0x0 C:/mingw64/w64/bin/../lib/gcc/x86_64-w64-mingw32/8.1.0/libstdc++.dll.a(d005634.o)
 .text          0x000000000042c890        0x0 C:/mingw64/w64/bin/../lib/gcc/x86_64-w64-mingw32/8.1.0/libstdc++.dll.a(d005587.o)
 .text          0x000000000042c890        0x0 C:/mingw64/w64/bin/../lib/gcc/x86_64-w64-mingw32/8.1.0/libstdc++.dll.a(d005575.o)
 .text          0x000000000042c890        0x0 C:/mingw64/w64/bin/../lib/gcc/x86_64-w64-mingw32/8.1.0/libstdc++.dll.a(d005550.o)
 .text          0x000000000042c890        0x0 C:/mingw64/w64/bin/../lib/gcc/x86_64-w64-mingw32/8.1.0/libstdc++.dll.a(d005545.o)
 .text          0x000000000042c890        0x0 C:/mingw64/w64/bin/../lib/gcc/x86_64-w64-mingw32/8.1.0/libstdc++.dll.a(d005526.o)
 .text          0x000000000042c890        0x0 C:/mingw64/w64/bin/../lib/gcc/x86_64-w64-mingw32/8.1.0/libstdc++.dll.a(d005515.o)
 .text          0x000000000042c890        0x8 C:/mingw64/w64/bin/../lib/gcc/x86_64-w64-mingw32/8.1.0/libstdc++.dll.a(d004847.o)
                0x000000000042c890                std::basic_ostream<char, std::char_traits<char> >& std::operator<< <std::char_traits<char> >(std::basic_ostream<char, std::char_traits<char> >&, char const*)
 .text          0x000000000042c898        0x8 C:/mingw64/w64/bin/../lib/gcc/x86_64-w64-mingw32/8.1.0/libstdc++.dll.a(d004750.o)
                0x000000000042c898                std::basic_istream<char, std::char_traits<char> >& std::getline<char, std::char_traits<char>, std::allocator<char> >(std::basic_istream<char, std::char_traits<char> >&, std::__cxx11::basic_string<char, std::char_traits<char>, std::allocator<char> >&, char)
 .text          0x000000000042c8a0        0x8 C:/mingw64/w64/bin/../lib/gcc/x86_64-w64-mingw32/8.1.0/libstdc++.dll.a(d004739.o)
                0x000000000042c8a0                std::basic_ostream<char, std::char_traits<char> >& std::endl<char, std::char_traits<char> >(std::basic_ostream<char, std::char_traits<char> >&)
 .text          0x000000000042c8a8        0x0 C:/mingw64/w64/bin/../lib/gcc/x86_64-w64-mingw32/8.1.0/libstdc++.dll.a(d004738.o)
 .text          0x000000000042c8a8        0x0 C:/mingw64/w64/bin/../lib/gcc/x86_64-w64-mingw32/8.1.0/libstdc++.dll.a(d004736.o)
 .text          0x000000000042c8a8        0x8 C:/mingw64/w64/bin/../lib/gcc/x86_64-w64-mingw32/8.1.0/libstdc++.dll.a(d004732.o)
                0x000000000042c8a8                std::_Rb_tree_insert_and_rebalance(bool, std::_Rb_tree_node_base*, std::_Rb_tree_node_base*, std::_Rb_tree_node_base&)
 .text          0x000000000042c8b0        0x8 C:/mingw64/w64/bin/../lib/gcc/x86_64-w64-mingw32/8.1.0/libstdc++.dll.a(d004729.o)
                0x000000000042c8b0                std::__throw_bad_function_call()
 .text          0x000000000042c8b8        0x8 C:/mingw64/w64/bin/../lib/gcc/x86_64-w64-mingw32/8.1.0/libstdc++.dll.a(d004728.o)
                0x000000000042c8b8                std::__throw_out_of_range_fmt(char const*, ...)
 .text          0x000000000042c8c0        0x8 C:/mingw64/w64/bin/../lib/gcc/x86_64-w64-mingw32/8.1.0/libstdc++.dll.a(d004727.o)
                0x000000000042c8c0                std::__throw_invalid_argument(char const*)
 .text          0x000000000042c8c8        0x8 C:/mingw64/w64/bin/../lib/gcc/x86_64-w64-mingw32/8.1.0/libstdc++.dll.a(d004714.o)
                0x000000000042c8c8                std::__throw_out_of_range(char const*)
 .text          0x000000000042c8d0        0x8 C:/mingw64/w64/bin/../lib/gcc/x86_64-w64-mingw32/8.1.0/libstdc++.dll.a(d004713.o)
                0x000000000042c8d0                std::__throw_length_error(char const*)
 .text          0x000000000042c8d8        0x8 C:/mingw64/w64/bin/../lib/gcc/x86_64-w64-mingw32/8.1.0/libstdc++.dll.a(d004705.o)
                0x000000000042c8d8                std::__throw_logic_error(char const*)
 .text          0x000000000042c8e0        0x8 C:/mingw64/w64/bin/../lib/gcc/x86_64-w64-mingw32/8.1.0/libstdc++.dll.a(d004701.o)
                0x000000000042c8e0                std::_Rb_tree_increment(std::_Rb_tree_node_base*)
 .text          0x000000000042c8e8        0x8 C:/mingw64/w64/bin/../lib/gcc/x86_64-w64-mingw32/8.1.0/libstdc++.dll.a(d004700.o)
                0x000000000042c8e8                std::_Rb_tree_increment(std::_Rb_tree_node_base const*)
 .text          0x000000000042c8f0        0x8 C:/mingw64/w64/bin/../lib/gcc/x86_64-w64-mingw32/8.1.0/libstdc++.dll.a(d004699.o)
                0x000000000042c8f0                std::_Rb_tree_decrement(std::_Rb_tree_node_base*)
 .text          0x000000000042c8f8        0x8 C:/mingw64/w64/bin/../lib/gcc/x86_64-w64-mingw32/8.1.0/libstdc++.dll.a(d004692.o)
                0x000000000042c8f8                std::__throw_bad_alloc()
 .text          0x000000000042c900        0x8 C:/mingw64/w64/bin/../lib/gcc/x86_64-w64-mingw32/8.1.0/libstdc++.dll.a(d004687.o)
                0x000000000042c900                std::__throw_bad_cast()
 .text          0x000000000042c908        0x8 C:/mingw64/w64/bin/../lib/gcc/x86_64-w64-mingw32/8.1.0/libstdc++.dll.a(d004685.o)
                0x000000000042c908                std::basic_ostream<char, std::char_traits<char> >& std::__ostream_insert<char, std::char_traits<char> >(std::basic_ostream<char, std::char_traits<char> >&, char const*, long long)
 .text          0x000000000042c910        0x8 C:/mingw64/w64/bin/../lib/gcc/x86_64-w64-mingw32/8.1.0/libstdc++.dll.a(d004661.o)
                0x000000000042c910                std::_Hash_bytes(void const*, unsigned long long, unsigned long long)
 .text          0x000000000042c918        0x8 C:/mingw64/w64/bin/../lib/gcc/x86_64-w64-mingw32/8.1.0/libstdc++.dll.a(d004586.o)
                0x000000000042c918                std::basic_ios<char, std::char_traits<char> >::clear(std::_Ios_Iostate)
 .text          0x000000000042c920        0x8 C:/mingw64/w64/bin/../lib/gcc/x86_64-w64-mingw32/8.1.0/libstdc++.dll.a(d004582.o)
                0x000000000042c920                std::basic_ios<char, std::char_traits<char> >::init(std::basic_streambuf<char, std::char_traits<char> >*)
 .text          0x000000000042c928        0x8 C:/mingw64/w64/bin/../lib/gcc/x86_64-w64-mingw32/8.1.0/libstdc++.dll.a(d004493.o)
                0x000000000042c928                std::ios_base::~ios_base()
 .text          0x000000000042c930        0x8 C:/mingw64/w64/bin/../lib/gcc/x86_64-w64-mingw32/8.1.0/libstdc++.dll.a(d004490.o)
                0x000000000042c930                std::ios_base::ios_base()
 .text          0x000000000042c938        0x8 C:/mingw64/w64/bin/../lib/gcc/x86_64-w64-mingw32/8.1.0/libstdc++.dll.a(d004450.o)
                0x000000000042c938                std::ios_base::Init::~Init()
 .text          0x000000000042c940        0x8 C:/mingw64/w64/bin/../lib/gcc/x86_64-w64-mingw32/8.1.0/libstdc++.dll.a(d004448.o)
                0x000000000042c940                std::ios_base::Init::Init()
 .text          0x000000000042c948        0x8 C:/mingw64/w64/bin/../lib/gcc/x86_64-w64-mingw32/8.1.0/libstdc++.dll.a(d004424.o)
                0x000000000042c948                std::__detail::_List_node_base::_M_unhook()
 .text          0x000000000042c950        0x8 C:/mingw64/w64/bin/../lib/gcc/x86_64-w64-mingw32/8.1.0/libstdc++.dll.a(d004423.o)
                0x000000000042c950                std::__detail::_List_node_base::_M_hook(std::__detail::_List_node_base*)
 .text          0x000000000042c958        0x8 C:/mingw64/w64/bin/../lib/gcc/x86_64-w64-mingw32/8.1.0/libstdc++.dll.a(d004202.o)
                0x000000000042c958                std::__cxx11::basic_stringstream<char, std::char_traits<char>, std::allocator<char> >::~basic_stringstream()
 .text          0x000000000042c960        0x8 C:/mingw64/w64/bin/../lib/gcc/x86_64-w64-mingw32/8.1.0/libstdc++.dll.a(d004072.o)
                0x000000000042c960                std::__cxx11::basic_stringbuf<char, std::char_traits<char>, std::allocator<char> >::_M_sync(char*, unsigned long long, unsigned long long)
 .text          0x000000000042c968        0x8 C:/mingw64/w64/bin/../lib/gcc/x86_64-w64-mingw32/8.1.0/libstdc++.dll.a(d004000.o)
                0x000000000042c968                std::__cxx11::basic_string<wchar_t, std::char_traits<wchar_t>, std::allocator<wchar_t> >::_M_create(unsigned long long&, unsigned long long)
 .text          0x000000000042c970        0x8 C:/mingw64/w64/bin/../lib/gcc/x86_64-w64-mingw32/8.1.0/libstdc++.dll.a(d003998.o)
                0x000000000042c970                std::__cxx11::basic_string<wchar_t, std::char_traits<wchar_t>, std::allocator<wchar_t> >::_M_append(wchar_t const*, unsigned long long)
 .text          0x000000000042c978        0x8 C:/mingw64/w64/bin/../lib/gcc/x86_64-w64-mingw32/8.1.0/libstdc++.dll.a(d003895.o)
                0x000000000042c978                std::__cxx11::basic_string<char, std::char_traits<char>, std::allocator<char> >::operator=(std::__cxx11::basic_string<char, std::char_traits<char>, std::allocator<char> >&&)
 .text          0x000000000042c980        0x8 C:/mingw64/w64/bin/../lib/gcc/x86_64-w64-mingw32/8.1.0/libstdc++.dll.a(d003858.o)
                0x000000000042c980                std::__cxx11::basic_string<char, std::char_traits<char>, std::allocator<char> >::_M_mutate(unsigned long long, unsigned long long, char const*, unsigned long long)
 .text          0x000000000042c988        0x8 C:/mingw64/w64/bin/../lib/gcc/x86_64-w64-mingw32/8.1.0/libstdc++.dll.a(d003856.o)
                0x000000000042c988                std::__cxx11::basic_string<char, std::char_traits<char>, std::allocator<char> >::_M_create(unsigned long long&, unsigned long long)
 .text          0x000000000042c990        0x8 C:/mingw64/w64/bin/../lib/gcc/x86_64-w64-mingw32/8.1.0/libstdc++.dll.a(d003855.o)
                0x000000000042c990                std::__cxx11::basic_string<char, std::char_traits<char>, std::allocator<char> >::_M_assign(std::__cxx11::basic_string<char, std::char_traits<char>, std::allocator<char> > const&)
 .text          0x000000000042c998        0x8 C:/mingw64/w64/bin/../lib/gcc/x86_64-w64-mingw32/8.1.0/libstdc++.dll.a(d003854.o)
                0x000000000042c998                std::__cxx11::basic_string<char, std::char_traits<char>, std::allocator<char> >::_M_append(char const*, unsigned long long)
 .text          0x000000000042c9a0        0x8 C:/mingw64/w64/bin/../lib/gcc/x86_64-w64-mingw32/8.1.0/libstdc++.dll.a(d003852.o)
                0x000000000042c9a0                std::__cxx11::basic_string<char, std::char_traits<char>, std::allocator<char> >::_M_erase(unsigned long long, unsigned long long)
 .text          0x000000000042c9a8        0x8 C:/mingw64/w64/bin/../lib/gcc/x86_64-w64-mingw32/8.1.0/libstdc++.dll.a(d003851.o)
                0x000000000042c9a8                std::__cxx11::basic_string<char, std::char_traits<char>, std::allocator<char> >::reserve(unsigned long long)
 .text          0x000000000042c9b0        0x8 C:/mingw64/w64/bin/../lib/gcc/x86_64-w64-mingw32/8.1.0/libstdc++.dll.a(d003797.o)
                0x000000000042c9b0                std::__cxx11::basic_string<char, std::char_traits<char>, std::allocator<char> >::erase(unsigned long long, unsigned long long)
 .text          0x000000000042c9b8        0x8 C:/mingw64/w64/bin/../lib/gcc/x86_64-w64-mingw32/8.1.0/libstdc++.dll.a(d003790.o)
                0x000000000042c9b8                std::__cxx11::basic_string<char, std::char_traits<char>, std::allocator<char> >::swap(std::__cxx11::basic_string<char, std::char_traits<char>, std::allocator<char> >&)
 .text          0x000000000042c9c0        0x8 C:/mingw64/w64/bin/../lib/gcc/x86_64-w64-mingw32/8.1.0/libstdc++.dll.a(d003782.o)
                0x000000000042c9c0                std::__cxx11::basic_string<char, std::char_traits<char>, std::allocator<char> >::_M_replace_aux(unsigned long long, unsigned long long, unsigned long long, char)
 .text          0x000000000042c9c8        0x8 C:/mingw64/w64/bin/../lib/gcc/x86_64-w64-mingw32/8.1.0/libstdc++.dll.a(d003763.o)
                0x000000000042c9c8                std::__cxx11::basic_string<char, std::char_traits<char>, std::allocator<char> >::_M_replace(unsigned long long, unsigned long long, char const*, unsigned long long)
 .text          0x000000000042c9d0        0x8 C:/mingw64/w64/bin/../lib/gcc/x86_64-w64-mingw32/8.1.0/libstdc++.dll.a(d003701.o)
                0x000000000042c9d0                std::locale::~locale()
 .text          0x000000000042c9d8        0x8 C:/mingw64/w64/bin/../lib/gcc/x86_64-w64-mingw32/8.1.0/libstdc++.dll.a(d003694.o)
                0x000000000042c9d8                std::locale::locale()
 .text          0x000000000042c9e0        0x8 C:/mingw64/w64/bin/../lib/gcc/x86_64-w64-mingw32/8.1.0/libstdc++.dll.a(d002496.o)
                0x000000000042c9e0                std::runtime_error::~runtime_error()
 .text          0x000000000042c9e8        0x8 C:/mingw64/w64/bin/../lib/gcc/x86_64-w64-mingw32/8.1.0/libstdc++.dll.a(d002489.o)
                0x000000000042c9e8                std::runtime_error::runtime_error(std::runtime_error const&)
 .text          0x000000000042c9f0        0x8 C:/mingw64/w64/bin/../lib/gcc/x86_64-w64-mingw32/8.1.0/libstdc++.dll.a(d002347.o)
                0x000000000042c9f0                std::basic_fstream<char, std::char_traits<char> >::~basic_fstream()
 .text          0x000000000042c9f8        0x8 C:/mingw64/w64/bin/../lib/gcc/x86_64-w64-mingw32/8.1.0/libstdc++.dll.a(d002294.o)
                0x000000000042c9f8                std::basic_filebuf<char, std::char_traits<char> >::~basic_filebuf()
 .text          0x000000000042ca00        0x8 C:/mingw64/w64/bin/../lib/gcc/x86_64-w64-mingw32/8.1.0/libstdc++.dll.a(d002290.o)
                0x000000000042ca00                std::basic_filebuf<char, std::char_traits<char> >::basic_filebuf()
 .text          0x000000000042ca08        0x8 C:/mingw64/w64/bin/../lib/gcc/x86_64-w64-mingw32/8.1.0/libstdc++.dll.a(d002277.o)
                0x000000000042ca08                std::basic_filebuf<char, std::char_traits<char> >::close()
 .text          0x000000000042ca10        0x8 C:/mingw64/w64/bin/../lib/gcc/x86_64-w64-mingw32/8.1.0/libstdc++.dll.a(d002272.o)
                0x000000000042ca10                std::basic_filebuf<char, std::char_traits<char> >::open(char const*, std::_Ios_Openmode)
 .text          0x000000000042ca18        0x8 C:/mingw64/w64/bin/../lib/gcc/x86_64-w64-mingw32/8.1.0/libstdc++.dll.a(d002047.o)
                0x000000000042ca18                std::__basic_file<char>::~__basic_file()
 .text          0x000000000042ca20        0x8 C:/mingw64/w64/bin/../lib/gcc/x86_64-w64-mingw32/8.1.0/libstdc++.dll.a(d001748.o)
                0x000000000042ca20                std::ostream::operator<<(int)
 .text          0x000000000042ca28        0x8 C:/mingw64/w64/bin/../lib/gcc/x86_64-w64-mingw32/8.1.0/libstdc++.dll.a(d001709.o)
                0x000000000042ca28                std::ostream::flush()
 .text          0x000000000042ca30        0x8 C:/mingw64/w64/bin/../lib/gcc/x86_64-w64-mingw32/8.1.0/libstdc++.dll.a(d001707.o)
                0x000000000042ca30                std::ostream::put(char)
 .text          0x000000000042ca38        0x8 C:/mingw64/w64/bin/../lib/gcc/x86_64-w64-mingw32/8.1.0/libstdc++.dll.a(d001669.o)
                0x000000000042ca38                std::istream::tellg()
 .text          0x000000000042ca40        0x8 C:/mingw64/w64/bin/../lib/gcc/x86_64-w64-mingw32/8.1.0/libstdc++.dll.a(d001668.o)
                0x000000000042ca40                std::istream::seekg(long long, std::_Ios_Seekdir)
 .text          0x000000000042ca48        0x8 C:/mingw64/w64/bin/../lib/gcc/x86_64-w64-mingw32/8.1.0/libstdc++.dll.a(d001664.o)
                0x000000000042ca48                std::istream::read(char*, long long)
 .text          0x000000000042ca50        0x8 C:/mingw64/w64/bin/../lib/gcc/x86_64-w64-mingw32/8.1.0/libstdc++.dll.a(d001344.o)
                0x000000000042ca50                std::__detail::_Prime_rehash_policy::_M_need_rehash(unsigned long long, unsigned long long, unsigned long long) const
 .text          0x000000000042ca58        0x8 C:/mingw64/w64/bin/../lib/gcc/x86_64-w64-mingw32/8.1.0/libstdc++.dll.a(d001343.o)
                0x000000000042ca58                std::__detail::_Prime_rehash_policy::_M_next_bkt(unsigned long long) const
 .text          0x000000000042ca60        0x8 C:/mingw64/w64/bin/../lib/gcc/x86_64-w64-mingw32/8.1.0/libstdc++.dll.a(d000977.o)
                0x000000000042ca60                std::__cxx11::basic_string<char, std::char_traits<char>, std::allocator<char> >::compare(char const*) const
 .text          0x000000000042ca68        0x8 C:/mingw64/w64/bin/../lib/gcc/x86_64-w64-mingw32/8.1.0/libstdc++.dll.a(d000975.o)
                0x000000000042ca68                std::__cxx11::basic_string<char, std::char_traits<char>, std::allocator<char> >::substr(unsigned long long, unsigned long long) const
 .text          0x000000000042ca70        0x8 C:/mingw64/w64/bin/../lib/gcc/x86_64-w64-mingw32/8.1.0/libstdc++.dll.a(d000971.o)
                0x000000000042ca70                std::__cxx11::basic_string<char, std::char_traits<char>, std::allocator<char> >::rfind(char, unsigned long long) const
 .text          0x000000000042ca78        0x8 C:/mingw64/w64/bin/../lib/gcc/x86_64-w64-mingw32/8.1.0/libstdc++.dll.a(d000960.o)
                0x000000000042ca78                std::__cxx11::basic_string<char, std::char_traits<char>, std::allocator<char> >::find(char, unsigned long long) const
 .text          0x000000000042ca80        0x8 C:/mingw64/w64/bin/../lib/gcc/x86_64-w64-mingw32/8.1.0/libstdc++.dll.a(d000958.o)
                0x000000000042ca80                std::__cxx11::basic_string<char, std::char_traits<char>, std::allocator<char> >::find(char const*, unsigned long long, unsigned long long) const
 .text          0x000000000042ca88        0x8 C:/mingw64/w64/bin/../lib/gcc/x86_64-w64-mingw32/8.1.0/libstdc++.dll.a(d000950.o)
                0x000000000042ca88                std::__cxx11::basic_string<char, std::char_traits<char>, std::allocator<char> >::find_first_not_of(char, unsigned long long) const
 .text          0x000000000042ca90        0x8 C:/mingw64/w64/bin/../lib/gcc/x86_64-w64-mingw32/8.1.0/libstdc++.dll.a(d000948.o)
                0x000000000042ca90                std::__cxx11::basic_string<char, std::char_traits<char>, std::allocator<char> >::find_first_not_of(char const*, unsigned long long, unsigned long long) const
 .text          0x000000000042ca98        0x8 C:/mingw64/w64/bin/../lib/gcc/x86_64-w64-mingw32/8.1.0/libstdc++.dll.a(d000944.o)
                0x000000000042ca98                std::__cxx11::basic_string<char, std::char_traits<char>, std::allocator<char> >::find_last_not_of(char const*, unsigned long long, unsigned long long) const
 .text          0x000000000042caa0        0x8 C:/mingw64/w64/bin/../lib/gcc/x86_64-w64-mingw32/8.1.0/libstdc++.dll.a(d000937.o)
                0x000000000042caa0                std::__cxx11::basic_string<char, std::char_traits<char>, std::allocator<char> >::find_first_of(char const*, unsigned long long, unsigned long long) const
 .text          0x000000000042caa8        0x8 C:/mingw64/w64/bin/../lib/gcc/x86_64-w64-mingw32/8.1.0/libstdc++.dll.a(d000830.o)
                0x000000000042caa8                std::ctype<char>::_M_widen_init() const
 .text          0x000000000042cab0        0x8 C:/mingw64/w64/bin/../lib/gcc/x86_64-w64-mingw32/8.1.0/libstdc++.dll.a(d000693.o)
                0x000000000042cab0                std::runtime_error::what() const
 .text          0x000000000042cab8        0x8 C:/mingw64/w64/bin/../lib/gcc/x86_64-w64-mingw32/8.1.0/libstdc++.dll.a(d000678.o)
                0x000000000042cab8                std::__basic_file<char>::is_open() const
 .text          0x000000000042cac0        0x8 C:/mingw64/w64/bin/../lib/gcc/x86_64-w64-mingw32/8.1.0/../../../../x86_64-w64-mingw32/lib/../lib/libkernel32.a(dqifs01527.o)
                0x000000000042cac0                __C_specific_handler
 .text          0x000000000042cac8        0x8 C:/mingw64/w64/bin/../lib/gcc/x86_64-w64-mingw32/8.1.0/../../../../x86_64-w64-mingw32/lib/../lib/libkernel32.a(dqifs01510.o)
                0x000000000042cac8                WriteFile
 .text          0x000000000042cad0        0x8 C:/mingw64/w64/bin/../lib/gcc/x86_64-w64-mingw32/8.1.0/../../../../x86_64-w64-mingw32/lib/../lib/libkernel32.a(dqifs01360.o)
                0x000000000042cad0                Sleep
 .text          0x000000000042cad8        0x8 C:/mingw64/w64/bin/../lib/gcc/x86_64-w64-mingw32/8.1.0/../../../../x86_64-w64-mingw32/lib/../lib/libkernel32.a(dqifs01346.o)
                0x000000000042cad8                SetUnhandledExceptionFilter
 .text          0x000000000042cae0        0x8 C:/mingw64/w64/bin/../lib/gcc/x86_64-w64-mingw32/8.1.0/../../../../x86_64-w64-mingw32/lib/../lib/libkernel32.a(dqifs01128.o)
                0x000000000042cae0                ReadFile
 .text          0x000000000042cae8        0x8 C:/mingw64/w64/bin/../lib/gcc/x86_64-w64-mingw32/8.1.0/../../../../x86_64-w64-mingw32/lib/../lib/libkernel32.a(dqifs01051.o)
                0x000000000042cae8                PeekNamedPipe
 .text          0x000000000042caf0        0x8 C:/mingw64/w64/bin/../lib/gcc/x86_64-w64-mingw32/8.1.0/../../../../x86_64-w64-mingw32/lib/../lib/libkernel32.a(dqifs00774.o)
                0x000000000042caf0                GetTickCount
 .text          0x000000000042caf8        0x8 C:/mingw64/w64/bin/../lib/gcc/x86_64-w64-mingw32/8.1.0/../../../../x86_64-w64-mingw32/lib/../lib/libkernel32.a(dqifs00724.o)
                0x000000000042caf8                GetStdHandle
 .text          0x000000000042cb00        0x8 C:/mingw64/w64/bin/../lib/gcc/x86_64-w64-mingw32/8.1.0/../../../../x86_64-w64-mingw32/lib/../lib/libkernel32.a(dqifs00721.o)
                0x000000000042cb00                GetStartupInfoA
 .text          0x000000000042cb08        0x8 C:/mingw64/w64/bin/../lib/gcc/x86_64-w64-mingw32/8.1.0/../../../../x86_64-w64-mingw32/lib/../lib/libkernel32.a(dqifs00628.o)
                0x000000000042cb08                GetModuleFileNameA
 .text          0x000000000042cb10        0x8 C:/mingw64/w64/bin/../lib/gcc/x86_64-w64-mingw32/8.1.0/../../../../x86_64-w64-mingw32/lib/../lib/libkernel32.a(dqifs00609.o)
                0x000000000042cb10                GetLastError
 .text          0x000000000042cb18        0x8 C:/mingw64/w64/bin/../lib/gcc/x86_64-w64-mingw32/8.1.0/../../../../x86_64-w64-mingw32/lib/../lib/libkernel32.a(dqifs00578.o)
                0x000000000042cb18                GetFileAttributesA
 .text          0x000000000042cb20        0x8 C:/mingw64/w64/bin/../lib/gcc/x86_64-w64-mingw32/8.1.0/../../../../x86_64-w64-mingw32/lib/../lib/libkernel32.a(dqifs00528.o)
                0x000000000042cb20                GetCurrentDirectoryA
 .text          0x000000000042cb28        0x8 C:/mingw64/w64/bin/../lib/gcc/x86_64-w64-mingw32/8.1.0/../../../../x86_64-w64-mingw32/lib/../lib/libkernel32.a(dqifs00514.o)
                0x000000000042cb28                GetConsoleScreenBufferInfo
 .text          0x000000000042cb30        0x8 C:/mingw64/w64/bin/../lib/gcc/x86_64-w64-mingw32/8.1.0/../../../../x86_64-w64-mingw32/lib/../lib/libkernel32.a(dqifs00191.o)
                0x000000000042cb30                CreateFileA
 *fill*         0x000000000042cb38        0x8 
 .text          0x000000000042cb40        0x0 C:/mingw64/w64/bin/../lib/gcc/x86_64-w64-mingw32/8.1.0/../../../../x86_64-w64-mingw32/lib/../lib/libkernel32.a(dqifh.o)
 .text          0x000000000042cb40        0x0 C:/mingw64/w64/bin/../lib/gcc/x86_64-w64-mingw32/8.1.0/../../../../x86_64-w64-mingw32/lib/../lib/libkernel32.a(dqift.o)
 .text          0x000000000042cb40       0xd0 C:/mingw64/w64/bin/../lib/gcc/x86_64-w64-mingw32/8.1.0/../../../../x86_64-w64-mingw32/lib/../lib/libmingw32.a(lib64_libmingw32_a-gccmain.o)
                0x000000000042cb40                __do_global_dtors
                0x000000000042cb80                __do_global_ctors
                0x000000000042cbf0                __main
 .text          0x000000000042cc10        0x0 C:/mingw64/w64/bin/../lib/gcc/x86_64-w64-mingw32/8.1.0/../../../../x86_64-w64-mingw32/lib/../lib/libmingw32.a(lib64_libmingw32_a-natstart.o)
 .text          0x000000000042cc10        0x0 C:/mingw64/w64/bin/../lib/gcc/x86_64-w64-mingw32/8.1.0/../../../../x86_64-w64-mingw32/lib/../lib/libmingw32.a(lib64_libmingw32_a-wildcard.o)
 .text          0x000000000042cc10       0x10 C:/mingw64/w64/bin/../lib/gcc/x86_64-w64-mingw32/8.1.0/../../../../x86_64-w64-mingw32/lib/../lib/libmingw32.a(lib64_libmingw32_a-charmax.o)
 .text          0x000000000042cc20       0x10 C:/mingw64/w64/bin/../lib/gcc/x86_64-w64-mingw32/8.1.0/../../../../x86_64-w64-mingw32/lib/../lib/libmingw32.a(lib64_libmingw32_a-dllargv.o)
                0x000000000042cc20                _setargv
 .text          0x000000000042cc30      0x1e0 C:/mingw64/w64/bin/../lib/gcc/x86_64-w64-mingw32/8.1.0/../../../../x86_64-w64-mingw32/lib/../lib/libmingw32.a(lib64_libmingw32_a-gs_support.o)
                0x000000000042cc30                __security_init_cookie
                0x000000000042cd10                __report_gsfailure
 .text          0x000000000042ce10        0x0 C:/mingw64/w64/bin/../lib/gcc/x86_64-w64-mingw32/8.1.0/../../../../x86_64-w64-mingw32/lib/../lib/libmingw32.a(lib64_libmingw32_a-_newmode.o)
 .text          0x000000000042ce10       0xc0 C:/mingw64/w64/bin/../lib/gcc/x86_64-w64-mingw32/8.1.0/../../../../x86_64-w64-mingw32/lib/../lib/libmingw32.a(lib64_libmingw32_a-tlssup.o)
                0x000000000042ce40                __dyn_tls_init
                0x000000000042cec0                __tlregdtor
 .text          0x000000000042ced0        0x0 C:/mingw64/w64/bin/../lib/gcc/x86_64-w64-mingw32/8.1.0/../../../../x86_64-w64-mingw32/lib/../lib/libmingw32.a(lib64_libmingw32_a-cinitexe.o)
 .text          0x000000000042ced0      0x160 C:/mingw64/w64/bin/../lib/gcc/x86_64-w64-mingw32/8.1.0/../../../../x86_64-w64-mingw32/lib/../lib/libmingw32.a(lib64_libmingw32_a-merr.o)
                0x000000000042ced0                __mingw_raise_matherr
                0x000000000042cf20                __mingw_setusermatherr
                0x000000000042cf30                _matherr
 .text          0x000000000042d030       0x10 C:/mingw64/w64/bin/../lib/gcc/x86_64-w64-mingw32/8.1.0/../../../../x86_64-w64-mingw32/lib/../lib/libmingw32.a(lib64_libmingw32_a-CRT_fp10.o)
                0x000000000042d030                fpreset
                0x000000000042d030                _fpreset
 .text          0x000000000042d040       0x20 C:/mingw64/w64/bin/../lib/gcc/x86_64-w64-mingw32/8.1.0/../../../../x86_64-w64-mingw32/lib/../lib/libmingw32.a(lib64_libmingw32_a-mingw_helpers.o)
                0x000000000042d040                _decode_pointer
                0x000000000042d050                _encode_pointer
 .text          0x000000000042d060      0x490 C:/mingw64/w64/bin/../lib/gcc/x86_64-w64-mingw32/8.1.0/../../../../x86_64-w64-mingw32/lib/../lib/libmingw32.a(lib64_libmingw32_a-pseudo-reloc.o)
                0x000000000042d230                _pei386_runtime_relocator
 .text          0x000000000042d4f0        0x0 C:/mingw64/w64/bin/../lib/gcc/x86_64-w64-mingw32/8.1.0/../../../../x86_64-w64-mingw32/lib/../lib/libmingw32.a(lib64_libmingw32_a-xtxtmode.o)
 .text          0x000000000042d4f0      0x480 C:/mingw64/w64/bin/../lib/gcc/x86_64-w64-mingw32/8.1.0/../../../../x86_64-w64-mingw32/lib/../lib/libmingw32.a(lib64_libmingw32_a-crt_handler.o)
                0x000000000042d4f0                __mingw_SEH_error_handler
                0x000000000042d690                __mingw_init_ehandler
                0x000000000042d780                _gnu_exception_handler
 .text          0x000000000042d970      0x270 C:/mingw64/w64/bin/../lib/gcc/x86_64-w64-mingw32/8.1.0/../../../../x86_64-w64-mingw32/lib/../lib/libmingw32.a(lib64_libmingw32_a-tlsthrd.o)
                0x000000000042d9e0                ___w64_mingwthr_add_key_dtor
                0x000000000042da60                ___w64_mingwthr_remove_key_dtor
                0x000000000042db00                __mingw_TLScallback
 .text          0x000000000042dbe0        0x0 C:/mingw64/w64/bin/../lib/gcc/x86_64-w64-mingw32/8.1.0/../../../../x86_64-w64-mingw32/lib/../lib/libmingw32.a(lib64_libmingw32_a-tlsmcrt.o)
 .text          0x000000000042dbe0        0x0 C:/mingw64/w64/bin/../lib/gcc/x86_64-w64-mingw32/8.1.0/../../../../x86_64-w64-mingw32/lib/../lib/libmingw32.a(lib64_libmingw32_a-pseudo-reloc-list.o)
 .text          0x000000000042dbe0      0x3e0 C:/mingw64/w64/bin/../lib/gcc/x86_64-w64-mingw32/8.1.0/../../../../x86_64-w64-mingw32/lib/../lib/libmingw32.a(lib64_libmingw32_a-pesect.o)
                0x000000000042dc00                _ValidateImageBase
                0x000000000042dc20                _FindPESection
                0x000000000042dc70                _FindPESectionByName
                0x000000000042dd00                __mingw_GetSectionForAddress
                0x000000000042dd80                __mingw_GetSectionCount
                0x000000000042ddc0                _FindPESectionExec
                0x000000000042de30                _GetPEImageBase
                0x000000000042de70                _IsNonwritableInCurrentImage
                0x000000000042df10                __mingw_enum_import_library_names
 .text          0x000000000042dfc0       0x40 C:/mingw64/w64/bin/../lib/gcc/x86_64-w64-mingw32/8.1.0/libgcc.a(_chkstk_ms.o)
                0x000000000042dfc0                ___chkstk_ms
 .text          0x000000000042e000        0x0 C:/mingw64/w64/bin/../lib/gcc/x86_64-w64-mingw32/8.1.0/libgcc.a(_ctors.o)
 .text          0x000000000042e000      0x630 C:/mingw64/w64/bin/../lib/gcc/x86_64-w64-mingw32/8.1.0/libgcc_eh.a(unwind-seh.o)
                0x000000000042e060                _Unwind_GetGR
                0x000000000042e080                _Unwind_SetGR
                0x000000000042e0a0                _Unwind_GetCFA
                0x000000000042e0b0                _Unwind_GetIP
                0x000000000042e0c0                _Unwind_GetIPInfo
                0x000000000042e0d0                _Unwind_SetIP
                0x000000000042e0e0                _Unwind_GetLanguageSpecificData
                0x000000000042e0f0                _Unwind_GetRegionStart
                0x000000000042e100                _Unwind_FindEnclosingFunction
                0x000000000042e130                _Unwind_GetDataRelBase
                0x000000000042e140                _Unwind_GetTextRelBase
                0x000000000042e150                _GCC_specific_handler
                0x000000000042e360                _Unwind_RaiseException
                0x000000000042e3b0                _Unwind_Resume
                0x000000000042e460                _Unwind_Resume_or_Rethrow
                0x000000000042e480                _Unwind_ForcedUnwind
                0x000000000042e4b0                _Unwind_DeleteException
                0x000000000042e4d0                _Unwind_Backtrace
 .text          0x000000000042e630        0x0 C:/mingw64/w64/bin/../lib/gcc/x86_64-w64-mingw32/8.1.0/../../../../x86_64-w64-mingw32/lib/../lib/libmingwex.a(lib64_libmingwex_a-mingw_matherr.o)
 .text          0x000000000042e630      0x210 C:/mingw64/w64/bin/../lib/gcc/x86_64-w64-mingw32/8.1.0/../../../../x86_64-w64-mingw32/lib/../lib/libmingwex.a(lib64_libmingwex_a-_stat.o)
                0x000000000042e630                stat
 .text          0x000000000042e840       0x50 C:/mingw64/w64/bin/../lib/gcc/x86_64-w64-mingw32/8.1.0/../../../../x86_64-w64-mingw32/lib/../lib/libmingwex.a(lib64_libmingwex_a-mingw_vfprintf.o)
                0x000000000042e840                __mingw_vfprintf
 .text          0x000000000042e890       0x60 C:/mingw64/w64/bin/../lib/gcc/x86_64-w64-mingw32/8.1.0/../../../../x86_64-w64-mingw32/lib/../lib/libmingwex.a(lib64_libmingwex_a-mingw_vsnprintf.o)
                0x000000000042e890                __mingw_vsnprintf
 .text          0x000000000042e8f0       0x30 C:/mingw64/w64/bin/../lib/gcc/x86_64-w64-mingw32/8.1.0/../../../../x86_64-w64-mingw32/lib/../lib/libmingwex.a(lib64_libmingwex_a-mingw_vsprintf.o)
                0x000000000042e8f0                __mingw_vsprintf
 .text          0x000000000042e920     0x2110 C:/mingw64/w64/bin/../lib/gcc/x86_64-w64-mingw32/8.1.0/../../../../x86_64-w64-mingw32/lib/../lib/libmingwex.a(lib64_libmingwex_a-mingw_pformat.o)
                0x0000000000430120                __mingw_pformat
 .text          0x0000000000430a30      0x280 C:/mingw64/w64/bin/../lib/gcc/x86_64-w64-mingw32/8.1.0/../../../../x86_64-w64-mingw32/lib/../lib/libmingwex.a(lib64_libmingwex_a-dmisc.o)
                0x0000000000430a30                __rv_alloc_D2A
                0x0000000000430a60                __nrv_alloc_D2A
                0x0000000000430af0                __freedtoa
                0x0000000000430b10                __quorem_D2A
 .text          0x0000000000430cb0     0x1590 C:/mingw64/w64/bin/../lib/gcc/x86_64-w64-mingw32/8.1.0/../../../../x86_64-w64-mingw32/lib/../lib/libmingwex.a(lib64_libmingwex_a-gdtoa.o)
                0x0000000000430cb0                __gdtoa
 .text          0x0000000000432240      0x150 C:/mingw64/w64/bin/../lib/gcc/x86_64-w64-mingw32/8.1.0/../../../../x86_64-w64-mingw32/lib/../lib/libmingwex.a(lib64_libmingwex_a-gmisc.o)
                0x0000000000432240                __rshift_D2A
                0x0000000000432340                __trailz_D2A
 .text          0x0000000000432390      0xb30 C:/mingw64/w64/bin/../lib/gcc/x86_64-w64-mingw32/8.1.0/../../../../x86_64-w64-mingw32/lib/../lib/libmingwex.a(lib64_libmingwex_a-misc.o)
                0x00000000004324b0                __Balloc_D2A
                0x00000000004325b0                __Bfree_D2A
                0x0000000000432620                __multadd_D2A
                0x00000000004326d0                __i2b_D2A
                0x0000000000432700                __mult_D2A
                0x0000000000432830                __pow5mult_D2A
                0x00000000004329b0                __lshift_D2A
                0x0000000000432ab0                __cmp_D2A
                0x0000000000432af0                __diff_D2A
                0x0000000000432c60                __b2d_D2A
                0x0000000000432d70                __d2b_D2A
                0x0000000000432e90                __strcp_D2A
 .text          0x0000000000432ec0      0x340 C:/mingw64/w64/bin/../lib/gcc/x86_64-w64-mingw32/8.1.0/../../../../x86_64-w64-mingw32/lib/../lib/libmingwex.a(lib64_libmingwex_a-mbrtowc.o)
                0x0000000000433040                mbrtowc
                0x00000000004330b0                mbsrtowcs
                0x00000000004331a0                mbrlen
 .text          0x0000000000433200       0x30 C:/mingw64/w64/bin/../lib/gcc/x86_64-w64-mingw32/8.1.0/../../../../x86_64-w64-mingw32/lib/../lib/libmingwex.a(lib64_libmingwex_a-strnlen.o)
                0x0000000000433200                strnlen
 .text          0x0000000000433230      0x1c0 C:/mingw64/w64/bin/../lib/gcc/x86_64-w64-mingw32/8.1.0/../../../../x86_64-w64-mingw32/lib/../lib/libmingwex.a(lib64_libmingwex_a-wcrtomb.o)
                0x00000000004332b0                wcrtomb
                0x00000000004332f0                wcsrtombs
 .text          0x00000000004333f0       0x30 C:/mingw64/w64/bin/../lib/gcc/x86_64-w64-mingw32/8.1.0/../../../../x86_64-w64-mingw32/lib/../lib/libmingwex.a(lib64_libmingwex_a-wcsnlen.o)
                0x00000000004333f0                wcsnlen
 .text          0x0000000000433420        0x8 C:/mingw64/w64/bin/../lib/gcc/x86_64-w64-mingw32/8.1.0/../../../../x86_64-w64-mingw32/lib/../lib/libmsvcrt.a(duags01264.o)
                0x0000000000433420                wcslen
 .text          0x0000000000433428        0x8 C:/mingw64/w64/bin/../lib/gcc/x86_64-w64-mingw32/8.1.0/../../../../x86_64-w64-mingw32/lib/../lib/libmsvcrt.a(duags01243.o)
                0x0000000000433428                vfprintf
 .text          0x0000000000433430        0x8 C:/mingw64/w64/bin/../lib/gcc/x86_64-w64-mingw32/8.1.0/../../../../x86_64-w64-mingw32/lib/../lib/libmsvcrt.a(duags01238.o)
                0x0000000000433430                toupper
 .text          0x0000000000433438        0x8 C:/mingw64/w64/bin/../lib/gcc/x86_64-w64-mingw32/8.1.0/../../../../x86_64-w64-mingw32/lib/../lib/libmsvcrt.a(duags01237.o)
                0x0000000000433438                tolower
 .text          0x0000000000433440        0x8 C:/mingw64/w64/bin/../lib/gcc/x86_64-w64-mingw32/8.1.0/../../../../x86_64-w64-mingw32/lib/../lib/libmsvcrt.a(duags01235.o)
                0x0000000000433440                tmpnam
 .text          0x0000000000433448        0x8 C:/mingw64/w64/bin/../lib/gcc/x86_64-w64-mingw32/8.1.0/../../../../x86_64-w64-mingw32/lib/../lib/libmsvcrt.a(duags01223.o)
                0x0000000000433448                strtoul
 .text          0x0000000000433450        0x8 C:/mingw64/w64/bin/../lib/gcc/x86_64-w64-mingw32/8.1.0/../../../../x86_64-w64-mingw32/lib/../lib/libmsvcrt.a(duags01222.o)
                0x0000000000433450                strtol
 .text          0x0000000000433458        0x8 C:/mingw64/w64/bin/../lib/gcc/x86_64-w64-mingw32/8.1.0/../../../../x86_64-w64-mingw32/lib/../lib/libmsvcrt.a(duags01215.o)
                0x0000000000433458                strrchr
 .text          0x0000000000433460        0x8 C:/mingw64/w64/bin/../lib/gcc/x86_64-w64-mingw32/8.1.0/../../../../x86_64-w64-mingw32/lib/../lib/libmsvcrt.a(duags01212.o)
                0x0000000000433460                strncpy
 .text          0x0000000000433468        0x8 C:/mingw64/w64/bin/../lib/gcc/x86_64-w64-mingw32/8.1.0/../../../../x86_64-w64-mingw32/lib/../lib/libmsvcrt.a(duags01211.o)
                0x0000000000433468                strncmp
 .text          0x0000000000433470        0x8 C:/mingw64/w64/bin/../lib/gcc/x86_64-w64-mingw32/8.1.0/../../../../x86_64-w64-mingw32/lib/../lib/libmsvcrt.a(duags01209.o)
                0x0000000000433470                strncat
 .text          0x0000000000433478        0x8 C:/mingw64/w64/bin/../lib/gcc/x86_64-w64-mingw32/8.1.0/../../../../x86_64-w64-mingw32/lib/../lib/libmsvcrt.a(duags01208.o)
                0x0000000000433478                strlen
 .text          0x0000000000433480        0x8 C:/mingw64/w64/bin/../lib/gcc/x86_64-w64-mingw32/8.1.0/../../../../x86_64-w64-mingw32/lib/../lib/libmsvcrt.a(duags01207.o)
                0x0000000000433480                strftime
 .text          0x0000000000433488        0x8 C:/mingw64/w64/bin/../lib/gcc/x86_64-w64-mingw32/8.1.0/../../../../x86_64-w64-mingw32/lib/../lib/libmsvcrt.a(duags01206.o)
                0x0000000000433488                strerror
 .text          0x0000000000433490        0x8 C:/mingw64/w64/bin/../lib/gcc/x86_64-w64-mingw32/8.1.0/../../../../x86_64-w64-mingw32/lib/../lib/libmsvcrt.a(duags01203.o)
                0x0000000000433490                strcpy
 .text          0x0000000000433498        0x8 C:/mingw64/w64/bin/../lib/gcc/x86_64-w64-mingw32/8.1.0/../../../../x86_64-w64-mingw32/lib/../lib/libmsvcrt.a(duags01200.o)
                0x0000000000433498                strchr
 .text          0x00000000004334a0        0x8 C:/mingw64/w64/bin/../lib/gcc/x86_64-w64-mingw32/8.1.0/../../../../x86_64-w64-mingw32/lib/../lib/libmsvcrt.a(duags01198.o)
                0x00000000004334a0                strcat
 .text          0x00000000004334a8        0x8 C:/mingw64/w64/bin/../lib/gcc/x86_64-w64-mingw32/8.1.0/../../../../x86_64-w64-mingw32/lib/../lib/libmsvcrt.a(duags01187.o)
                0x00000000004334a8                signal
 .text          0x00000000004334b0        0x8 C:/mingw64/w64/bin/../lib/gcc/x86_64-w64-mingw32/8.1.0/../../../../x86_64-w64-mingw32/lib/../lib/libmsvcrt.a(duags01159.o)
                0x00000000004334b0                memset
 .text          0x00000000004334b8        0x8 C:/mingw64/w64/bin/../lib/gcc/x86_64-w64-mingw32/8.1.0/../../../../x86_64-w64-mingw32/lib/../lib/libmsvcrt.a(duags01158.o)
                0x00000000004334b8                memmove
 .text          0x00000000004334c0        0x8 C:/mingw64/w64/bin/../lib/gcc/x86_64-w64-mingw32/8.1.0/../../../../x86_64-w64-mingw32/lib/../lib/libmsvcrt.a(duags01157.o)
                0x00000000004334c0                memcpy
 .text          0x00000000004334c8        0x8 C:/mingw64/w64/bin/../lib/gcc/x86_64-w64-mingw32/8.1.0/../../../../x86_64-w64-mingw32/lib/../lib/libmsvcrt.a(duags01156.o)
                0x00000000004334c8                memcmp
 .text          0x00000000004334d0        0x8 C:/mingw64/w64/bin/../lib/gcc/x86_64-w64-mingw32/8.1.0/../../../../x86_64-w64-mingw32/lib/../lib/libmsvcrt.a(duags01149.o)
                0x00000000004334d0                malloc
 .text          0x00000000004334d8        0x8 C:/mingw64/w64/bin/../lib/gcc/x86_64-w64-mingw32/8.1.0/../../../../x86_64-w64-mingw32/lib/../lib/libmsvcrt.a(duags01142.o)
                0x00000000004334d8                localeconv
 .text          0x00000000004334e0        0x8 C:/mingw64/w64/bin/../lib/gcc/x86_64-w64-mingw32/8.1.0/../../../../x86_64-w64-mingw32/lib/../lib/libmsvcrt.a(duags01138.o)
                0x00000000004334e0                isxdigit
 .text          0x00000000004334e8        0x8 C:/mingw64/w64/bin/../lib/gcc/x86_64-w64-mingw32/8.1.0/../../../../x86_64-w64-mingw32/lib/../lib/libmsvcrt.a(duags01122.o)
                0x00000000004334e8                isspace
 .text          0x00000000004334f0        0x8 C:/mingw64/w64/bin/../lib/gcc/x86_64-w64-mingw32/8.1.0/../../../../x86_64-w64-mingw32/lib/../lib/libmsvcrt.a(duags01121.o)
                0x00000000004334f0                ispunct
 .text          0x00000000004334f8        0x8 C:/mingw64/w64/bin/../lib/gcc/x86_64-w64-mingw32/8.1.0/../../../../x86_64-w64-mingw32/lib/../lib/libmsvcrt.a(duags01114.o)
                0x00000000004334f8                isalpha
 .text          0x0000000000433500        0x8 C:/mingw64/w64/bin/../lib/gcc/x86_64-w64-mingw32/8.1.0/../../../../x86_64-w64-mingw32/lib/../lib/libmsvcrt.a(duags01113.o)
                0x0000000000433500                isalnum
 .text          0x0000000000433508        0x8 C:/mingw64/w64/bin/../lib/gcc/x86_64-w64-mingw32/8.1.0/../../../../x86_64-w64-mingw32/lib/../lib/libmsvcrt.a(duags01106.o)
                0x0000000000433508                getenv
 .text          0x0000000000433510        0x8 C:/mingw64/w64/bin/../lib/gcc/x86_64-w64-mingw32/8.1.0/../../../../x86_64-w64-mingw32/lib/../lib/libmsvcrt.a(duags01101.o)
                0x0000000000433510                fwrite
 .text          0x0000000000433518        0x8 C:/mingw64/w64/bin/../lib/gcc/x86_64-w64-mingw32/8.1.0/../../../../x86_64-w64-mingw32/lib/../lib/libmsvcrt.a(duags01089.o)
                0x0000000000433518                free
 .text          0x0000000000433520        0x8 C:/mingw64/w64/bin/../lib/gcc/x86_64-w64-mingw32/8.1.0/../../../../x86_64-w64-mingw32/lib/../lib/libmsvcrt.a(duags01088.o)
                0x0000000000433520                fread
 .text          0x0000000000433528        0x8 C:/mingw64/w64/bin/../lib/gcc/x86_64-w64-mingw32/8.1.0/../../../../x86_64-w64-mingw32/lib/../lib/libmsvcrt.a(duags01085.o)
                0x0000000000433528                fputs
 .text          0x0000000000433530        0x8 C:/mingw64/w64/bin/../lib/gcc/x86_64-w64-mingw32/8.1.0/../../../../x86_64-w64-mingw32/lib/../lib/libmsvcrt.a(duags01084.o)
                0x0000000000433530                fputc
 .text          0x0000000000433538        0x8 C:/mingw64/w64/bin/../lib/gcc/x86_64-w64-mingw32/8.1.0/../../../../x86_64-w64-mingw32/lib/../lib/libmsvcrt.a(duags01082.o)
                0x0000000000433538                fprintf
 .text          0x0000000000433540        0x8 C:/mingw64/w64/bin/../lib/gcc/x86_64-w64-mingw32/8.1.0/../../../../x86_64-w64-mingw32/lib/../lib/libmsvcrt.a(duags01080.o)
                0x0000000000433540                fopen
 .text          0x0000000000433548        0x8 C:/mingw64/w64/bin/../lib/gcc/x86_64-w64-mingw32/8.1.0/../../../../x86_64-w64-mingw32/lib/../lib/libmsvcrt.a(duags01073.o)
                0x0000000000433548                fgets
 .text          0x0000000000433550        0x8 C:/mingw64/w64/bin/../lib/gcc/x86_64-w64-mingw32/8.1.0/../../../../x86_64-w64-mingw32/lib/../lib/libmsvcrt.a(duags01067.o)
                0x0000000000433550                fclose
 .text          0x0000000000433558        0x8 C:/mingw64/w64/bin/../lib/gcc/x86_64-w64-mingw32/8.1.0/../../../../x86_64-w64-mingw32/lib/../lib/libmsvcrt.a(duags01063.o)
                0x0000000000433558                exit
 .text          0x0000000000433560        0x8 C:/mingw64/w64/bin/../lib/gcc/x86_64-w64-mingw32/8.1.0/../../../../x86_64-w64-mingw32/lib/../lib/libmsvcrt.a(duags01050.o)
                0x0000000000433560                calloc
 .text          0x0000000000433568        0x8 C:/mingw64/w64/bin/../lib/gcc/x86_64-w64-mingw32/8.1.0/../../../../x86_64-w64-mingw32/lib/../lib/libmsvcrt.a(duags01032.o)
                0x0000000000433568                abort
 .text          0x0000000000433570        0x8 C:/mingw64/w64/bin/../lib/gcc/x86_64-w64-mingw32/8.1.0/../../../../x86_64-w64-mingw32/lib/../lib/libmsvcrt.a(duags00791.o)
                0x0000000000433570                _time64
 .text          0x0000000000433578        0x8 C:/mingw64/w64/bin/../lib/gcc/x86_64-w64-mingw32/8.1.0/../../../../x86_64-w64-mingw32/lib/../lib/libmsvcrt.a(duags00749.o)
                0x0000000000433578                strnicmp
 .text          0x0000000000433580        0x8 C:/mingw64/w64/bin/../lib/gcc/x86_64-w64-mingw32/8.1.0/../../../../x86_64-w64-mingw32/lib/../lib/libmsvcrt.a(duags00730.o)
                0x0000000000433580                strdup
 .text          0x0000000000433588        0x8 C:/mingw64/w64/bin/../lib/gcc/x86_64-w64-mingw32/8.1.0/../../../../x86_64-w64-mingw32/lib/../lib/libmsvcrt.a(duags00723.o)
                0x0000000000433588                _stat64
 .text          0x0000000000433590        0x8 C:/mingw64/w64/bin/../lib/gcc/x86_64-w64-mingw32/8.1.0/../../../../x86_64-w64-mingw32/lib/../lib/libmsvcrt.a(duags00647.o)
                0x0000000000433590                read
 .text          0x0000000000433598        0x8 C:/mingw64/w64/bin/../lib/gcc/x86_64-w64-mingw32/8.1.0/../../../../x86_64-w64-mingw32/lib/../lib/libmsvcrt.a(duags00634.o)
                0x0000000000433598                putenv
 .text          0x00000000004335a0        0x8 C:/mingw64/w64/bin/../lib/gcc/x86_64-w64-mingw32/8.1.0/../../../../x86_64-w64-mingw32/lib/../lib/libmsvcrt.a(duags00617.o)
                0x00000000004335a0                _open_osfhandle
 .text          0x00000000004335a8        0x8 C:/mingw64/w64/bin/../lib/gcc/x86_64-w64-mingw32/8.1.0/../../../../x86_64-w64-mingw32/lib/../lib/libmsvcrt.a(duags00616.o)
                0x00000000004335a8                open
 .text          0x00000000004335b0        0x8 C:/mingw64/w64/bin/../lib/gcc/x86_64-w64-mingw32/8.1.0/../../../../x86_64-w64-mingw32/lib/../lib/libmsvcrt.a(duags00614.o)
                0x00000000004335b0                _onexit
 .text          0x00000000004335b8        0x8 C:/mingw64/w64/bin/../lib/gcc/x86_64-w64-mingw32/8.1.0/../../../../x86_64-w64-mingw32/lib/../lib/libmsvcrt.a(duags00440.o)
                0x00000000004335b8                _localtime64
 .text          0x00000000004335c0        0x8 C:/mingw64/w64/bin/../lib/gcc/x86_64-w64-mingw32/8.1.0/../../../../x86_64-w64-mingw32/lib/../lib/libmsvcrt.a(duags00337.o)
                0x00000000004335c0                _isatty
 .text          0x00000000004335c8        0x8 C:/mingw64/w64/bin/../lib/gcc/x86_64-w64-mingw32/8.1.0/../../../../x86_64-w64-mingw32/lib/../lib/libmsvcrt.a(duags00332.o)
                0x00000000004335c8                _initterm
 .text          0x00000000004335d0        0x8 C:/mingw64/w64/bin/../lib/gcc/x86_64-w64-mingw32/8.1.0/../../../../x86_64-w64-mingw32/lib/../lib/libmsvcrt.a(duags00301.o)
                0x00000000004335d0                getcwd
 .text          0x00000000004335d8        0x8 C:/mingw64/w64/bin/../lib/gcc/x86_64-w64-mingw32/8.1.0/../../../../x86_64-w64-mingw32/lib/../lib/libmsvcrt.a(duags00291.o)
                0x00000000004335d8                _get_osfhandle
 .text          0x00000000004335e0        0x8 C:/mingw64/w64/bin/../lib/gcc/x86_64-w64-mingw32/8.1.0/../../../../x86_64-w64-mingw32/lib/../lib/libmsvcrt.a(duags00245.o)
                0x00000000004335e0                _findnext64
 .text          0x00000000004335e8        0x8 C:/mingw64/w64/bin/../lib/gcc/x86_64-w64-mingw32/8.1.0/../../../../x86_64-w64-mingw32/lib/../lib/libmsvcrt.a(duags00243.o)
                0x00000000004335e8                fileno
 .text          0x00000000004335f0        0x8 C:/mingw64/w64/bin/../lib/gcc/x86_64-w64-mingw32/8.1.0/../../../../x86_64-w64-mingw32/lib/../lib/libmsvcrt.a(duags00240.o)
                0x00000000004335f0                _findfirst64
 .text          0x00000000004335f8        0x8 C:/mingw64/w64/bin/../lib/gcc/x86_64-w64-mingw32/8.1.0/../../../../x86_64-w64-mingw32/lib/../lib/libmsvcrt.a(duags00237.o)
                0x00000000004335f8                _findclose
 .text          0x0000000000433600        0x8 C:/mingw64/w64/bin/../lib/gcc/x86_64-w64-mingw32/8.1.0/../../../../x86_64-w64-mingw32/lib/../lib/libmsvcrt.a(duags00203.o)
                0x0000000000433600                _errno
 .text          0x0000000000433608        0x8 C:/mingw64/w64/bin/../lib/gcc/x86_64-w64-mingw32/8.1.0/../../../../x86_64-w64-mingw32/lib/../lib/libmsvcrt.a(duags00166.o)
                0x0000000000433608                close
 .text          0x0000000000433610        0x8 C:/mingw64/w64/bin/../lib/gcc/x86_64-w64-mingw32/8.1.0/../../../../x86_64-w64-mingw32/lib/../lib/libmsvcrt.a(duags00141.o)
                0x0000000000433610                _cexit
 .text          0x0000000000433618        0x8 C:/mingw64/w64/bin/../lib/gcc/x86_64-w64-mingw32/8.1.0/../../../../x86_64-w64-mingw32/lib/../lib/libmsvcrt.a(duags00122.o)
                0x0000000000433618                _amsg_exit
 .text          0x0000000000433620        0x8 C:/mingw64/w64/bin/../lib/gcc/x86_64-w64-mingw32/8.1.0/../../../../x86_64-w64-mingw32/lib/../lib/libmsvcrt.a(duags00114.o)
                0x0000000000433620                _access
 .text          0x0000000000433628        0x8 C:/mingw64/w64/bin/../lib/gcc/x86_64-w64-mingw32/8.1.0/../../../../x86_64-w64-mingw32/lib/../lib/libmsvcrt.a(duags00098.o)
                0x0000000000433628                __setusermatherr
 .text          0x0000000000433630        0x8 C:/mingw64/w64/bin/../lib/gcc/x86_64-w64-mingw32/8.1.0/../../../../x86_64-w64-mingw32/lib/../lib/libmsvcrt.a(duags00096.o)
                0x0000000000433630                __set_app_type
 .text          0x0000000000433638        0x8 C:/mingw64/w64/bin/../lib/gcc/x86_64-w64-mingw32/8.1.0/../../../../x86_64-w64-mingw32/lib/../lib/libmsvcrt.a(duags00090.o)
                0x0000000000433638                __lconv_init
 .text          0x0000000000433640        0x0 C:/mingw64/w64/bin/../lib/gcc/x86_64-w64-mingw32/8.1.0/../../../../x86_64-w64-mingw32/lib/../lib/libmsvcrt.a(duags00082.o)
 .text          0x0000000000433640        0x8 C:/mingw64/w64/bin/../lib/gcc/x86_64-w64-mingw32/8.1.0/../../../../x86_64-w64-mingw32/lib/../lib/libmsvcrt.a(duags00081.o)
                0x0000000000433640                __getmainargs
 .text          0x0000000000433648        0x0 C:/mingw64/w64/bin/../lib/gcc/x86_64-w64-mingw32/8.1.0/../../../../x86_64-w64-mingw32/lib/../lib/libmsvcrt.a(duags00069.o)
 .text          0x0000000000433648        0x8 C:/mingw64/w64/bin/../lib/gcc/x86_64-w64-mingw32/8.1.0/../../../../x86_64-w64-mingw32/lib/../lib/libmsvcrt.a(duags00066.o)
                0x0000000000433648                ___mb_cur_max_func
 .text          0x0000000000433650        0x8 C:/mingw64/w64/bin/../lib/gcc/x86_64-w64-mingw32/8.1.0/../../../../x86_64-w64-mingw32/lib/../lib/libmsvcrt.a(duags00063.o)
                0x0000000000433650                ___lc_codepage_func
 *fill*         0x0000000000433658        0x8 
 .text          0x0000000000433660       0x20 C:/mingw64/w64/bin/../lib/gcc/x86_64-w64-mingw32/8.1.0/../../../../x86_64-w64-mingw32/lib/../lib/libmsvcrt.a(lib64_libmsvcrt_os_a-acrt_iob_func.o)
                0x0000000000433660                __acrt_iob_func
 .text          0x0000000000433680       0x20 C:/mingw64/w64/bin/../lib/gcc/x86_64-w64-mingw32/8.1.0/../../../../x86_64-w64-mingw32/lib/../lib/libmsvcrt.a(lib64_libmsvcrt_os_a-invalid_parameter_handler.o)
                0x0000000000433680                _get_invalid_parameter_handler
                0x0000000000433690                _set_invalid_parameter_handler
 .text          0x00000000004336a0       0xd0 C:/mingw64/w64/bin/../lib/gcc/x86_64-w64-mingw32/8.1.0/../../../../x86_64-w64-mingw32/lib/../lib/libmsvcrt.a(lib64_libmsvcrt_os_a-mingw_lock.o)
                0x00000000004336a0                _lock_file
                0x0000000000433710                _unlock_file
 .text          0x0000000000433770       0x10 C:/mingw64/w64/bin/../lib/gcc/x86_64-w64-mingw32/8.1.0/../../../../x86_64-w64-mingw32/lib/../lib/libmsvcrt.a(lib64_libmsvcrt_os_a-__p___argv.o)
                0x0000000000433770                __p___argv
 .text          0x0000000000433780       0x10 C:/mingw64/w64/bin/../lib/gcc/x86_64-w64-mingw32/8.1.0/../../../../x86_64-w64-mingw32/lib/../lib/libmsvcrt.a(lib64_libmsvcrt_os_a-__p__acmdln.o)
                0x0000000000433780                __p__acmdln
 .text          0x0000000000433790       0x10 C:/mingw64/w64/bin/../lib/gcc/x86_64-w64-mingw32/8.1.0/../../../../x86_64-w64-mingw32/lib/../lib/libmsvcrt.a(lib64_libmsvcrt_os_a-__p__fmode.o)
                0x0000000000433790                __p__fmode
 .text          0x00000000004337a0        0x0 C:/mingw64/w64/bin/../lib/gcc/x86_64-w64-mingw32/8.1.0/../../../../x86_64-w64-mingw32/lib/../lib/libmsvcrt.a(duagh.o)
 .text          0x00000000004337a0        0x8 C:/mingw64/w64/bin/../lib/gcc/x86_64-w64-mingw32/8.1.0/../../../../x86_64-w64-mingw32/lib/../lib/libmsvcrt.a(duags00821.o)
                0x00000000004337a0                _unlock
 .text          0x00000000004337a8        0x8 C:/mingw64/w64/bin/../lib/gcc/x86_64-w64-mingw32/8.1.0/../../../../x86_64-w64-mingw32/lib/../lib/libmsvcrt.a(duags00441.o)
                0x00000000004337a8                _lock
 .text          0x00000000004337b0        0x0 C:/mingw64/w64/bin/../lib/gcc/x86_64-w64-mingw32/8.1.0/../../../../x86_64-w64-mingw32/lib/../lib/libmsvcrt.a(duags00115.o)
 .text          0x00000000004337b0        0x8 C:/mingw64/w64/bin/../lib/gcc/x86_64-w64-mingw32/8.1.0/../../../../x86_64-w64-mingw32/lib/../lib/libmsvcrt.a(duags00083.o)
                0x00000000004337b0                __iob_func
 .text          0x00000000004337b8        0x0 C:/mingw64/w64/bin/../lib/gcc/x86_64-w64-mingw32/8.1.0/../../../../x86_64-w64-mingw32/lib/../lib/libmsvcrt.a(duags00070.o)
 *fill*         0x00000000004337b8        0x8 
 .text          0x00000000004337c0        0x0 C:/mingw64/w64/bin/../lib/gcc/x86_64-w64-mingw32/8.1.0/../../../../x86_64-w64-mingw32/lib/../lib/libmsvcrt.a(duagt.o)
 .text          0x00000000004337c0        0x8 C:/mingw64/w64/bin/../lib/gcc/x86_64-w64-mingw32/8.1.0/../../../../x86_64-w64-mingw32/lib/../lib/libkernel32.a(dqifs01490.o)
                0x00000000004337c0                WideCharToMultiByte
 .text          0x00000000004337c8        0x8 C:/mingw64/w64/bin/../lib/gcc/x86_64-w64-mingw32/8.1.0/../../../../x86_64-w64-mingw32/lib/../lib/libkernel32.a(dqifs01445.o)
                0x00000000004337c8                VirtualQuery
 .text          0x00000000004337d0        0x8 C:/mingw64/w64/bin/../lib/gcc/x86_64-w64-mingw32/8.1.0/../../../../x86_64-w64-mingw32/lib/../lib/libkernel32.a(dqifs01443.o)
                0x00000000004337d0                VirtualProtect
 .text          0x00000000004337d8        0x8 C:/mingw64/w64/bin/../lib/gcc/x86_64-w64-mingw32/8.1.0/../../../../x86_64-w64-mingw32/lib/../lib/libkernel32.a(dqifs01409.o)
                0x00000000004337d8                UnhandledExceptionFilter
 .text          0x00000000004337e0        0x8 C:/mingw64/w64/bin/../lib/gcc/x86_64-w64-mingw32/8.1.0/../../../../x86_64-w64-mingw32/lib/../lib/libkernel32.a(dqifs01395.o)
                0x00000000004337e0                TlsGetValue
 .text          0x00000000004337e8        0x8 C:/mingw64/w64/bin/../lib/gcc/x86_64-w64-mingw32/8.1.0/../../../../x86_64-w64-mingw32/lib/../lib/libkernel32.a(dqifs01375.o)
                0x00000000004337e8                TerminateProcess
 .text          0x00000000004337f0        0x8 C:/mingw64/w64/bin/../lib/gcc/x86_64-w64-mingw32/8.1.0/../../../../x86_64-w64-mingw32/lib/../lib/libkernel32.a(dqifs01194.o)
                0x00000000004337f0                RtlVirtualUnwind
 .text          0x00000000004337f8        0x8 C:/mingw64/w64/bin/../lib/gcc/x86_64-w64-mingw32/8.1.0/../../../../x86_64-w64-mingw32/lib/../lib/libkernel32.a(dqifs01193.o)
                0x00000000004337f8                RtlUnwindEx
 .text          0x0000000000433800        0x8 C:/mingw64/w64/bin/../lib/gcc/x86_64-w64-mingw32/8.1.0/../../../../x86_64-w64-mingw32/lib/../lib/libkernel32.a(dqifs01187.o)
                0x0000000000433800                RtlLookupFunctionEntry
 .text          0x0000000000433808        0x8 C:/mingw64/w64/bin/../lib/gcc/x86_64-w64-mingw32/8.1.0/../../../../x86_64-w64-mingw32/lib/../lib/libkernel32.a(dqifs01180.o)
                0x0000000000433808                RtlCaptureContext
 .text          0x0000000000433810        0x8 C:/mingw64/w64/bin/../lib/gcc/x86_64-w64-mingw32/8.1.0/../../../../x86_64-w64-mingw32/lib/../lib/libkernel32.a(dqifs01179.o)
                0x0000000000433810                RtlAddFunctionTable
 .text          0x0000000000433818        0x8 C:/mingw64/w64/bin/../lib/gcc/x86_64-w64-mingw32/8.1.0/../../../../x86_64-w64-mingw32/lib/../lib/libkernel32.a(dqifs01112.o)
                0x0000000000433818                RaiseException
 .text          0x0000000000433820        0x8 C:/mingw64/w64/bin/../lib/gcc/x86_64-w64-mingw32/8.1.0/../../../../x86_64-w64-mingw32/lib/../lib/libkernel32.a(dqifs01093.o)
                0x0000000000433820                QueryPerformanceCounter
 .text          0x0000000000433828        0x8 C:/mingw64/w64/bin/../lib/gcc/x86_64-w64-mingw32/8.1.0/../../../../x86_64-w64-mingw32/lib/../lib/libkernel32.a(dqifs00999.o)
                0x0000000000433828                MultiByteToWideChar
 .text          0x0000000000433830        0x8 C:/mingw64/w64/bin/../lib/gcc/x86_64-w64-mingw32/8.1.0/../../../../x86_64-w64-mingw32/lib/../lib/libkernel32.a(dqifs00951.o)
                0x0000000000433830                LeaveCriticalSection
 .text          0x0000000000433838        0x8 C:/mingw64/w64/bin/../lib/gcc/x86_64-w64-mingw32/8.1.0/../../../../x86_64-w64-mingw32/lib/../lib/libkernel32.a(dqifs00889.o)
                0x0000000000433838                IsDBCSLeadByteEx
 .text          0x0000000000433840        0x8 C:/mingw64/w64/bin/../lib/gcc/x86_64-w64-mingw32/8.1.0/../../../../x86_64-w64-mingw32/lib/../lib/libkernel32.a(dqifs00863.o)
                0x0000000000433840                InitializeCriticalSection
 .text          0x0000000000433848        0x8 C:/mingw64/w64/bin/../lib/gcc/x86_64-w64-mingw32/8.1.0/../../../../x86_64-w64-mingw32/lib/../lib/libkernel32.a(dqifs00746.o)
                0x0000000000433848                GetSystemTimeAsFileTime
 .text          0x0000000000433850        0x8 C:/mingw64/w64/bin/../lib/gcc/x86_64-w64-mingw32/8.1.0/../../../../x86_64-w64-mingw32/lib/../lib/libkernel32.a(dqifs00540.o)
                0x0000000000433850                GetCurrentThreadId
 .text          0x0000000000433858        0x8 C:/mingw64/w64/bin/../lib/gcc/x86_64-w64-mingw32/8.1.0/../../../../x86_64-w64-mingw32/lib/../lib/libkernel32.a(dqifs00536.o)
                0x0000000000433858                GetCurrentProcessId
 .text          0x0000000000433860        0x8 C:/mingw64/w64/bin/../lib/gcc/x86_64-w64-mingw32/8.1.0/../../../../x86_64-w64-mingw32/lib/../lib/libkernel32.a(dqifs00535.o)
                0x0000000000433860                GetCurrentProcess
 .text          0x0000000000433868        0x8 C:/mingw64/w64/bin/../lib/gcc/x86_64-w64-mingw32/8.1.0/../../../../x86_64-w64-mingw32/lib/../lib/libkernel32.a(dqifs00304.o)
                0x0000000000433868                EnterCriticalSection
 .text          0x0000000000433870        0x8 C:/mingw64/w64/bin/../lib/gcc/x86_64-w64-mingw32/8.1.0/../../../../x86_64-w64-mingw32/lib/../lib/libkernel32.a(dqifs00268.o)
                0x0000000000433870                DeleteCriticalSection
 .text          0x0000000000433878        0x0 C:/mingw64/w64/bin/../lib/gcc/x86_64-w64-mingw32/8.1.0/../../../../x86_64-w64-mingw32/lib/../lib/libmsvcrt.a(duags00253.o)
 *fill*         0x0000000000433878        0x8 
 .text          0x0000000000433880        0x0 C:/mingw64/w64/bin/../lib/gcc/x86_64-w64-mingw32/8.1.0/crtend.o
 *(SORT_BY_NAME(.text$*))
 .text$_Z6printfPKcz
                0x0000000000433880       0x50 C:\orangec\src\..\src\lib\mingw64/libutil.a(Utils.o)
                0x0000000000433880                printf(char const*, ...)
 .text$_Z7fprintfP6_iobufPKcz
                0x00000000004338d0       0x30 C:\orangec\src\..\src\lib\mingw64/libutil.a(Utils.o)
                0x00000000004338d0                fprintf(_iobuf*, char const*, ...)
 .text$_Z9vsnprintfPcyPKcS_
                0x0000000000433900       0x10 C:\orangec\src\..\src\lib\mingw64/libutil.a(Utils.o)
                0x0000000000433900                vsnprintf(char*, unsigned long long, char const*, char*)
 .text$_ZN10ErrorTokenD0Ev
                0x0000000000433910       0x40 C:\orangec\src\..\src\lib\mingw64/libocpplib.a(Token.o)
                0x0000000000433910                ErrorToken::~ErrorToken()
 .text$_ZN10ErrorTokenD1Ev
                0x0000000000433950       0x30 C:\orangec\src\..\src\lib\mingw64/libocpplib.a(Token.o)
                0x0000000000433950                ErrorToken::~ErrorToken()
 .text$_ZN11StringTokenD0Ev
                0x0000000000433980       0x70 C:\orangec\src\..\src\lib\mingw64/libocpplib.a(Token.o)
                0x0000000000433980                StringToken::~StringToken()
 .text$_ZN11StringTokenD1Ev
                0x00000000004339f0       0x70 C:\orangec\src\..\src\lib\mingw64/libocpplib.a(Token.o)
                0x00000000004339f0                StringToken::~StringToken()
 .text$_ZN12CmdSwitchInt16RequiresArgumentEv
                0x0000000000433a60       0x10 C:\orangec\src\..\src\lib\mingw64/libutil.a(CmdSwitch.o)
                0x0000000000433a60                CmdSwitchInt::RequiresArgument()
 .text$_ZN12KeywordTokenD0Ev
                0x0000000000433a70       0x40 C:\orangec\src\..\src\lib\mingw64/libocpplib.a(Token.o)
                0x0000000000433a70                KeywordToken::~KeywordToken()
 .text$_ZN12KeywordTokenD1Ev
                0x0000000000433ab0       0x30 C:\orangec\src\..\src\lib\mingw64/libocpplib.a(Token.o)
                0x0000000000433ab0                KeywordToken::~KeywordToken()
 .text$_ZN12NumericTokenD0Ev
                0x0000000000433ae0       0x40 C:\orangec\src\..\src\lib\mingw64/libocpplib.a(Token.o)
                0x0000000000433ae0                NumericToken::~NumericToken()
 .text$_ZN12NumericTokenD1Ev
                0x0000000000433b20       0x30 C:\orangec\src\..\src\lib\mingw64/libocpplib.a(Token.o)
                0x0000000000433b20                NumericToken::~NumericToken()
 .text$_ZN12PreProcessorD1Ev
                0x0000000000433b50      0x1a0 C:\orangec\src\ocpp\obj\mingw64\ppMain.o
                0x0000000000433b50                PreProcessor::~PreProcessor()
 .text$_ZN13CmdSwitchBase16RequiresArgumentEv
                0x0000000000433cf0       0x10 C:\orangec\src\ocpp\obj\mingw64\ppMain.o
                0x0000000000433cf0                CmdSwitchBase::RequiresArgument()
 .text$_ZN13CmdSwitchBase5ParseEPKc
                0x0000000000433d00       0x10 C:\orangec\src\ocpp\obj\mingw64\ppMain.o
                0x0000000000433d00                CmdSwitchBase::Parse(char const*)
 .text$_ZN13CmdSwitchBase9SetArgNumEi
                0x0000000000433d10       0x10 C:\orangec\src\ocpp\obj\mingw64\ppMain.o
                0x0000000000433d10                CmdSwitchBase::SetArgNum(int)
 .text$_ZN13CmdSwitchBoolC1ER15CmdSwitchParsercbSt5dequeINSt7__cxx1112basic_stringIcSt11char_traitsIcESaIcEEESaIS8_EE
                0x0000000000433d20      0x390 C:\orangec\src\ocpp\obj\mingw64\ppMain.o
                0x0000000000433d20                CmdSwitchBool::CmdSwitchBool(CmdSwitchParser&, char, bool, std::deque<std::__cxx11::basic_string<char, std::char_traits<char>, std::allocator<char> >, std::allocator<std::__cxx11::basic_string<char, std::char_traits<char>, std::allocator<char> > > >)
 .text$_ZN13CmdSwitchFileD1Ev
                0x00000000004340b0      0x140 C:\orangec\src\ocpp\obj\mingw64\ppMain.o
                0x00000000004340b0                CmdSwitchFile::~CmdSwitchFile()
 .text$_ZN14CharacterTokenD0Ev
                0x00000000004341f0       0x40 C:\orangec\src\..\src\lib\mingw64/libocpplib.a(Token.o)
                0x00000000004341f0                CharacterToken::~CharacterToken()
 .text$_ZN14CharacterTokenD1Ev
                0x0000000000434230       0x30 C:\orangec\src\..\src\lib\mingw64/libocpplib.a(Token.o)
                0x0000000000434230                CharacterToken::~CharacterToken()
 .text$_ZN15CmdSwitchDefine9SetArgNumEi
                0x0000000000434260       0x20 C:\orangec\src\..\src\lib\mingw64/libutil.a(CmdSwitch.o)
                0x0000000000434260                CmdSwitchDefine::SetArgNum(int)
 .text$_ZN15CmdSwitchDefineC1ER15CmdSwitchParsercSt5dequeINSt7__cxx1112basic_stringIcSt11char_traitsIcESaIcEEESaIS8_EE
                0x0000000000434280      0x3a0 C:\orangec\src\ocpp\obj\mingw64\ppMain.o
                0x0000000000434280                CmdSwitchDefine::CmdSwitchDefine(CmdSwitchParser&, char, std::deque<std::__cxx11::basic_string<char, std::char_traits<char>, std::allocator<char> >, std::allocator<std::__cxx11::basic_string<char, std::char_traits<char>, std::allocator<char> > > >)
 .text$_ZN15CmdSwitchParserC1Ev
                0x0000000000434620      0x5e0 C:\orangec\src\ocpp\obj\mingw64\ppMain.o
                0x0000000000434620                CmdSwitchParser::CmdSwitchParser()
 .text$_ZN15CmdSwitchStringC1ER15CmdSwitchParserccSt5dequeINSt7__cxx1112basic_stringIcSt11char_traitsIcESaIcEEESaIS8_EE
                0x0000000000434c00      0x3e0 C:\orangec\src\ocpp\obj\mingw64\ppMain.o
                0x0000000000434c00                CmdSwitchString::CmdSwitchString(CmdSwitchParser&, char, char, std::deque<std::__cxx11::basic_string<char, std::char_traits<char>, std::allocator<char> >, std::allocator<std::__cxx11::basic_string<char, std::char_traits<char>, std::allocator<char> > > >)
 .text$_ZN15IdentifierTokenD0Ev
                0x0000000000434fe0       0x60 C:\orangec\src\..\src\lib\mingw64/libocpplib.a(Token.o)
                0x0000000000434fe0                IdentifierToken::~IdentifierToken()
 .text$_ZN15IdentifierTokenD1Ev
                0x0000000000435040       0x60 C:\orangec\src\..\src\lib\mingw64/libocpplib.a(Token.o)
                0x0000000000435040                IdentifierToken::~IdentifierToken()
 .text$_ZN22CmdSwitchCombineStringC1ER15CmdSwitchParserccSt5dequeINSt7__cxx1112basic_stringIcSt11char_traitsIcESaIcEEESaIS8_EE
                0x00000000004350a0      0x740 C:\orangec\src\ocpp\obj\mingw64\ppMain.o
                0x00000000004350a0                CmdSwitchCombineString::CmdSwitchCombineString(CmdSwitchParser&, char, char, std::deque<std::__cxx11::basic_string<char, std::char_traits<char>, std::allocator<char> >, std::allocator<std::__cxx11::basic_string<char, std::char_traits<char>, std::allocator<char> > > >)
 .text$_ZN5Token5ParseERNSt7__cxx1112basic_stringIcSt11char_traitsIcESaIcEEE
                0x00000000004357e0       0x10 C:\orangec\src\..\src\lib\mingw64/libocpplib.a(Token.o)
                0x00000000004357e0                Token::Parse(std::__cxx11::basic_string<char, std::char_traits<char>, std::allocator<char> >&)
 .text$_ZN5TokenD0Ev
                0x00000000004357f0       0x40 C:\orangec\src\..\src\lib\mingw64/libocpplib.a(Token.o)
                0x00000000004357f0                Token::~Token()
 .text$_ZN5TokenD1Ev
                0x0000000000435830       0x30 C:\orangec\src\..\src\lib\mingw64/libocpplib.a(Token.o)
                0x0000000000435830                Token::~Token()
 .text$_ZN5Utils5fatalEPKc
                0x0000000000435860       0x60 C:\orangec\src\..\src\lib\mingw64/libocpplib.a(Errors.o)
                0x0000000000435860                Utils::fatal(char const*)
 .text$_ZN5Utils5fatalIJPKcEEEvS2_DpT_
                0x00000000004358c0       0x70 C:\orangec\src\ocpp\obj\mingw64\ppMain.o
                0x00000000004358c0                void Utils::fatal<char const*>(char const*, char const*)
 .text$_ZN6SymbolD0Ev
                0x0000000000435930       0x50 C:\orangec\src\..\src\lib\mingw64/libocpplib.a(ppDefine.o)
                0x0000000000435930                Symbol::~Symbol()
 .text$_ZN6SymbolD1Ev
                0x0000000000435980       0x50 C:\orangec\src\..\src\lib\mingw64/libocpplib.a(ppDefine.o)
                0x0000000000435980                Symbol::~Symbol()
 .text$_ZN6SymbolD2Ev
                0x00000000004359d0       0x50 C:\orangec\src\..\src\lib\mingw64/libocpplib.a(ppDefine.o)
                0x00000000004359d0                Symbol::~Symbol()
 .text$_ZN6ppFileD0Ev
                0x0000000000435a20       0x40 C:\orangec\src\..\src\lib\mingw64/libocpplib.a(ppInclude.o)
                0x0000000000435a20                ppFile::~ppFile()
 .text$_ZN6ppFileD1Ev
                0x0000000000435a60       0x30 C:\orangec\src\..\src\lib\mingw64/libocpplib.a(ppFile.o)
                0x0000000000435a60                ppFile::~ppFile()
 .text$_ZN8EndTokenD0Ev
                0x0000000000435a90       0x40 C:\orangec\src\..\src\lib\mingw64/libocpplib.a(Token.o)
                0x0000000000435a90                EndToken::~EndToken()
 .text$_ZN8EndTokenD1Ev
                0x0000000000435ad0       0x30 C:\orangec\src\..\src\lib\mingw64/libocpplib.a(Token.o)
                0x0000000000435ad0                EndToken::~EndToken()
 .text$_ZN8ppDefine10DefinitionD0Ev
                0x0000000000435b00       0xc0 C:\orangec\src\..\src\lib\mingw64/libocpplib.a(ppDefine.o)
                0x0000000000435b00                ppDefine::Definition::~Definition()
 .text$_ZN8ppDefine10DefinitionD1Ev
                0x0000000000435bc0       0xc0 C:\orangec\src\..\src\lib\mingw64/libocpplib.a(ppDefine.o)
                0x0000000000435bc0                ppDefine::Definition::~Definition()
 .text$_ZN8ppDefineD1Ev
                0x0000000000435c80      0x120 C:\orangec\src\ocpp\obj\mingw64\ppMain.o
                0x0000000000435c80                ppDefine::~ppDefine()
 .text$_ZN9InputFile12StripCommentEPc
                0x0000000000435da0       0x20 C:\orangec\src\..\src\lib\mingw64/libocpplib.a(InputFile.o)
                0x0000000000435da0                InputFile::StripComment(char*)
 .text$_ZN9TokenizerD0Ev
                0x0000000000435dc0       0x50 C:\orangec\src\ocpp\obj\mingw64\ppMain.o
                0x0000000000435dc0                Tokenizer::~Tokenizer()
 .text$_ZN9TokenizerD1Ev
                0x0000000000435e10       0x50 C:\orangec\src\ocpp\obj\mingw64\ppMain.o
                0x0000000000435e10                Tokenizer::~Tokenizer()
 .text$_ZN9__gnu_cxx12__to_xstringINSt7__cxx1112basic_stringIcSt11char_traitsIcESaIcEEEcEET_PFiPT0_yPKS8_PcEySB_z
                0x0000000000435e60       0x60 C:\orangec\src\..\src\lib\mingw64/libutil.a(Utils.o)
                0x0000000000435e60                std::__cxx11::basic_string<char, std::char_traits<char>, std::allocator<char> > __gnu_cxx::__to_xstring<std::__cxx11::basic_string<char, std::char_traits<char>, std::allocator<char> >, char>(int (*)(char*, unsigned long long, char const*, char*), unsigned long long, char const*, ...)
 .text$_ZN9__gnu_cxx6__stoaIlicJiEEET0_PFT_PKT1_PPS3_DpT2_EPKcS5_PyS9_
                0x0000000000435ec0       0xc0 C:\orangec\src\..\src\lib\mingw64/libutil.a(Utils.o)
                0x0000000000435ec0                int __gnu_cxx::__stoa<long, int, char, int>(long (*)(char const*, char**, int), char const*, char const*, unsigned long long*, int)
 .text$_ZNK10ErrorToken7IsErrorEv
                0x0000000000435f80       0x10 C:\orangec\src\..\src\lib\mingw64/libocpplib.a(Token.o)
                0x0000000000435f80                ErrorToken::IsError() const
 .text$_ZNK11StringToken12GetRawStringB5cxx11Ev
                0x0000000000435f90       0x30 C:\orangec\src\..\src\lib\mingw64/libocpplib.a(Token.o)
                0x0000000000435f90                StringToken::GetRawString[abi:cxx11]() const
 .text$_ZNK11StringToken6IsWideEv
                0x0000000000435fc0       0x10 C:\orangec\src\..\src\lib\mingw64/libocpplib.a(Token.o)
                0x0000000000435fc0                StringToken::IsWide() const
 .text$_ZNK11StringToken8IsStringEv
                0x0000000000435fd0       0x10 C:\orangec\src\..\src\lib\mingw64/libocpplib.a(Token.o)
                0x0000000000435fd0                StringToken::IsString() const
 .text$_ZNK11StringToken9GetStringB5cxx11Ev
                0x0000000000435fe0       0x30 C:\orangec\src\..\src\lib\mingw64/libocpplib.a(Token.o)
                0x0000000000435fe0                StringToken::GetString[abi:cxx11]() const
 .text$_ZNK12KeywordToken10GetKeywordEv
                0x0000000000436010       0x10 C:\orangec\src\..\src\lib\mingw64/libocpplib.a(Token.o)
                0x0000000000436010                KeywordToken::GetKeyword() const
 .text$_ZNK12KeywordToken7IsErrorEv
                0x0000000000436020       0x10 C:\orangec\src\..\src\lib\mingw64/libocpplib.a(Token.o)
                0x0000000000436020                KeywordToken::IsError() const
 .text$_ZNK12KeywordToken9IsKeywordEv
                0x0000000000436030       0x10 C:\orangec\src\..\src\lib\mingw64/libocpplib.a(Token.o)
                0x0000000000436030                KeywordToken::IsKeyword() const
 .text$_ZNK12NumericToken10IsFloatingEv
                0x0000000000436040       0x10 C:\orangec\src\..\src\lib\mingw64/libocpplib.a(Token.o)
                0x0000000000436040                NumericToken::IsFloating() const
 .text$_ZNK12NumericToken14GetNumericTypeEv
                0x0000000000436050       0x10 C:\orangec\src\..\src\lib\mingw64/libocpplib.a(Token.o)
                0x0000000000436050                NumericToken::GetNumericType() const
 .text$_ZNK12NumericToken9IsNumericEv
                0x0000000000436060       0x10 C:\orangec\src\..\src\lib\mingw64/libocpplib.a(Token.o)
                0x0000000000436060                NumericToken::IsNumeric() const
 .text$_ZNK14CharacterToken10GetIntegerEv
                0x0000000000436070       0x10 C:\orangec\src\..\src\lib\mingw64/libocpplib.a(Token.o)
                0x0000000000436070                CharacterToken::GetInteger() const
 .text$_ZNK14CharacterToken11IsCharacterEv
                0x0000000000436080       0x10 C:\orangec\src\..\src\lib\mingw64/libocpplib.a(Token.o)
                0x0000000000436080                CharacterToken::IsCharacter() const
 .text$_ZNK15IdentifierToken10GetKeywordEv
                0x0000000000436090       0x10 C:\orangec\src\..\src\lib\mingw64/libocpplib.a(Token.o)
                0x0000000000436090                IdentifierToken::GetKeyword() const
 .text$_ZNK15IdentifierToken12IsIdentifierEv
                0x00000000004360a0       0x10 C:\orangec\src\..\src\lib\mingw64/libocpplib.a(Token.o)
                0x00000000004360a0                IdentifierToken::IsIdentifier() const
 .text$_ZNK15IdentifierToken5GetIdB5cxx11Ev
                0x00000000004360b0       0x10 C:\orangec\src\..\src\lib\mingw64/libocpplib.a(Token.o)
                0x00000000004360b0                IdentifierToken::GetId[abi:cxx11]() const
 .text$_ZNK15IdentifierToken9IsKeywordEv
                0x00000000004360c0       0x10 C:\orangec\src\..\src\lib\mingw64/libocpplib.a(Token.o)
                0x00000000004360c0                IdentifierToken::IsKeyword() const
 .text$_ZNK5Token10GetIntegerEv
                0x00000000004360d0       0x10 C:\orangec\src\..\src\lib\mingw64/libocpplib.a(Token.o)
                0x00000000004360d0                Token::GetInteger() const
 .text$_ZNK5Token10GetKeywordEv
                0x00000000004360e0       0x10 C:\orangec\src\..\src\lib\mingw64/libocpplib.a(Token.o)
                0x00000000004360e0                Token::GetKeyword() const
 .text$_ZNK5Token10IsFloatingEv
                0x00000000004360f0       0x10 C:\orangec\src\..\src\lib\mingw64/libocpplib.a(Token.o)
                0x00000000004360f0                Token::IsFloating() const
 .text$_ZNK5Token11IsCharacterEv
                0x0000000000436100       0x10 C:\orangec\src\..\src\lib\mingw64/libocpplib.a(Token.o)
                0x0000000000436100                Token::IsCharacter() const
 .text$_ZNK5Token12GetRawStringB5cxx11Ev
                0x0000000000436110       0x40 C:\orangec\src\..\src\lib\mingw64/libocpplib.a(Token.o)
                0x0000000000436110                Token::GetRawString[abi:cxx11]() const
 .text$_ZNK5Token12IsIdentifierEv
                0x0000000000436150       0x10 C:\orangec\src\..\src\lib\mingw64/libocpplib.a(Token.o)
                0x0000000000436150                Token::IsIdentifier() const
 .text$_ZNK5Token14GetNumericTypeEv
                0x0000000000436160       0x10 C:\orangec\src\..\src\lib\mingw64/libocpplib.a(Token.o)
                0x0000000000436160                Token::GetNumericType() const
 .text$_ZNK5Token5GetIdB5cxx11Ev
                0x0000000000436170       0x80 C:\orangec\src\..\src\lib\mingw64/libocpplib.a(Token.o)
                0x0000000000436170                Token::GetId[abi:cxx11]() const
 .text$_ZNK5Token5IsEndEv
                0x00000000004361f0       0x10 C:\orangec\src\..\src\lib\mingw64/libocpplib.a(Token.o)
                0x00000000004361f0                Token::IsEnd() const
 .text$_ZNK5Token6IsWideEv
                0x0000000000436200       0x10 C:\orangec\src\..\src\lib\mingw64/libocpplib.a(Token.o)
                0x0000000000436200                Token::IsWide() const
 .text$_ZNK5Token7IsErrorEv
                0x0000000000436210       0x10 C:\orangec\src\..\src\lib\mingw64/libocpplib.a(Token.o)
                0x0000000000436210                Token::IsError() const
 .text$_ZNK5Token8GetFloatEv
                0x0000000000436220       0x10 C:\orangec\src\..\src\lib\mingw64/libocpplib.a(Token.o)
                0x0000000000436220                Token::GetFloat() const
 .text$_ZNK5Token8IsStringEv
                0x0000000000436230       0x10 C:\orangec\src\..\src\lib\mingw64/libocpplib.a(Token.o)
                0x0000000000436230                Token::IsString() const
 .text$_ZNK5Token9GetStringB5cxx11Ev
                0x0000000000436240       0x40 C:\orangec\src\..\src\lib\mingw64/libocpplib.a(Token.o)
                0x0000000000436240                Token::GetString[abi:cxx11]() const
 .text$_ZNK5Token9IsKeywordEv
                0x0000000000436280       0x10 C:\orangec\src\..\src\lib\mingw64/libocpplib.a(Token.o)
                0x0000000000436280                Token::IsKeyword() const
 .text$_ZNK5Token9IsNumericEv
                0x0000000000436290       0x10 C:\orangec\src\..\src\lib\mingw64/libocpplib.a(Token.o)
                0x0000000000436290                Token::IsNumeric() const
 .text$_ZNK8EndToken5IsEndEv
                0x00000000004362a0       0x10 C:\orangec\src\..\src\lib\mingw64/libocpplib.a(Token.o)
                0x00000000004362a0                EndToken::IsEnd() const
 .text$_ZNKSt10_HashtableINSt7__cxx1112basic_stringIcSt11char_traitsIcESaIcEEESt4pairIKS5_P6SymbolESaISA_ENSt8__detail10_Select1stESt8equal_toIS5_ESt4hashIS5_ENSC_18_Mod_range_hashingENSC_20_Default_ranged_hashENSC_20_Prime_rehash_policyENSC_17_Hashtable_traitsILb1ELb0ELb1EEEE19_M_find_before_nodeEyRS7_y
                0x00000000004362b0       0xa0 C:\orangec\src\..\src\lib\mingw64/libocpplib.a(SymbolTable.o)
                0x00000000004362b0                std::_Hashtable<std::__cxx11::basic_string<char, std::char_traits<char>, std::allocator<char> >, std::pair<std::__cxx11::basic_string<char, std::char_traits<char>, std::allocator<char> > const, Symbol*>, std::allocator<std::pair<std::__cxx11::basic_string<char, std::char_traits<char>, std::allocator<char> > const, Symbol*> >, std::__detail::_Select1st, std::equal_to<std::__cxx11::basic_string<char, std::char_traits<char>, std::allocator<char> > >, std::hash<std::__cxx11::basic_string<char, std::char_traits<char>, std::allocator<char> > >, std::__detail::_Mod_range_hashing, std::__detail::_Default_ranged_hash, std::__detail::_Prime_rehash_policy, std::__detail::_Hashtable_traits<true, false, true> >::_M_find_before_node(unsigned long long, std::__cxx11::basic_string<char, std::char_traits<char>, std::allocator<char> > const&, unsigned long long) const
 .text$_ZNKSt10_HashtableINSt7__cxx1112basic_stringIcSt11char_traitsIcESaIcEEESt4pairIKS5_P9MacroDataESaISA_ENSt8__detail10_Select1stESt8equal_toIS5_ESt4hashIS5_ENSC_18_Mod_range_hashingENSC_20_Default_ranged_hashENSC_20_Prime_rehash_policyENSC_17_Hashtable_traitsILb1ELb0ELb1EEEE19_M_find_before_nodeEyRS7_y
                0x0000000000436350       0xa0 C:\orangec\src\..\src\lib\mingw64/libocpplib.a(ppMacro.o)
                0x0000000000436350                std::_Hashtable<std::__cxx11::basic_string<char, std::char_traits<char>, std::allocator<char> >, std::pair<std::__cxx11::basic_string<char, std::char_traits<char>, std::allocator<char> > const, MacroData*>, std::allocator<std::pair<std::__cxx11::basic_string<char, std::char_traits<char>, std::allocator<char> > const, MacroData*> >, std::__detail::_Select1st, std::equal_to<std::__cxx11::basic_string<char, std::char_traits<char>, std::allocator<char> > >, std::hash<std::__cxx11::basic_string<char, std::char_traits<char>, std::allocator<char> > >, std::__detail::_Mod_range_hashing, std::__detail::_Default_ranged_hash, std::__detail::_Prime_rehash_policy, std::__detail::_Hashtable_traits<true, false, true> >::_M_find_before_node(unsigned long long, std::__cxx11::basic_string<char, std::char_traits<char>, std::allocator<char> > const&, unsigned long long) const
 .text$_ZNKSt10_HashtableINSt7__cxx1112basic_stringIcSt11char_traitsIcESaIcEEESt4pairIKS5_St5stackIPN8ppDefine10DefinitionESt5dequeISB_SaISB_EEEESaISG_ENSt8__detail10_Select1stESt8equal_toIS5_ESt4hashIS5_ENSI_18_Mod_range_hashingENSI_20_Default_ranged_hashENSI_20_Prime_rehash_policyENSI_17_Hashtable_traitsILb1ELb0ELb1EEEE19_M_find_before_nodeEyRS7_y
                0x00000000004363f0       0xa0 C:\orangec\src\..\src\lib\mingw64/libocpplib.a(ppDefine.o)
                0x00000000004363f0                std::_Hashtable<std::__cxx11::basic_string<char, std::char_traits<char>, std::allocator<char> >, std::pair<std::__cxx11::basic_string<char, std::char_traits<char>, std::allocator<char> > const, std::stack<ppDefine::Definition*, std::deque<ppDefine::Definition*, std::allocator<ppDefine::Definition*> > > >, std::allocator<std::pair<std::__cxx11::basic_string<char, std::char_traits<char>, std::allocator<char> > const, std::stack<ppDefine::Definition*, std::deque<ppDefine::Definition*, std::allocator<ppDefine::Definition*> > > > >, std::__detail::_Select1st, std::equal_to<std::__cxx11::basic_string<char, std::char_traits<char>, std::allocator<char> > >, std::hash<std::__cxx11::basic_string<char, std::char_traits<char>, std::allocator<char> > >, std::__detail::_Mod_range_hashing, std::__detail::_Default_ranged_hash, std::__detail::_Prime_rehash_policy, std::__detail::_Hashtable_traits<true, false, true> >::_M_find_before_node(unsigned long long, std::__cxx11::basic_string<char, std::char_traits<char>, std::allocator<char> > const&, unsigned long long) const
 .text$_ZNKSt10_HashtableINSt7__cxx1112basic_stringIcSt11char_traitsIcESaIcEEESt4pairIKS5_iESaIS8_ENSt8__detail10_Select1stESt8equal_toIS5_ESt4hashIS5_ENSA_18_Mod_range_hashingENSA_20_Default_ranged_hashENSA_20_Prime_rehash_policyENSA_17_Hashtable_traitsILb1ELb0ELb1EEEE19_M_find_before_nodeEyRS7_y
                0x0000000000436490       0xa0 C:\orangec\src\..\src\lib\mingw64/libocpplib.a(ppInclude.o)
                0x0000000000436490                std::_Hashtable<std::__cxx11::basic_string<char, std::char_traits<char>, std::allocator<char> >, std::pair<std::__cxx11::basic_string<char, std::char_traits<char>, std::allocator<char> > const, int>, std::allocator<std::pair<std::__cxx11::basic_string<char, std::char_traits<char>, std::allocator<char> > const, int> >, std::__detail::_Select1st, std::equal_to<std::__cxx11::basic_string<char, std::char_traits<char>, std::allocator<char> > >, std::hash<std::__cxx11::basic_string<char, std::char_traits<char>, std::allocator<char> > >, std::__detail::_Mod_range_hashing, std::__detail::_Default_ranged_hash, std::__detail::_Prime_rehash_policy, std::__detail::_Hashtable_traits<true, false, true> >::_M_find_before_node(unsigned long long, std::__cxx11::basic_string<char, std::char_traits<char>, std::allocator<char> > const&, unsigned long long) const
 .text$_ZNKSt5ctypeIcE8do_widenEc
                0x0000000000436530       0x10 C:\orangec\src\ocpp\obj\mingw64\ppMain.o
                0x0000000000436530                std::ctype<char>::do_widen(char) const
 .text$_ZNSt10_HashtableINSt7__cxx1112basic_stringIcSt11char_traitsIcESaIcEEESt4pairIKS5_2kwESaIS9_ENSt8__detail10_Select1stESt8equal_toIS5_ESt4hashIS5_ENSB_18_Mod_range_hashingENSB_20_Default_ranged_hashENSB_20_Prime_rehash_policyENSB_17_Hashtable_traitsILb1ELb0ELb1EEEE21_M_insert_unique_nodeEyyPNSB_10_Hash_nodeIS9_Lb1EEEy
                0x0000000000436540      0x200 C:\orangec\src\..\src\lib\mingw64/libocpplib.a(PreProcessor.o)
                0x0000000000436540                std::_Hashtable<std::__cxx11::basic_string<char, std::char_traits<char>, std::allocator<char> >, std::pair<std::__cxx11::basic_string<char, std::char_traits<char>, std::allocator<char> > const, kw>, std::allocator<std::pair<std::__cxx11::basic_string<char, std::char_traits<char>, std::allocator<char> > const, kw> >, std::__detail::_Select1st, std::equal_to<std::__cxx11::basic_string<char, std::char_traits<char>, std::allocator<char> > >, std::hash<std::__cxx11::basic_string<char, std::char_traits<char>, std::allocator<char> > >, std::__detail::_Mod_range_hashing, std::__detail::_Default_ranged_hash, std::__detail::_Prime_rehash_policy, std::__detail::_Hashtable_traits<true, false, true> >::_M_insert_unique_node(unsigned long long, unsigned long long, std::__detail::_Hash_node<std::pair<std::__cxx11::basic_string<char, std::char_traits<char>, std::allocator<char> > const, kw>, true>*, unsigned long long)
 .text$_ZNSt10_HashtableINSt7__cxx1112basic_stringIcSt11char_traitsIcESaIcEEESt4pairIKS5_2kwESaIS9_ENSt8__detail10_Select1stESt8equal_toIS5_ESt4hashIS5_ENSB_18_Mod_range_hashingENSB_20_Default_ranged_hashENSB_20_Prime_rehash_policyENSB_17_Hashtable_traitsILb1ELb0ELb1EEEE4findERS7_
                0x0000000000436740       0xc0 C:\orangec\src\..\src\lib\mingw64/libocpplib.a(Token.o)
                0x0000000000436740                std::_Hashtable<std::__cxx11::basic_string<char, std::char_traits<char>, std::allocator<char> >, std::pair<std::__cxx11::basic_string<char, std::char_traits<char>, std::allocator<char> > const, kw>, std::allocator<std::pair<std::__cxx11::basic_string<char, std::char_traits<char>, std::allocator<char> > const, kw> >, std::__detail::_Select1st, std::equal_to<std::__cxx11::basic_string<char, std::char_traits<char>, std::allocator<char> > >, std::hash<std::__cxx11::basic_string<char, std::char_traits<char>, std::allocator<char> > >, std::__detail::_Mod_range_hashing, std::__detail::_Default_ranged_hash, std::__detail::_Prime_rehash_policy, std::__detail::_Hashtable_traits<true, false, true> >::find(std::__cxx11::basic_string<char, std::char_traits<char>, std::allocator<char> > const&)
 .text$_ZNSt10_HashtableINSt7__cxx1112basic_stringIcSt11char_traitsIcESaIcEEESt4pairIKS5_2kwESaIS9_ENSt8__detail10_Select1stESt8equal_toIS5_ESt4hashIS5_ENSB_18_Mod_range_hashingENSB_20_Default_ranged_hashENSB_20_Prime_rehash_policyENSB_17_Hashtable_traitsILb1ELb0ELb1EEEE9_M_rehashEyRKy
                0x0000000000436800      0x100 C:\orangec\src\..\src\lib\mingw64/libocpplib.a(ppDefine.o)
                0x0000000000436800                std::_Hashtable<std::__cxx11::basic_string<char, std::char_traits<char>, std::allocator<char> >, std::pair<std::__cxx11::basic_string<char, std::char_traits<char>, std::allocator<char> > const, kw>, std::allocator<std::pair<std::__cxx11::basic_string<char, std::char_traits<char>, std::allocator<char> > const, kw> >, std::__detail::_Select1st, std::equal_to<std::__cxx11::basic_string<char, std::char_traits<char>, std::allocator<char> > >, std::hash<std::__cxx11::basic_string<char, std::char_traits<char>, std::allocator<char> > >, std::__detail::_Mod_range_hashing, std::__detail::_Default_ranged_hash, std::__detail::_Prime_rehash_policy, std::__detail::_Hashtable_traits<true, false, true> >::_M_rehash(unsigned long long, unsigned long long const&)
 .text$_ZNSt10_HashtableINSt7__cxx1112basic_stringIcSt11char_traitsIcESaIcEEESt4pairIKS5_2kwESaIS9_ENSt8__detail10_Select1stESt8equal_toIS5_ESt4hashIS5_ENSB_18_Mod_range_hashingENSB_20_Default_ranged_hashENSB_20_Prime_rehash_policyENSB_17_Hashtable_traitsILb1ELb0ELb1EEEEC1IPKS9_EET_SQ_yRKSG_RKSH_RKSI_RKSE_RKSC_RKSA_
                0x0000000000436900      0x340 C:\orangec\src\..\src\lib\mingw64/libocpplib.a(ppDefine.o)
                0x0000000000436900                std::_Hashtable<std::__cxx11::basic_string<char, std::char_traits<char>, std::allocator<char> >, std::pair<std::__cxx11::basic_string<char, std::char_traits<char>, std::allocator<char> > const, kw>, std::allocator<std::pair<std::__cxx11::basic_string<char, std::char_traits<char>, std::allocator<char> > const, kw> >, std::__detail::_Select1st, std::equal_to<std::__cxx11::basic_string<char, std::char_traits<char>, std::allocator<char> > >, std::hash<std::__cxx11::basic_string<char, std::char_traits<char>, std::allocator<char> > >, std::__detail::_Mod_range_hashing, std::__detail::_Default_ranged_hash, std::__detail::_Prime_rehash_policy, std::__detail::_Hashtable_traits<true, false, true> >::_Hashtable<std::pair<std::__cxx11::basic_string<char, std::char_traits<char>, std::allocator<char> > const, kw> const*>(std::pair<std::__cxx11::basic_string<char, std::char_traits<char>, std::allocator<char> > const, kw> const*, std::pair<std::__cxx11::basic_string<char, std::char_traits<char>, std::allocator<char> > const, kw> const*, unsigned long long, std::hash<std::__cxx11::basic_string<char, std::char_traits<char>, std::allocator<char> > > const&, std::__detail::_Mod_range_hashing const&, std::__detail::_Default_ranged_hash const&, std::equal_to<std::__cxx11::basic_string<char, std::char_traits<char>, std::allocator<char> > > const&, std::__detail::_Select1st const&, std::allocator<std::pair<std::__cxx11::basic_string<char, std::char_traits<char>, std::allocator<char> > const, kw> > const&)
 .text$_ZNSt10_HashtableINSt7__cxx1112basic_stringIcSt11char_traitsIcESaIcEEESt4pairIKS5_2kwESaIS9_ENSt8__detail10_Select1stESt8equal_toIS5_ESt4hashIS5_ENSB_18_Mod_range_hashingENSB_20_Default_ranged_hashENSB_20_Prime_rehash_policyENSB_17_Hashtable_traitsILb1ELb0ELb1EEEED1Ev
                0x0000000000436c40       0x80 C:\orangec\src\ocpp\obj\mingw64\ppMain.o
                0x0000000000436c40                std::_Hashtable<std::__cxx11::basic_string<char, std::char_traits<char>, std::allocator<char> >, std::pair<std::__cxx11::basic_string<char, std::char_traits<char>, std::allocator<char> > const, kw>, std::allocator<std::pair<std::__cxx11::basic_string<char, std::char_traits<char>, std::allocator<char> > const, kw> >, std::__detail::_Select1st, std::equal_to<std::__cxx11::basic_string<char, std::char_traits<char>, std::allocator<char> > >, std::hash<std::__cxx11::basic_string<char, std::char_traits<char>, std::allocator<char> > >, std::__detail::_Mod_range_hashing, std::__detail::_Default_ranged_hash, std::__detail::_Prime_rehash_policy, std::__detail::_Hashtable_traits<true, false, true> >::~_Hashtable()
 .text$_ZNSt10_HashtableINSt7__cxx1112basic_stringIcSt11char_traitsIcESaIcEEESt4pairIKS5_P6SymbolESaISA_ENSt8__detail10_Select1stESt8equal_toIS5_ESt4hashIS5_ENSC_18_Mod_range_hashingENSC_20_Default_ranged_hashENSC_20_Prime_rehash_policyENSC_17_Hashtable_traitsILb1ELb0ELb1EEEE21_M_insert_unique_nodeEyyPNSC_10_Hash_nodeISA_Lb1EEEy
                0x0000000000436cc0      0x1f0 C:\orangec\src\..\src\lib\mingw64/libocpplib.a(SymbolTable.o)
                0x0000000000436cc0                std::_Hashtable<std::__cxx11::basic_string<char, std::char_traits<char>, std::allocator<char> >, std::pair<std::__cxx11::basic_string<char, std::char_traits<char>, std::allocator<char> > const, Symbol*>, std::allocator<std::pair<std::__cxx11::basic_string<char, std::char_traits<char>, std::allocator<char> > const, Symbol*> >, std::__detail::_Select1st, std::equal_to<std::__cxx11::basic_string<char, std::char_traits<char>, std::allocator<char> > >, std::hash<std::__cxx11::basic_string<char, std::char_traits<char>, std::allocator<char> > >, std::__detail::_Mod_range_hashing, std::__detail::_Default_ranged_hash, std::__detail::_Prime_rehash_policy, std::__detail::_Hashtable_traits<true, false, true> >::_M_insert_unique_node(unsigned long long, unsigned long long, std::__detail::_Hash_node<std::pair<std::__cxx11::basic_string<char, std::char_traits<char>, std::allocator<char> > const, Symbol*>, true>*, unsigned long long)
 .text$_ZNSt10_HashtableINSt7__cxx1112basic_stringIcSt11char_traitsIcESaIcEEESt4pairIKS5_P6SymbolESaISA_ENSt8__detail10_Select1stESt8equal_toIS5_ESt4hashIS5_ENSC_18_Mod_range_hashingENSC_20_Default_ranged_hashENSC_20_Prime_rehash_policyENSC_17_Hashtable_traitsILb1ELb0ELb1EEEE4findERS7_
                0x0000000000436eb0       0xc0 C:\orangec\src\..\src\lib\mingw64/libocpplib.a(ppDefine.o)
                0x0000000000436eb0                std::_Hashtable<std::__cxx11::basic_string<char, std::char_traits<char>, std::allocator<char> >, std::pair<std::__cxx11::basic_string<char, std::char_traits<char>, std::allocator<char> > const, Symbol*>, std::allocator<std::pair<std::__cxx11::basic_string<char, std::char_traits<char>, std::allocator<char> > const, Symbol*> >, std::__detail::_Select1st, std::equal_to<std::__cxx11::basic_string<char, std::char_traits<char>, std::allocator<char> > >, std::hash<std::__cxx11::basic_string<char, std::char_traits<char>, std::allocator<char> > >, std::__detail::_Mod_range_hashing, std::__detail::_Default_ranged_hash, std::__detail::_Prime_rehash_policy, std::__detail::_Hashtable_traits<true, false, true> >::find(std::__cxx11::basic_string<char, std::char_traits<char>, std::allocator<char> > const&)
 .text$_ZNSt10_HashtableINSt7__cxx1112basic_stringIcSt11char_traitsIcESaIcEEESt4pairIKS5_P6SymbolESaISA_ENSt8__detail10_Select1stESt8equal_toIS5_ESt4hashIS5_ENSC_18_Mod_range_hashingENSC_20_Default_ranged_hashENSC_20_Prime_rehash_policyENSC_17_Hashtable_traitsILb1ELb0ELb1EEEED1Ev
                0x0000000000436f70       0x70 C:\orangec\src\..\src\lib\mingw64/libocpplib.a(SymbolTable.o)
                0x0000000000436f70                std::_Hashtable<std::__cxx11::basic_string<char, std::char_traits<char>, std::allocator<char> >, std::pair<std::__cxx11::basic_string<char, std::char_traits<char>, std::allocator<char> > const, Symbol*>, std::allocator<std::pair<std::__cxx11::basic_string<char, std::char_traits<char>, std::allocator<char> > const, Symbol*> >, std::__detail::_Select1st, std::equal_to<std::__cxx11::basic_string<char, std::char_traits<char>, std::allocator<char> > >, std::hash<std::__cxx11::basic_string<char, std::char_traits<char>, std::allocator<char> > >, std::__detail::_Mod_range_hashing, std::__detail::_Default_ranged_hash, std::__detail::_Prime_rehash_policy, std::__detail::_Hashtable_traits<true, false, true> >::~_Hashtable()
 .text$_ZNSt10_HashtableINSt7__cxx1112basic_stringIcSt11char_traitsIcESaIcEEESt4pairIKS5_P9MacroDataESaISA_ENSt8__detail10_Select1stESt8equal_toIS5_ESt4hashIS5_ENSC_18_Mod_range_hashingENSC_20_Default_ranged_hashENSC_20_Prime_rehash_policyENSC_17_Hashtable_traitsILb1ELb0ELb1EEEE21_M_insert_unique_nodeEyyPNSC_10_Hash_nodeISA_Lb1EEEy
                0x0000000000436fe0      0x200 C:\orangec\src\..\src\lib\mingw64/libocpplib.a(ppMacro.o)
                0x0000000000436fe0                std::_Hashtable<std::__cxx11::basic_string<char, std::char_traits<char>, std::allocator<char> >, std::pair<std::__cxx11::basic_string<char, std::char_traits<char>, std::allocator<char> > const, MacroData*>, std::allocator<std::pair<std::__cxx11::basic_string<char, std::char_traits<char>, std::allocator<char> > const, MacroData*> >, std::__detail::_Select1st, std::equal_to<std::__cxx11::basic_string<char, std::char_traits<char>, std::allocator<char> > >, std::hash<std::__cxx11::basic_string<char, std::char_traits<char>, std::allocator<char> > >, std::__detail::_Mod_range_hashing, std::__detail::_Default_ranged_hash, std::__detail::_Prime_rehash_policy, std::__detail::_Hashtable_traits<true, false, true> >::_M_insert_unique_node(unsigned long long, unsigned long long, std::__detail::_Hash_node<std::pair<std::__cxx11::basic_string<char, std::char_traits<char>, std::allocator<char> > const, MacroData*>, true>*, unsigned long long)
 .text$_ZNSt10_HashtableINSt7__cxx1112basic_stringIcSt11char_traitsIcESaIcEEESt4pairIKS5_P9MacroDataESaISA_ENSt8__detail10_Select1stESt8equal_toIS5_ESt4hashIS5_ENSC_18_Mod_range_hashingENSC_20_Default_ranged_hashENSC_20_Prime_rehash_policyENSC_17_Hashtable_traitsILb1ELb0ELb1EEEE4findERS7_
                0x00000000004371e0       0x60 C:\orangec\src\..\src\lib\mingw64/libocpplib.a(ppMacro.o)
                0x00000000004371e0                std::_Hashtable<std::__cxx11::basic_string<char, std::char_traits<char>, std::allocator<char> >, std::pair<std::__cxx11::basic_string<char, std::char_traits<char>, std::allocator<char> > const, MacroData*>, std::allocator<std::pair<std::__cxx11::basic_string<char, std::char_traits<char>, std::allocator<char> > const, MacroData*> >, std::__detail::_Select1st, std::equal_to<std::__cxx11::basic_string<char, std::char_traits<char>, std::allocator<char> > >, std::hash<std::__cxx11::basic_string<char, std::char_traits<char>, std::allocator<char> > >, std::__detail::_Mod_range_hashing, std::__detail::_Default_ranged_hash, std::__detail::_Prime_rehash_policy, std::__detail::_Hashtable_traits<true, false, true> >::find(std::__cxx11::basic_string<char, std::char_traits<char>, std::allocator<char> > const&)
 .text$_ZNSt10_HashtableINSt7__cxx1112basic_stringIcSt11char_traitsIcESaIcEEESt4pairIKS5_S5_ESaIS8_ENSt8__detail10_Select1stESt8equal_toIS5_ESt4hashIS5_ENSA_18_Mod_range_hashingENSA_20_Default_ranged_hashENSA_20_Prime_rehash_policyENSA_17_Hashtable_traitsILb1ELb0ELb1EEEE9_M_rehashEyRKy
                0x0000000000437240      0x100 C:\orangec\src\..\src\lib\mingw64/libocpplib.a(ppPragma.o)
                0x0000000000437240                std::_Hashtable<std::__cxx11::basic_string<char, std::char_traits<char>, std::allocator<char> >, std::pair<std::__cxx11::basic_string<char, std::char_traits<char>, std::allocator<char> > const, std::__cxx11::basic_string<char, std::char_traits<char>, std::allocator<char> > >, std::allocator<std::pair<std::__cxx11::basic_string<char, std::char_traits<char>, std::allocator<char> > const, std::__cxx11::basic_string<char, std::char_traits<char>, std::allocator<char> > > >, std::__detail::_Select1st, std::equal_to<std::__cxx11::basic_string<char, std::char_traits<char>, std::allocator<char> > >, std::hash<std::__cxx11::basic_string<char, std::char_traits<char>, std::allocator<char> > >, std::__detail::_Mod_range_hashing, std::__detail::_Default_ranged_hash, std::__detail::_Prime_rehash_policy, std::__detail::_Hashtable_traits<true, false, true> >::_M_rehash(unsigned long long, unsigned long long const&)
 .text$_ZNSt10_HashtableINSt7__cxx1112basic_stringIcSt11char_traitsIcESaIcEEESt4pairIKS5_St5stackIPN8ppDefine10DefinitionESt5dequeISB_SaISB_EEEESaISG_ENSt8__detail10_Select1stESt8equal_toIS5_ESt4hashIS5_ENSI_18_Mod_range_hashingENSI_20_Default_ranged_hashENSI_20_Prime_rehash_policyENSI_17_Hashtable_traitsILb1ELb0ELb1EEEE4findERS7_
                0x0000000000437340       0x60 C:\orangec\src\..\src\lib\mingw64/libocpplib.a(ppDefine.o)
                0x0000000000437340                std::_Hashtable<std::__cxx11::basic_string<char, std::char_traits<char>, std::allocator<char> >, std::pair<std::__cxx11::basic_string<char, std::char_traits<char>, std::allocator<char> > const, std::stack<ppDefine::Definition*, std::deque<ppDefine::Definition*, std::allocator<ppDefine::Definition*> > > >, std::allocator<std::pair<std::__cxx11::basic_string<char, std::char_traits<char>, std::allocator<char> > const, std::stack<ppDefine::Definition*, std::deque<ppDefine::Definition*, std::allocator<ppDefine::Definition*> > > > >, std::__detail::_Select1st, std::equal_to<std::__cxx11::basic_string<char, std::char_traits<char>, std::allocator<char> > >, std::hash<std::__cxx11::basic_string<char, std::char_traits<char>, std::allocator<char> > >, std::__detail::_Mod_range_hashing, std::__detail::_Default_ranged_hash, std::__detail::_Prime_rehash_policy, std::__detail::_Hashtable_traits<true, false, true> >::find(std::__cxx11::basic_string<char, std::char_traits<char>, std::allocator<char> > const&)
 .text$_ZNSt10_HashtableINSt7__cxx1112basic_stringIcSt11char_traitsIcESaIcEEESt4pairIKS5_St5stackIPN8ppDefine10DefinitionESt5dequeISB_SaISB_EEEESaISG_ENSt8__detail10_Select1stESt8equal_toIS5_ESt4hashIS5_ENSI_18_Mod_range_hashingENSI_20_Default_ranged_hashENSI_20_Prime_rehash_policyENSI_17_Hashtable_traitsILb1ELb0ELb1EEEE9_M_rehashEyRKy
                0x00000000004373a0      0x100 C:\orangec\src\..\src\lib\mingw64/libocpplib.a(ppDefine.o)
                0x00000000004373a0                std::_Hashtable<std::__cxx11::basic_string<char, std::char_traits<char>, std::allocator<char> >, std::pair<std::__cxx11::basic_string<char, std::char_traits<char>, std::allocator<char> > const, std::stack<ppDefine::Definition*, std::deque<ppDefine::Definition*, std::allocator<ppDefine::Definition*> > > >, std::allocator<std::pair<std::__cxx11::basic_string<char, std::char_traits<char>, std::allocator<char> > const, std::stack<ppDefine::Definition*, std::deque<ppDefine::Definition*, std::allocator<ppDefine::Definition*> > > > >, std::__detail::_Select1st, std::equal_to<std::__cxx11::basic_string<char, std::char_traits<char>, std::allocator<char> > >, std::hash<std::__cxx11::basic_string<char, std::char_traits<char>, std::allocator<char> > >, std::__detail::_Mod_range_hashing, std::__detail::_Default_ranged_hash, std::__detail::_Prime_rehash_policy, std::__detail::_Hashtable_traits<true, false, true> >::_M_rehash(unsigned long long, unsigned long long const&)
 .text$_ZNSt10_HashtableINSt7__cxx1112basic_stringIcSt11char_traitsIcESaIcEEESt4pairIKS5_St5stackIPN8ppDefine10DefinitionESt5dequeISB_SaISB_EEEESaISG_ENSt8__detail10_Select1stESt8equal_toIS5_ESt4hashIS5_ENSI_18_Mod_range_hashingENSI_20_Default_ranged_hashENSI_20_Prime_rehash_policyENSI_17_Hashtable_traitsILb1ELb0ELb1EEEED1Ev
                0x00000000004374a0       0xd0 C:\orangec\src\ocpp\obj\mingw64\ppMain.o
                0x00000000004374a0                std::_Hashtable<std::__cxx11::basic_string<char, std::char_traits<char>, std::allocator<char> >, std::pair<std::__cxx11::basic_string<char, std::char_traits<char>, std::allocator<char> > const, std::stack<ppDefine::Definition*, std::deque<ppDefine::Definition*, std::allocator<ppDefine::Definition*> > > >, std::allocator<std::pair<std::__cxx11::basic_string<char, std::char_traits<char>, std::allocator<char> > const, std::stack<ppDefine::Definition*, std::deque<ppDefine::Definition*, std::allocator<ppDefine::Definition*> > > > >, std::__detail::_Select1st, std::equal_to<std::__cxx11::basic_string<char, std::char_traits<char>, std::allocator<char> > >, std::hash<std::__cxx11::basic_string<char, std::char_traits<char>, std::allocator<char> > >, std::__detail::_Mod_range_hashing, std::__detail::_Default_ranged_hash, std::__detail::_Prime_rehash_policy, std::__detail::_Hashtable_traits<true, false, true> >::~_Hashtable()
 .text$_ZNSt10_HashtableINSt7__cxx1112basic_stringIcSt11char_traitsIcESaIcEEESt4pairIKS5_iESaIS8_ENSt8__detail10_Select1stESt8equal_toIS5_ESt4hashIS5_ENSA_18_Mod_range_hashingENSA_20_Default_ranged_hashENSA_20_Prime_rehash_policyENSA_17_Hashtable_traitsILb1ELb0ELb1EEEE21_M_insert_unique_nodeEyyPNSA_10_Hash_nodeIS8_Lb1EEEy
                0x0000000000437570      0x200 C:\orangec\src\..\src\lib\mingw64/libocpplib.a(ppInclude.o)
                0x0000000000437570                std::_Hashtable<std::__cxx11::basic_string<char, std::char_traits<char>, std::allocator<char> >, std::pair<std::__cxx11::basic_string<char, std::char_traits<char>, std::allocator<char> > const, int>, std::allocator<std::pair<std::__cxx11::basic_string<char, std::char_traits<char>, std::allocator<char> > const, int> >, std::__detail::_Select1st, std::equal_to<std::__cxx11::basic_string<char, std::char_traits<char>, std::allocator<char> > >, std::hash<std::__cxx11::basic_string<char, std::char_traits<char>, std::allocator<char> > >, std::__detail::_Mod_range_hashing, std::__detail::_Default_ranged_hash, std::__detail::_Prime_rehash_policy, std::__detail::_Hashtable_traits<true, false, true> >::_M_insert_unique_node(unsigned long long, unsigned long long, std::__detail::_Hash_node<std::pair<std::__cxx11::basic_string<char, std::char_traits<char>, std::allocator<char> > const, int>, true>*, unsigned long long)
 .text$_ZNSt11_Deque_baseINSt7__cxx1112basic_stringIcSt11char_traitsIcESaIcEEESaIS5_EE17_M_initialize_mapEy
                0x0000000000437770      0x130 C:\orangec\src\ocpp\obj\mingw64\ppMain.o
                0x0000000000437770                std::_Deque_base<std::__cxx11::basic_string<char, std::char_traits<char>, std::allocator<char> >, std::allocator<std::__cxx11::basic_string<char, std::char_traits<char>, std::allocator<char> > > >::_M_initialize_map(unsigned long long)
 .text$_ZNSt11_Deque_baseINSt7__cxx1112basic_stringIcSt11char_traitsIcESaIcEEESaIS5_EED2Ev
                0x00000000004378a0       0x50 C:\orangec\src\ocpp\obj\mingw64\ppMain.o
                0x00000000004378a0                std::_Deque_base<std::__cxx11::basic_string<char, std::char_traits<char>, std::allocator<char> >, std::allocator<std::__cxx11::basic_string<char, std::char_traits<char>, std::allocator<char> > > >::~_Deque_base()
 .text$_ZNSt11_Deque_baseIPN8ppDefine10DefinitionESaIS2_EE17_M_initialize_mapEy
                0x00000000004378f0      0x130 C:\orangec\src\..\src\lib\mingw64/libocpplib.a(ppDefine.o)
                0x00000000004378f0                std::_Deque_base<ppDefine::Definition*, std::allocator<ppDefine::Definition*> >::_M_initialize_map(unsigned long long)
 .text$_ZNSt11_Deque_baseIPN8ppDefine10DefinitionESaIS2_EED2Ev
                0x0000000000437a20       0x50 C:\orangec\src\..\src\lib\mingw64/libocpplib.a(ppDefine.o)
                0x0000000000437a20                std::_Deque_base<ppDefine::Definition*, std::allocator<ppDefine::Definition*> >::~_Deque_base()
 .text$_ZNSt11_Deque_baseISt10unique_ptrI6SymbolSt14default_deleteIS1_EESaIS4_EED2Ev
                0x0000000000437a70       0x50 C:\orangec\src\..\src\lib\mingw64/libocpplib.a(SymbolTable.o)
                0x0000000000437a70                std::_Deque_base<std::unique_ptr<Symbol, std::default_delete<Symbol> >, std::allocator<std::unique_ptr<Symbol, std::default_delete<Symbol> > > >::~_Deque_base()
 .text$_ZNSt11_Deque_baseIbSaIbEE17_M_initialize_mapEy
                0x0000000000437ac0      0x130 C:\orangec\src\ocpp\obj\mingw64\ppMain.o
                0x0000000000437ac0                std::_Deque_base<bool, std::allocator<bool> >::_M_initialize_map(unsigned long long)
 .text$_ZNSt11_Deque_baseIbSaIbEED2Ev
                0x0000000000437bf0       0x50 C:\orangec\src\ocpp\obj\mingw64\ppMain.o
                0x0000000000437bf0                std::_Deque_base<bool, std::allocator<bool> >::~_Deque_base()
 .text$_ZNSt11_Deque_baseIiSaIiEE17_M_initialize_mapEy
                0x0000000000437c40      0x130 C:\orangec\src\ocpp\obj\mingw64\ppMain.o
                0x0000000000437c40                std::_Deque_base<int, std::allocator<int> >::_M_initialize_map(unsigned long long)
 .text$_ZNSt11_Deque_baseIiSaIiEED2Ev
                0x0000000000437d70       0x50 C:\orangec\src\ocpp\obj\mingw64\ppMain.o
                0x0000000000437d70                std::_Deque_base<int, std::allocator<int> >::~_Deque_base()
 .text$_ZNSt5dequeIN8ppDefine8TokenPosESaIS1_EE16_M_push_back_auxIJRKS1_EEEvDpOT_
                0x0000000000437dc0      0x1b0 C:\orangec\src\..\src\lib\mingw64/libocpplib.a(ppDefine.o)
                0x0000000000437dc0                void std::deque<ppDefine::TokenPos, std::allocator<ppDefine::TokenPos> >::_M_push_back_aux<ppDefine::TokenPos const&>(ppDefine::TokenPos const&)
 .text$_ZNSt5dequeINSt7__cxx1112basic_stringIcSt11char_traitsIcESaIcEEESaIS5_EE19_M_range_initializeIPKS5_EEvT_SB_St20forward_iterator_tag
                0x0000000000437f70      0x1c0 C:\orangec\src\ocpp\obj\mingw64\ppMain.o
                0x0000000000437f70                void std::deque<std::__cxx11::basic_string<char, std::char_traits<char>, std::allocator<char> >, std::allocator<std::__cxx11::basic_string<char, std::char_traits<char>, std::allocator<char> > > >::_M_range_initialize<std::__cxx11::basic_string<char, std::char_traits<char>, std::allocator<char> > const*>(std::__cxx11::basic_string<char, std::char_traits<char>, std::allocator<char> > const*, std::__cxx11::basic_string<char, std::char_traits<char>, std::allocator<char> > const*, std::forward_iterator_tag)
 .text$_ZNSt5dequeINSt7__cxx1112basic_stringIcSt11char_traitsIcESaIcEEESaIS5_EED1Ev
                0x0000000000438130      0x100 C:\orangec\src\ocpp\obj\mingw64\ppMain.o
                0x0000000000438130                std::deque<std::__cxx11::basic_string<char, std::char_traits<char>, std::allocator<char> >, std::allocator<std::__cxx11::basic_string<char, std::char_traits<char>, std::allocator<char> > > >::~deque()
 .text$_ZNSt5dequeIPN8ppDefine10DefinitionESaIS2_EE16_M_push_back_auxIJRKS2_EEEvDpOT_
                0x0000000000438230      0x1b0 C:\orangec\src\..\src\lib\mingw64/libocpplib.a(ppDefine.o)
                0x0000000000438230                void std::deque<ppDefine::Definition*, std::allocator<ppDefine::Definition*> >::_M_push_back_aux<ppDefine::Definition* const&>(ppDefine::Definition* const&)
 .text$_ZNSt5dequeISt10unique_ptrI6SymbolSt14default_deleteIS1_EESaIS4_EE16_M_push_back_auxIJS4_EEEvDpOT_
                0x00000000004383e0      0x1b0 C:\orangec\src\..\src\lib\mingw64/libocpplib.a(SymbolTable.o)
                0x00000000004383e0                void std::deque<std::unique_ptr<Symbol, std::default_delete<Symbol> >, std::allocator<std::unique_ptr<Symbol, std::default_delete<Symbol> > > >::_M_push_back_aux<std::unique_ptr<Symbol, std::default_delete<Symbol> > >(std::unique_ptr<Symbol, std::default_delete<Symbol> >&&)
 .text$_ZNSt5dequeISt10unique_ptrI6SymbolSt14default_deleteIS1_EESaIS4_EE19_M_destroy_data_auxESt15_Deque_iteratorIS4_RS4_PS4_ESA_
                0x0000000000438590      0x260 C:\orangec\src\..\src\lib\mingw64/libocpplib.a(SymbolTable.o)
                0x0000000000438590                std::deque<std::unique_ptr<Symbol, std::default_delete<Symbol> >, std::allocator<std::unique_ptr<Symbol, std::default_delete<Symbol> > > >::_M_destroy_data_aux(std::_Deque_iterator<std::unique_ptr<Symbol, std::default_delete<Symbol> >, std::unique_ptr<Symbol, std::default_delete<Symbol> >&, std::unique_ptr<Symbol, std::default_delete<Symbol> >*>, std::_Deque_iterator<std::unique_ptr<Symbol, std::default_delete<Symbol> >, std::unique_ptr<Symbol, std::default_delete<Symbol> >&, std::unique_ptr<Symbol, std::default_delete<Symbol> >*>)
 .text$_ZNSt5dequeISt10unique_ptrI6SymbolSt14default_deleteIS1_EESaIS4_EE8_M_eraseESt15_Deque_iteratorIS4_RS4_PS4_E
                0x00000000004387f0      0x820 C:\orangec\src\..\src\lib\mingw64/libocpplib.a(SymbolTable.o)
                0x00000000004387f0                std::deque<std::unique_ptr<Symbol, std::default_delete<Symbol> >, std::allocator<std::unique_ptr<Symbol, std::default_delete<Symbol> > > >::_M_erase(std::_Deque_iterator<std::unique_ptr<Symbol, std::default_delete<Symbol> >, std::unique_ptr<Symbol, std::default_delete<Symbol> >&, std::unique_ptr<Symbol, std::default_delete<Symbol> >*>)
 .text$_ZNSt5dequeISt10unique_ptrI7CtxDataSt14default_deleteIS1_EESaIS4_EE17_M_push_front_auxIJS4_EEEvDpOT_
                0x0000000000439010      0x1b0 C:\orangec\src\..\src\lib\mingw64/libocpplib.a(ppCtx.o)
                0x0000000000439010                void std::deque<std::unique_ptr<CtxData, std::default_delete<CtxData> >, std::allocator<std::unique_ptr<CtxData, std::default_delete<CtxData> > > >::_M_push_front_aux<std::unique_ptr<CtxData, std::default_delete<CtxData> > >(std::unique_ptr<CtxData, std::default_delete<CtxData> >&&)
 .text$_ZNSt5dequeISt10unique_ptrIN6ppCond4skipESt14default_deleteIS2_EESaIS5_EE17_M_push_front_auxIJS5_EEEvDpOT_
                0x00000000004391c0      0x1b0 C:\orangec\src\..\src\lib\mingw64/libocpplib.a(ppCond.o)
                0x00000000004391c0                void std::deque<std::unique_ptr<ppCond::skip, std::default_delete<ppCond::skip> >, std::allocator<std::unique_ptr<ppCond::skip, std::default_delete<ppCond::skip> > > >::_M_push_front_aux<std::unique_ptr<ppCond::skip, std::default_delete<ppCond::skip> > >(std::unique_ptr<ppCond::skip, std::default_delete<ppCond::skip> >&&)
 .text$_ZNSt5dequeISt10unique_ptrIN6ppCond4skipESt14default_deleteIS2_EESaIS5_EED1Ev
                0x0000000000439370      0x150 C:\orangec\src\..\src\lib\mingw64/libocpplib.a(ppInclude.o)
                0x0000000000439370                std::deque<std::unique_ptr<ppCond::skip, std::default_delete<ppCond::skip> >, std::allocator<std::unique_ptr<ppCond::skip, std::default_delete<ppCond::skip> > > >::~deque()
 .text$_ZNSt5dequeISt3mapIiiSt4lessIiESaISt4pairIKiiEEESaIS7_EE16_M_push_back_auxIJRKS7_EEEvDpOT_
                0x00000000004394c0      0x250 C:\orangec\src\..\src\lib\mingw64/libocpplib.a(ppPragma.o)
                0x00000000004394c0                void std::deque<std::map<int, int, std::less<int>, std::allocator<std::pair<int const, int> > >, std::allocator<std::map<int, int, std::less<int>, std::allocator<std::pair<int const, int> > > > >::_M_push_back_aux<std::map<int, int, std::less<int>, std::allocator<std::pair<int const, int> > > const&>(std::map<int, int, std::less<int>, std::allocator<std::pair<int const, int> > > const&)
 .text$_ZNSt5dequeIbSaIbEE16_M_push_back_auxIJRKbEEEvDpOT_
                0x0000000000439710       0x90 C:\orangec\src\..\src\lib\mingw64/libocpplib.a(ppPragma.o)
                0x0000000000439710                void std::deque<bool, std::allocator<bool> >::_M_push_back_aux<bool const&>(bool const&)
 .text$_ZNSt5dequeIbSaIbEE16_M_push_back_auxIJbEEEvDpOT_
                0x00000000004397a0      0x1b0 C:\orangec\src\ocpp\obj\mingw64\ppMain.o
                0x00000000004397a0                void std::deque<bool, std::allocator<bool> >::_M_push_back_aux<bool>(bool&&)
 .text$_ZNSt5dequeIbSaIbEE17_M_reallocate_mapEyb
                0x0000000000439950      0x160 C:\orangec\src\..\src\lib\mingw64/libocpplib.a(ppPragma.o)
                0x0000000000439950                std::deque<bool, std::allocator<bool> >::_M_reallocate_map(unsigned long long, bool)
 .text$_ZNSt5dequeIiSaIiEE16_M_push_back_auxIJiEEEvDpOT_
                0x0000000000439ab0      0x1b0 C:\orangec\src\ocpp\obj\mingw64\ppMain.o
                0x0000000000439ab0                void std::deque<int, std::allocator<int> >::_M_push_back_aux<int>(int&&)
 .text$_ZNSt5dequeIiSaIiEE17_M_push_front_auxIJiEEEvDpOT_
                0x0000000000439c60      0x1b0 C:\orangec\src\..\src\lib\mingw64/libocpplib.a(ppMacro.o)
                0x0000000000439c60                void std::deque<int, std::allocator<int> >::_M_push_front_aux<int>(int&&)
 .text$_ZNSt5dequeIiSaIiEE17_M_reallocate_mapEyb
                0x0000000000439e10      0x160 C:\orangec\src\..\src\lib\mingw64/libocpplib.a(ppPragma.o)
                0x0000000000439e10                std::deque<int, std::allocator<int> >::_M_reallocate_map(unsigned long long, bool)
 .text$_ZNSt6vectorINSt7__cxx1112basic_stringIcSt11char_traitsIcESaIcEEESaIS5_EE17_M_realloc_insertIJRKS5_EEEvN9__gnu_cxx17__normal_iteratorIPS5_S7_EEDpOT_
                0x0000000000439f70      0x280 C:\orangec\src\..\src\lib\mingw64/libocpplib.a(ppDefine.o)
                0x0000000000439f70                void std::vector<std::__cxx11::basic_string<char, std::char_traits<char>, std::allocator<char> >, std::allocator<std::__cxx11::basic_string<char, std::char_traits<char>, std::allocator<char> > > >::_M_realloc_insert<std::__cxx11::basic_string<char, std::char_traits<char>, std::allocator<char> > const&>(__gnu_cxx::__normal_iterator<std::__cxx11::basic_string<char, std::char_traits<char>, std::allocator<char> >*, std::vector<std::__cxx11::basic_string<char, std::char_traits<char>, std::allocator<char> >, std::allocator<std::__cxx11::basic_string<char, std::char_traits<char>, std::allocator<char> > > > >, std::__cxx11::basic_string<char, std::char_traits<char>, std::allocator<char> > const&)
 .text$_ZNSt6vectorINSt7__cxx1112basic_stringIcSt11char_traitsIcESaIcEEESaIS5_EED1Ev
                0x000000000043a1f0       0x60 C:\orangec\src\..\src\lib\mingw64/libocpplib.a(MakeStubs.o)
                0x000000000043a1f0                std::vector<std::__cxx11::basic_string<char, std::char_traits<char>, std::allocator<char> >, std::allocator<std::__cxx11::basic_string<char, std::char_traits<char>, std::allocator<char> > > >::~vector()
 .text$_ZNSt6vectorISt10unique_ptrI9MacroDataSt14default_deleteIS1_EESaIS4_EE12emplace_backIJS4_EEEvDpOT_
                0x000000000043a250       0x30 C:\orangec\src\..\src\lib\mingw64/libocpplib.a(ppMacro.o)
                0x000000000043a250                void std::vector<std::unique_ptr<MacroData, std::default_delete<MacroData> >, std::allocator<std::unique_ptr<MacroData, std::default_delete<MacroData> > > >::emplace_back<std::unique_ptr<MacroData, std::default_delete<MacroData> > >(std::unique_ptr<MacroData, std::default_delete<MacroData> >&&)
 .text$_ZNSt6vectorISt10unique_ptrI9MacroDataSt14default_deleteIS1_EESaIS4_EE17_M_realloc_insertIJS4_EEEvN9__gnu_cxx17__normal_iteratorIPS4_S6_EEDpOT_
                0x000000000043a280      0x280 C:\orangec\src\..\src\lib\mingw64/libocpplib.a(ppMacro.o)
                0x000000000043a280                void std::vector<std::unique_ptr<MacroData, std::default_delete<MacroData> >, std::allocator<std::unique_ptr<MacroData, std::default_delete<MacroData> > > >::_M_realloc_insert<std::unique_ptr<MacroData, std::default_delete<MacroData> > >(__gnu_cxx::__normal_iterator<std::unique_ptr<MacroData, std::default_delete<MacroData> >*, std::vector<std::unique_ptr<MacroData, std::default_delete<MacroData> >, std::allocator<std::unique_ptr<MacroData, std::default_delete<MacroData> > > > >, std::unique_ptr<MacroData, std::default_delete<MacroData> >&&)
 .text$_ZNSt6vectorISt10unique_ptrIN15CmdSwitchDefine6defineESt14default_deleteIS2_EESaIS5_EE17_M_realloc_insertIJS5_EEEvN9__gnu_cxx17__normal_iteratorIPS5_S7_EEDpOT_
                0x000000000043a500      0x1c0 C:\orangec\src\..\src\lib\mingw64/libutil.a(CmdSwitch.o)
                0x000000000043a500                void std::vector<std::unique_ptr<CmdSwitchDefine::define, std::default_delete<CmdSwitchDefine::define> >, std::allocator<std::unique_ptr<CmdSwitchDefine::define, std::default_delete<CmdSwitchDefine::define> > > >::_M_realloc_insert<std::unique_ptr<CmdSwitchDefine::define, std::default_delete<CmdSwitchDefine::define> > >(__gnu_cxx::__normal_iterator<std::unique_ptr<CmdSwitchDefine::define, std::default_delete<CmdSwitchDefine::define> >*, std::vector<std::unique_ptr<CmdSwitchDefine::define, std::default_delete<CmdSwitchDefine::define> >, std::allocator<std::unique_ptr<CmdSwitchDefine::define, std::default_delete<CmdSwitchDefine::define> > > > >, std::unique_ptr<CmdSwitchDefine::define, std::default_delete<CmdSwitchDefine::define> >&&)
 .text$_ZNSt7__cxx1110_List_baseINS_12basic_stringIcSt11char_traitsIcESaIcEEESaIS5_EE8_M_clearEv
                0x000000000043a6c0       0x40 C:\orangec\src\ocpp\obj\mingw64\ppMain.o
                0x000000000043a6c0                std::__cxx11::_List_base<std::__cxx11::basic_string<char, std::char_traits<char>, std::allocator<char> >, std::allocator<std::__cxx11::basic_string<char, std::char_traits<char>, std::allocator<char> > > >::_M_clear()
 .text$_ZNSt7__cxx1112basic_stringIcSt11char_traitsIcESaIcEE12_M_constructIPKcEEvT_S8_St20forward_iterator_tag
                0x000000000043a700       0xc0 C:\orangec\src\ocpp\obj\mingw64\ppMain.o
                0x000000000043a700                void std::__cxx11::basic_string<char, std::char_traits<char>, std::allocator<char> >::_M_construct<char const*>(char const*, char const*, std::forward_iterator_tag)
 .text$_ZNSt7__cxx1112basic_stringIcSt11char_traitsIcESaIcEE12_M_constructIPcEEvT_S7_St20forward_iterator_tag
                0x000000000043a7c0       0xc0 C:\orangec\src\ocpp\obj\mingw64\ppMain.o
                0x000000000043a7c0                void std::__cxx11::basic_string<char, std::char_traits<char>, std::allocator<char> >::_M_construct<char*>(char*, char*, std::forward_iterator_tag)
 .text$_ZNSt7__cxx1112basic_stringIwSt11char_traitsIwESaIwEE12_M_constructIPKwEEvT_S8_St20forward_iterator_tag
                0x000000000043a880       0xb0 C:\orangec\src\..\src\lib\mingw64/libocpplib.a(Token.o)
                0x000000000043a880                void std::__cxx11::basic_string<wchar_t, std::char_traits<wchar_t>, std::allocator<wchar_t> >::_M_construct<wchar_t const*>(wchar_t const*, wchar_t const*, std::forward_iterator_tag)
 .text$_ZNSt7__cxx1112basic_stringIwSt11char_traitsIwESaIwEE12_M_constructIPwEEvT_S7_St20forward_iterator_tag
                0x000000000043a930       0xb0 C:\orangec\src\..\src\lib\mingw64/libocpplib.a(Token.o)
                0x000000000043a930                void std::__cxx11::basic_string<wchar_t, std::char_traits<wchar_t>, std::allocator<wchar_t> >::_M_construct<wchar_t*>(wchar_t*, wchar_t*, std::forward_iterator_tag)
 .text$_ZNSt7__cxx1115basic_stringbufIcSt11char_traitsIcESaIcEED1Ev
                0x000000000043a9e0       0x50 C:\orangec\src\..\src\lib\mingw64/libutil.a(Utils.o)
                0x000000000043a9e0                std::__cxx11::basic_stringbuf<char, std::char_traits<char>, std::allocator<char> >::~basic_stringbuf()
 .text$_ZNSt8_Rb_treeIN4Once8OnceItemES1_St9_IdentityIS1_ESt4lessIS1_ESaIS1_EE16_M_insert_uniqueIRKS1_EESt4pairISt17_Rb_tree_iteratorIS1_EbEOT_
                0x000000000043aa30      0x1a0 C:\orangec\src\..\src\lib\mingw64/libocpplib.a(ppPragma.o)
                0x000000000043aa30                std::pair<std::_Rb_tree_iterator<Once::OnceItem>, bool> std::_Rb_tree<Once::OnceItem, Once::OnceItem, std::_Identity<Once::OnceItem>, std::less<Once::OnceItem>, std::allocator<Once::OnceItem> >::_M_insert_unique<Once::OnceItem const&>(Once::OnceItem const&)
 .text$_ZNSt8_Rb_treeIN4Once8OnceItemES1_St9_IdentityIS1_ESt4lessIS1_ESaIS1_EE8_M_eraseEPSt13_Rb_tree_nodeIS1_E
                0x000000000043abd0       0x40 C:\orangec\src\ocpp\obj\mingw64\ppMain.o
                0x000000000043abd0                std::_Rb_tree<Once::OnceItem, Once::OnceItem, std::_Identity<Once::OnceItem>, std::less<Once::OnceItem>, std::allocator<Once::OnceItem> >::_M_erase(std::_Rb_tree_node<Once::OnceItem>*)
 .text$_ZNSt8_Rb_treeINSt7__cxx1112basic_stringIcSt11char_traitsIcESaIcEEES5_St9_IdentityIS5_ESt4lessIS5_ESaIS5_EE16_M_insert_uniqueIRKS5_EESt4pairISt17_Rb_tree_iteratorIS5_EbEOT_
                0x000000000043ac10      0x250 C:\orangec\src\..\src\lib\mingw64/libocpplib.a(ppInclude.o)
                0x000000000043ac10                std::pair<std::_Rb_tree_iterator<std::__cxx11::basic_string<char, std::char_traits<char>, std::allocator<char> > >, bool> std::_Rb_tree<std::__cxx11::basic_string<char, std::char_traits<char>, std::allocator<char> >, std::__cxx11::basic_string<char, std::char_traits<char>, std::allocator<char> >, std::_Identity<std::__cxx11::basic_string<char, std::char_traits<char>, std::allocator<char> > >, std::less<std::__cxx11::basic_string<char, std::char_traits<char>, std::allocator<char> > >, std::allocator<std::__cxx11::basic_string<char, std::char_traits<char>, std::allocator<char> > > >::_M_insert_unique<std::__cxx11::basic_string<char, std::char_traits<char>, std::allocator<char> > const&>(std::__cxx11::basic_string<char, std::char_traits<char>, std::allocator<char> > const&)
 .text$_ZNSt8_Rb_treeINSt7__cxx1112basic_stringIcSt11char_traitsIcESaIcEEES5_St9_IdentityIS5_ESt4lessIS5_ESaIS5_EE4findERKS5_
                0x000000000043ae60      0x100 C:\orangec\src\..\src\lib\mingw64/libocpplib.a(ppInclude.o)
                0x000000000043ae60                std::_Rb_tree<std::__cxx11::basic_string<char, std::char_traits<char>, std::allocator<char> >, std::__cxx11::basic_string<char, std::char_traits<char>, std::allocator<char> >, std::_Identity<std::__cxx11::basic_string<char, std::char_traits<char>, std::allocator<char> > >, std::less<std::__cxx11::basic_string<char, std::char_traits<char>, std::allocator<char> > >, std::allocator<std::__cxx11::basic_string<char, std::char_traits<char>, std::allocator<char> > > >::find(std::__cxx11::basic_string<char, std::char_traits<char>, std::allocator<char> > const&)
 .text$_ZNSt8_Rb_treeINSt7__cxx1112basic_stringIcSt11char_traitsIcESaIcEEES5_St9_IdentityIS5_ESt4lessIS5_ESaIS5_EE8_M_eraseEPSt13_Rb_tree_nodeIS5_E
                0x000000000043af60       0x50 C:\orangec\src\ocpp\obj\mingw64\ppMain.o
                0x000000000043af60                std::_Rb_tree<std::__cxx11::basic_string<char, std::char_traits<char>, std::allocator<char> >, std::__cxx11::basic_string<char, std::char_traits<char>, std::allocator<char> >, std::_Identity<std::__cxx11::basic_string<char, std::char_traits<char>, std::allocator<char> > >, std::less<std::__cxx11::basic_string<char, std::char_traits<char>, std::allocator<char> > >, std::allocator<std::__cxx11::basic_string<char, std::char_traits<char>, std::allocator<char> > > >::_M_erase(std::_Rb_tree_node<std::__cxx11::basic_string<char, std::char_traits<char>, std::allocator<char> > >*)
 .text$_ZNSt8_Rb_treeINSt7__cxx1112basic_stringIcSt11char_traitsIcESaIcEEESt4pairIKS5_St10unique_ptrIN8Startups10PropertiesESt14default_deleteISA_EEESt10_Select1stISE_ESt4lessIS5_ESaISE_EE22_M_emplace_hint_uniqueIJRKSt21piecewise_construct_tSt5tupleIJRS7_EESP_IJEEEEESt17_Rb_tree_iteratorISE_ESt23_Rb_tree_const_iteratorISE_EDpOT_
                0x000000000043afb0      0x3e0 C:\orangec\src\..\src\lib\mingw64/libocpplib.a(ppPragma.o)
                0x000000000043afb0                std::_Rb_tree_iterator<std::pair<std::__cxx11::basic_string<char, std::char_traits<char>, std::allocator<char> > const, std::unique_ptr<Startups::Properties, std::default_delete<Startups::Properties> > > > std::_Rb_tree<std::__cxx11::basic_string<char, std::char_traits<char>, std::allocator<char> >, std::pair<std::__cxx11::basic_string<char, std::char_traits<char>, std::allocator<char> > const, std::unique_ptr<Startups::Properties, std::default_delete<Startups::Properties> > >, std::_Select1st<std::pair<std::__cxx11::basic_string<char, std::char_traits<char>, std::allocator<char> > const, std::unique_ptr<Startups::Properties, std::default_delete<Startups::Properties> > > >, std::less<std::__cxx11::basic_string<char, std::char_traits<char>, std::allocator<char> > >, std::allocator<std::pair<std::__cxx11::basic_string<char, std::char_traits<char>, std::allocator<char> > const, std::unique_ptr<Startups::Properties, std::default_delete<Startups::Properties> > > > >::_M_emplace_hint_unique<std::piecewise_construct_t const&, std::tuple<std::__cxx11::basic_string<char, std::char_traits<char>, std::allocator<char> > const&>, std::tuple<> >(std::_Rb_tree_const_iterator<std::pair<std::__cxx11::basic_string<char, std::char_traits<char>, std::allocator<char> > const, std::unique_ptr<Startups::Properties, std::default_delete<Startups::Properties> > > >, std::piecewise_construct_t const&, std::tuple<std::__cxx11::basic_string<char, std::char_traits<char>, std::allocator<char> > const&>&&, std::tuple<>&&)
 .text$_ZNSt8_Rb_treeINSt7__cxx1112basic_stringIcSt11char_traitsIcESaIcEEESt4pairIKS5_St10unique_ptrIN8Startups10PropertiesESt14default_deleteISA_EEESt10_Select1stISE_ESt4lessIS5_ESaISE_EE24_M_get_insert_unique_posERS7_
                0x000000000043b390      0x160 C:\orangec\src\..\src\lib\mingw64/libocpplib.a(ppPragma.o)
                0x000000000043b390                std::_Rb_tree<std::__cxx11::basic_string<char, std::char_traits<char>, std::allocator<char> >, std::pair<std::__cxx11::basic_string<char, std::char_traits<char>, std::allocator<char> > const, std::unique_ptr<Startups::Properties, std::default_delete<Startups::Properties> > >, std::_Select1st<std::pair<std::__cxx11::basic_string<char, std::char_traits<char>, std::allocator<char> > const, std::unique_ptr<Startups::Properties, std::default_delete<Startups::Properties> > > >, std::less<std::__cxx11::basic_string<char, std::char_traits<char>, std::allocator<char> > >, std::allocator<std::pair<std::__cxx11::basic_string<char, std::char_traits<char>, std::allocator<char> > const, std::unique_ptr<Startups::Properties, std::default_delete<Startups::Properties> > > > >::_M_get_insert_unique_pos(std::__cxx11::basic_string<char, std::char_traits<char>, std::allocator<char> > const&)
 .text$_ZNSt8_Rb_treeINSt7__cxx1112basic_stringIcSt11char_traitsIcESaIcEEESt4pairIKS5_St10unique_ptrIN8Startups10PropertiesESt14default_deleteISA_EEESt10_Select1stISE_ESt4lessIS5_ESaISE_EE8_M_eraseEPSt13_Rb_tree_nodeISE_E
                0x000000000043b4f0       0x60 C:\orangec\src\ocpp\obj\mingw64\ppMain.o
                0x000000000043b4f0                std::_Rb_tree<std::__cxx11::basic_string<char, std::char_traits<char>, std::allocator<char> >, std::pair<std::__cxx11::basic_string<char, std::char_traits<char>, std::allocator<char> > const, std::unique_ptr<Startups::Properties, std::default_delete<Startups::Properties> > >, std::_Select1st<std::pair<std::__cxx11::basic_string<char, std::char_traits<char>, std::allocator<char> > const, std::unique_ptr<Startups::Properties, std::default_delete<Startups::Properties> > > >, std::less<std::__cxx11::basic_string<char, std::char_traits<char>, std::allocator<char> > >, std::allocator<std::pair<std::__cxx11::basic_string<char, std::char_traits<char>, std::allocator<char> > const, std::unique_ptr<Startups::Properties, std::default_delete<Startups::Properties> > > > >::_M_erase(std::_Rb_tree_node<std::pair<std::__cxx11::basic_string<char, std::char_traits<char>, std::allocator<char> > const, std::unique_ptr<Startups::Properties, std::default_delete<Startups::Properties> > > >*)
 .text$_ZNSt8_Rb_treeIP13CmdSwitchBaseS1_St9_IdentityIS1_ESt4lessIS1_ESaIS1_EE8_M_eraseEPSt13_Rb_tree_nodeIS1_E
                0x000000000043b550       0x40 C:\orangec\src\ocpp\obj\mingw64\ppMain.o
                0x000000000043b550                std::_Rb_tree<CmdSwitchBase*, CmdSwitchBase*, std::_Identity<CmdSwitchBase*>, std::less<CmdSwitchBase*>, std::allocator<CmdSwitchBase*> >::_M_erase(std::_Rb_tree_node<CmdSwitchBase*>*)
 .text$_ZNSt8_Rb_treeIiSt4pairIKiiESt10_Select1stIS2_ESt4lessIiESaIS2_EE22_M_emplace_hint_uniqueIJRKSt21piecewise_construct_tSt5tupleIJRS1_EESD_IJEEEEESt17_Rb_tree_iteratorIS2_ESt23_Rb_tree_const_iteratorIS2_EDpOT_
                0x000000000043b590      0x150 C:\orangec\src\..\src\lib\mingw64/libocpplib.a(ppPragma.o)
                0x000000000043b590                std::_Rb_tree_iterator<std::pair<int const, int> > std::_Rb_tree<int, std::pair<int const, int>, std::_Select1st<std::pair<int const, int> >, std::less<int>, std::allocator<std::pair<int const, int> > >::_M_emplace_hint_unique<std::piecewise_construct_t const&, std::tuple<int const&>, std::tuple<> >(std::_Rb_tree_const_iterator<std::pair<int const, int> >, std::piecewise_construct_t const&, std::tuple<int const&>&&, std::tuple<>&&)
 .text$_ZNSt8_Rb_treeIiSt4pairIKiiESt10_Select1stIS2_ESt4lessIiESaIS2_EE24_M_get_insert_unique_posERS1_
                0x000000000043b6e0       0xd0 C:\orangec\src\..\src\lib\mingw64/libocpplib.a(ppPragma.o)
                0x000000000043b6e0                std::_Rb_tree<int, std::pair<int const, int>, std::_Select1st<std::pair<int const, int> >, std::less<int>, std::allocator<std::pair<int const, int> > >::_M_get_insert_unique_pos(int const&)
 .text$_ZNSt8_Rb_treeIiSt4pairIKiiESt10_Select1stIS2_ESt4lessIiESaIS2_EE7_M_copyINS8_11_Alloc_nodeEEEPSt13_Rb_tree_nodeIS2_EPKSC_PSt18_Rb_tree_node_baseRT_
                0x000000000043b7b0      0x100 C:\orangec\src\..\src\lib\mingw64/libocpplib.a(ppPragma.o)
                0x000000000043b7b0                std::_Rb_tree_node<std::pair<int const, int> >* std::_Rb_tree<int, std::pair<int const, int>, std::_Select1st<std::pair<int const, int> >, std::less<int>, std::allocator<std::pair<int const, int> > >::_M_copy<std::_Rb_tree<int, std::pair<int const, int>, std::_Select1st<std::pair<int const, int> >, std::less<int>, std::allocator<std::pair<int const, int> > >::_Alloc_node>(std::_Rb_tree_node<std::pair<int const, int> > const*, std::_Rb_tree_node_base*, std::_Rb_tree<int, std::pair<int const, int>, std::_Select1st<std::pair<int const, int> >, std::less<int>, std::allocator<std::pair<int const, int> > >::_Alloc_node&)
 .text$_ZNSt8_Rb_treeIiSt4pairIKiiESt10_Select1stIS2_ESt4lessIiESaIS2_EE7_M_copyINS8_20_Reuse_or_alloc_nodeEEEPSt13_Rb_tree_nodeIS2_EPKSC_PSt18_Rb_tree_node_baseRT_
                0x000000000043b8b0      0x250 C:\orangec\src\..\src\lib\mingw64/libocpplib.a(ppPragma.o)
                0x000000000043b8b0                std::_Rb_tree_node<std::pair<int const, int> >* std::_Rb_tree<int, std::pair<int const, int>, std::_Select1st<std::pair<int const, int> >, std::less<int>, std::allocator<std::pair<int const, int> > >::_M_copy<std::_Rb_tree<int, std::pair<int const, int>, std::_Select1st<std::pair<int const, int> >, std::less<int>, std::allocator<std::pair<int const, int> > >::_Reuse_or_alloc_node>(std::_Rb_tree_node<std::pair<int const, int> > const*, std::_Rb_tree_node_base*, std::_Rb_tree<int, std::pair<int const, int>, std::_Select1st<std::pair<int const, int> >, std::less<int>, std::allocator<std::pair<int const, int> > >::_Reuse_or_alloc_node&)
 .text$_ZNSt8_Rb_treeIiSt4pairIKiiESt10_Select1stIS2_ESt4lessIiESaIS2_EE8_M_eraseEPSt13_Rb_tree_nodeIS2_E
                0x000000000043bb00       0x40 C:\orangec\src\..\src\lib\mingw64/libocpplib.a(ppPragma.o)
                0x000000000043bb00                std::_Rb_tree<int, std::pair<int const, int>, std::_Select1st<std::pair<int const, int> >, std::less<int>, std::allocator<std::pair<int const, int> > >::_M_erase(std::_Rb_tree_node<std::pair<int const, int> >*)
 .text$_ZNSt8_Rb_treeIiSt4pairIKiiESt10_Select1stIS2_ESt4lessIiESaIS2_EEaSERKS8_
                0x000000000043bb40      0x110 C:\orangec\src\..\src\lib\mingw64/libocpplib.a(ppPragma.o)
                0x000000000043bb40                std::_Rb_tree<int, std::pair<int const, int>, std::_Select1st<std::pair<int const, int> >, std::less<int>, std::allocator<std::pair<int const, int> > >::operator=(std::_Rb_tree<int, std::pair<int const, int>, std::_Select1st<std::pair<int const, int> >, std::less<int>, std::allocator<std::pair<int const, int> > > const&)
 .text$_ZNSt8__detail16_Hashtable_allocISaINS_10_Hash_nodeISt4pairIKNSt7__cxx1112basic_stringIcSt11char_traitsIcESaIcEEEP6SymbolELb1EEEEE16_M_allocate_nodeIJRKSt21piecewise_construct_tSt5tupleIJRS9_EESK_IJEEEEEPSD_DpOT_
                0x000000000043bc50       0xf0 C:\orangec\src\..\src\lib\mingw64/libocpplib.a(SymbolTable.o)
                0x000000000043bc50                std::__detail::_Hash_node<std::pair<std::__cxx11::basic_string<char, std::char_traits<char>, std::allocator<char> > const, Symbol*>, true>* std::__detail::_Hashtable_alloc<std::allocator<std::__detail::_Hash_node<std::pair<std::__cxx11::basic_string<char, std::char_traits<char>, std::allocator<char> > const, Symbol*>, true> > >::_M_allocate_node<std::piecewise_construct_t const&, std::tuple<std::__cxx11::basic_string<char, std::char_traits<char>, std::allocator<char> > const&>, std::tuple<> >(std::piecewise_construct_t const&, std::tuple<std::__cxx11::basic_string<char, std::char_traits<char>, std::allocator<char> > const&>&&, std::tuple<>&&)
 .text$_ZNSt8__detail9_Map_baseINSt7__cxx1112basic_stringIcSt11char_traitsIcESaIcEEESt4pairIKS6_2kwESaISA_ENS_10_Select1stESt8equal_toIS6_ESt4hashIS6_ENS_18_Mod_range_hashingENS_20_Default_ranged_hashENS_20_Prime_rehash_policyENS_17_Hashtable_traitsILb1ELb0ELb1EEELb1EEixEOS6_
                0x000000000043bd40      0x150 C:\orangec\src\..\src\lib\mingw64/libocpplib.a(PreProcessor.o)
                0x000000000043bd40                std::__detail::_Map_base<std::__cxx11::basic_string<char, std::char_traits<char>, std::allocator<char> >, std::pair<std::__cxx11::basic_string<char, std::char_traits<char>, std::allocator<char> > const, kw>, std::allocator<std::pair<std::__cxx11::basic_string<char, std::char_traits<char>, std::allocator<char> > const, kw> >, std::__detail::_Select1st, std::equal_to<std::__cxx11::basic_string<char, std::char_traits<char>, std::allocator<char> > >, std::hash<std::__cxx11::basic_string<char, std::char_traits<char>, std::allocator<char> > >, std::__detail::_Mod_range_hashing, std::__detail::_Default_ranged_hash, std::__detail::_Prime_rehash_policy, std::__detail::_Hashtable_traits<true, false, true>, true>::operator[](std::__cxx11::basic_string<char, std::char_traits<char>, std::allocator<char> >&&)
 .text$_ZNSt8__detail9_Map_baseINSt7__cxx1112basic_stringIcSt11char_traitsIcESaIcEEESt4pairIKS6_P9MacroDataESaISB_ENS_10_Select1stESt8equal_toIS6_ESt4hashIS6_ENS_18_Mod_range_hashingENS_20_Default_ranged_hashENS_20_Prime_rehash_policyENS_17_Hashtable_traitsILb1ELb0ELb1EEELb1EEixERS8_
                0x000000000043be90       0xf0 C:\orangec\src\..\src\lib\mingw64/libocpplib.a(ppMacro.o)
                0x000000000043be90                std::__detail::_Map_base<std::__cxx11::basic_string<char, std::char_traits<char>, std::allocator<char> >, std::pair<std::__cxx11::basic_string<char, std::char_traits<char>, std::allocator<char> > const, MacroData*>, std::allocator<std::pair<std::__cxx11::basic_string<char, std::char_traits<char>, std::allocator<char> > const, MacroData*> >, std::__detail::_Select1st, std::equal_to<std::__cxx11::basic_string<char, std::char_traits<char>, std::allocator<char> > >, std::hash<std::__cxx11::basic_string<char, std::char_traits<char>, std::allocator<char> > >, std::__detail::_Mod_range_hashing, std::__detail::_Default_ranged_hash, std::__detail::_Prime_rehash_policy, std::__detail::_Hashtable_traits<true, false, true>, true>::operator[](std::__cxx11::basic_string<char, std::char_traits<char>, std::allocator<char> > const&)
 .text$_ZNSt8__detail9_Map_baseINSt7__cxx1112basic_stringIcSt11char_traitsIcESaIcEEESt4pairIKS6_S6_ESaIS9_ENS_10_Select1stESt8equal_toIS6_ESt4hashIS6_ENS_18_Mod_range_hashingENS_20_Default_ranged_hashENS_20_Prime_rehash_policyENS_17_Hashtable_traitsILb1ELb0ELb1EEELb1EEixERS8_
                0x000000000043bf80      0x230 C:\orangec\src\..\src\lib\mingw64/libocpplib.a(ppPragma.o)
                0x000000000043bf80                std::__detail::_Map_base<std::__cxx11::basic_string<char, std::char_traits<char>, std::allocator<char> >, std::pair<std::__cxx11::basic_string<char, std::char_traits<char>, std::allocator<char> > const, std::__cxx11::basic_string<char, std::char_traits<char>, std::allocator<char> > >, std::allocator<std::pair<std::__cxx11::basic_string<char, std::char_traits<char>, std::allocator<char> > const, std::__cxx11::basic_string<char, std::char_traits<char>, std::allocator<char> > > >, std::__detail::_Select1st, std::equal_to<std::__cxx11::basic_string<char, std::char_traits<char>, std::allocator<char> > >, std::hash<std::__cxx11::basic_string<char, std::char_traits<char>, std::allocator<char> > >, std::__detail::_Mod_range_hashing, std::__detail::_Default_ranged_hash, std::__detail::_Prime_rehash_policy, std::__detail::_Hashtable_traits<true, false, true>, true>::operator[](std::__cxx11::basic_string<char, std::char_traits<char>, std::allocator<char> > const&)
 .text$_ZNSt8__detail9_Map_baseINSt7__cxx1112basic_stringIcSt11char_traitsIcESaIcEEESt4pairIKS6_St5stackIPN8ppDefine10DefinitionESt5dequeISC_SaISC_EEEESaISH_ENS_10_Select1stESt8equal_toIS6_ESt4hashIS6_ENS_18_Mod_range_hashingENS_20_Default_ranged_hashENS_20_Prime_rehash_policyENS_17_Hashtable_traitsILb1ELb0ELb1EEELb1EEixERS8_
                0x000000000043c1b0      0x210 C:\orangec\src\..\src\lib\mingw64/libocpplib.a(ppDefine.o)
                0x000000000043c1b0                std::__detail::_Map_base<std::__cxx11::basic_string<char, std::char_traits<char>, std::allocator<char> >, std::pair<std::__cxx11::basic_string<char, std::char_traits<char>, std::allocator<char> > const, std::stack<ppDefine::Definition*, std::deque<ppDefine::Definition*, std::allocator<ppDefine::Definition*> > > >, std::allocator<std::pair<std::__cxx11::basic_string<char, std::char_traits<char>, std::allocator<char> > const, std::stack<ppDefine::Definition*, std::deque<ppDefine::Definition*, std::allocator<ppDefine::Definition*> > > > >, std::__detail::_Select1st, std::equal_to<std::__cxx11::basic_string<char, std::char_traits<char>, std::allocator<char> > >, std::hash<std::__cxx11::basic_string<char, std::char_traits<char>, std::allocator<char> > >, std::__detail::_Mod_range_hashing, std::__detail::_Default_ranged_hash, std::__detail::_Prime_rehash_policy, std::__detail::_Hashtable_traits<true, false, true>, true>::operator[](std::__cxx11::basic_string<char, std::char_traits<char>, std::allocator<char> > const&)
 .text$_ZNSt8__detail9_Map_baseINSt7__cxx1112basic_stringIcSt11char_traitsIcESaIcEEESt4pairIKS6_iESaIS9_ENS_10_Select1stESt8equal_toIS6_ESt4hashIS6_ENS_18_Mod_range_hashingENS_20_Default_ranged_hashENS_20_Prime_rehash_policyENS_17_Hashtable_traitsILb1ELb0ELb1EEELb1EEixERS8_
                0x000000000043c3c0       0xf0 C:\orangec\src\..\src\lib\mingw64/libocpplib.a(ppInclude.o)
                0x000000000043c3c0                std::__detail::_Map_base<std::__cxx11::basic_string<char, std::char_traits<char>, std::allocator<char> >, std::pair<std::__cxx11::basic_string<char, std::char_traits<char>, std::allocator<char> > const, int>, std::allocator<std::pair<std::__cxx11::basic_string<char, std::char_traits<char>, std::allocator<char> > const, int> >, std::__detail::_Select1st, std::equal_to<std::__cxx11::basic_string<char, std::char_traits<char>, std::allocator<char> > >, std::hash<std::__cxx11::basic_string<char, std::char_traits<char>, std::allocator<char> > >, std::__detail::_Mod_range_hashing, std::__detail::_Default_ranged_hash, std::__detail::_Prime_rehash_policy, std::__detail::_Hashtable_traits<true, false, true>, true>::operator[](std::__cxx11::basic_string<char, std::char_traits<char>, std::allocator<char> > const&)
 .text$_ZSt11__remove_ifIN9__gnu_cxx17__normal_iteratorIPcNSt7__cxx1112basic_stringIcSt11char_traitsIcESaIcEEEEENS0_5__ops16_Iter_equals_valIKN8ppDefineUt_EEEET_SG_SG_T0_
                0x000000000043c4b0      0x180 C:\orangec\src\ocpp\obj\mingw64\ppMain.o
                0x000000000043c4b0                __gnu_cxx::__normal_iterator<char*, std::__cxx11::basic_string<char, std::char_traits<char>, std::allocator<char> > > std::__remove_if<__gnu_cxx::__normal_iterator<char*, std::__cxx11::basic_string<char, std::char_traits<char>, std::allocator<char> > >, __gnu_cxx::__ops::_Iter_equals_val<ppDefine::{unnamed type#1} const> >(__gnu_cxx::__ops::_Iter_equals_val<ppDefine::{unnamed type#1} const>, __gnu_cxx::__ops::_Iter_equals_val<ppDefine::{unnamed type#1} const>, __gnu_cxx::__ops::_Iter_equals_val<ppDefine::{unnamed type#1} const>)
 .text$_ZSt8_DestroyISt15_Deque_iteratorINSt7__cxx1112basic_stringIcSt11char_traitsIcESaIcEEERS6_PS6_EEvT_SA_
                0x000000000043c630       0x60 C:\orangec\src\ocpp\obj\mingw64\ppMain.o
                0x000000000043c630                void std::_Destroy<std::_Deque_iterator<std::__cxx11::basic_string<char, std::char_traits<char>, std::allocator<char> >, std::__cxx11::basic_string<char, std::char_traits<char>, std::allocator<char> >&, std::__cxx11::basic_string<char, std::char_traits<char>, std::allocator<char> >*> >(std::_Deque_iterator<std::__cxx11::basic_string<char, std::char_traits<char>, std::allocator<char> >, std::__cxx11::basic_string<char, std::char_traits<char>, std::allocator<char> >&, std::__cxx11::basic_string<char, std::char_traits<char>, std::allocator<char> >*>, std::_Deque_iterator<std::__cxx11::basic_string<char, std::char_traits<char>, std::allocator<char> >, std::__cxx11::basic_string<char, std::char_traits<char>, std::allocator<char> >&, std::__cxx11::basic_string<char, std::char_traits<char>, std::allocator<char> >*>)
 .text$_ZStplIcSt11char_traitsIcESaIcEENSt7__cxx1112basic_stringIT_T0_T1_EEPKS5_RKS8_
                0x000000000043c690       0xb0 C:\orangec\src\..\src\lib\mingw64/libocpplib.a(ppError.o)
                0x000000000043c690                std::__cxx11::basic_string<char, std::char_traits<char>, std::allocator<char> > std::operator+<char, std::char_traits<char>, std::allocator<char> >(char const*, std::__cxx11::basic_string<char, std::char_traits<char>, std::allocator<char> > const&)
 *(.text.*)
 .text.startup  0x000000000043c740     0x16b0 C:\orangec\src\ocpp\obj\mingw64\ppMain.o
                0x000000000043dd50                main
 .text.startup  0x000000000043ddf0       0x20 C:\orangec\src\..\src\lib\mingw64/libocpplib.a(Errors.o)
 .text.startup  0x000000000043de10       0x20 C:\orangec\src\..\src\lib\mingw64/libocpplib.a(MakeStubs.o)
 .text.unlikely
                0x000000000043de30       0x50 C:\orangec\src\..\src\lib\mingw64/libocpplib.a(ppDefine.o)
 .text.startup  0x000000000043de80      0x150 C:\orangec\src\..\src\lib\mingw64/libocpplib.a(ppDefine.o)
 .text.startup  0x000000000043dfd0      0x3f0 C:\orangec\src\..\src\lib\mingw64/libocpplib.a(ppExpr.o)
 .text.startup  0x000000000043e3c0       0x80 C:\orangec\src\..\src\lib\mingw64/libocpplib.a(ppInclude.o)
 .text.startup  0x000000000043e440      0x150 C:\orangec\src\..\src\lib\mingw64/libocpplib.a(ppPragma.o)
 .text.startup  0x000000000043e590       0x70 C:\orangec\src\..\src\lib\mingw64/libocpplib.a(Floating.o)
 .text.startup  0x000000000043e600       0x50 C:\orangec\src\..\src\lib\mingw64/libocpplib.a(InputFile.o)
 .text.startup  0x000000000043e650       0x20 C:\orangec\src\..\src\lib\mingw64/libutil.a(CmdSwitch.o)
 .text.startup  0x000000000043e670       0x20 C:\orangec\src\..\src\lib\mingw64/libutil.a(Utils.o)
 .text.unlikely
                0x000000000043e690       0x70 C:/mingw64/w64/bin/../lib/gcc/x86_64-w64-mingw32/8.1.0/../../../../x86_64-w64-mingw32/lib/../lib/libmingw32.a(lib64_libmingw32_a-pseudo-reloc.o)
 .text.startup  0x000000000043e700       0x10 C:/mingw64/w64/bin/../lib/gcc/x86_64-w64-mingw32/8.1.0/crtend.o
 *(.gnu.linkonce.t.*)
 *(.glue_7t)
 *(.glue_7)
                0x000000000043e710                . = ALIGN (0x8)
                0x000000000043e710                ___CTOR_LIST__ = .
                0x000000000043e710                __CTOR_LIST__ = .
                0x000000000043e710        0x4 LONG 0xffffffffffffffff
                0x000000000043e714        0x4 LONG 0xffffffffffffffff
 *(.ctors)
 .ctors         0x000000000043e718        0x8 C:\orangec\src\ocpp\obj\mingw64\ppMain.o
 .ctors         0x000000000043e720        0x8 C:\orangec\src\..\src\lib\mingw64/libocpplib.a(Errors.o)
 .ctors         0x000000000043e728        0x8 C:\orangec\src\..\src\lib\mingw64/libocpplib.a(MakeStubs.o)
 .ctors         0x000000000043e730        0x8 C:\orangec\src\..\src\lib\mingw64/libocpplib.a(ppDefine.o)
 .ctors         0x000000000043e738        0x8 C:\orangec\src\..\src\lib\mingw64/libocpplib.a(ppExpr.o)
 .ctors         0x000000000043e740        0x8 C:\orangec\src\..\src\lib\mingw64/libocpplib.a(ppInclude.o)
 .ctors         0x000000000043e748        0x8 C:\orangec\src\..\src\lib\mingw64/libocpplib.a(ppPragma.o)
 .ctors         0x000000000043e750        0x8 C:\orangec\src\..\src\lib\mingw64/libocpplib.a(Floating.o)
 .ctors         0x000000000043e758        0x8 C:\orangec\src\..\src\lib\mingw64/libocpplib.a(InputFile.o)
 .ctors         0x000000000043e760        0x8 C:\orangec\src\..\src\lib\mingw64/libutil.a(CmdSwitch.o)
 .ctors         0x000000000043e768        0x8 C:\orangec\src\..\src\lib\mingw64/libutil.a(Utils.o)
 *(.ctor)
 *(SORT_BY_NAME(.ctors.*))
 .ctors.65535   0x000000000043e770        0x8 C:/mingw64/w64/bin/../lib/gcc/x86_64-w64-mingw32/8.1.0/crtend.o
                0x000000000043e778        0x4 LONG 0x0
                0x000000000043e77c        0x4 LONG 0x0
                0x000000000043e780                ___DTOR_LIST__ = .
                0x000000000043e780                __DTOR_LIST__ = .
                0x000000000043e780        0x4 LONG 0xffffffffffffffff
                0x000000000043e784        0x4 LONG 0xffffffffffffffff
 *(.dtors)
 *(.dtor)
 *(SORT_BY_NAME(.dtors.*))
                0x000000000043e788        0x4 LONG 0x0
                0x000000000043e78c        0x4 LONG 0x0
 *(.fini)
 *(.gcc_exc)
                [!provide]                        PROVIDE (etext = .)
 *(.gcc_except_table)

.data           0x000000000043f000     0xac00
                0x000000000043f000                __data_start__ = .
 *(.data)
 .data          0x000000000043f000       0x10 C:/mingw64/w64/bin/../lib/gcc/x86_64-w64-mingw32/8.1.0/../../../../x86_64-w64-mingw32/lib/../lib/crt2.o
                0x000000000043f000                __mingw_winmain_nShowCmd
 .data          0x000000000043f010        0x0 C:/mingw64/w64/bin/../lib/gcc/x86_64-w64-mingw32/8.1.0/crtbegin.o
 .data          0x000000000043f010       0x10 C:\orangec\src\ocpp\obj\mingw64\ppMain.o
                0x000000000043f010                ppMain::usageText
 .data          0x000000000043f020       0x10 C:\orangec\src\..\src\lib\mingw64/libocpplib.a(Errors.o)
                0x000000000043f020                Errors::showWarnings
                0x000000000043f024                Errors::maxErrors
 .data          0x000000000043f030        0x0 C:\orangec\src\..\src\lib\mingw64/libocpplib.a(MakeStubs.o)
 .data          0x000000000043f030        0x0 C:\orangec\src\..\src\lib\mingw64/libocpplib.a(PipeArbitrator.o)
 .data          0x000000000043f030        0x0 C:\orangec\src\..\src\lib\mingw64/libocpplib.a(ppCtx.o)
 .data          0x000000000043f030       0x10 C:\orangec\src\..\src\lib\mingw64/libocpplib.a(ppDefine.o)
 .data          0x000000000043f040        0x0 C:\orangec\src\..\src\lib\mingw64/libocpplib.a(ppExpr.o)
 .data          0x000000000043f040       0x10 C:\orangec\src\..\src\lib\mingw64/libocpplib.a(ppInclude.o)
                0x000000000043f040                ppInclude::commentChar
 .data          0x000000000043f050        0x0 C:\orangec\src\..\src\lib\mingw64/libocpplib.a(ppMacro.o)
 .data          0x000000000043f050        0x0 C:\orangec\src\..\src\lib\mingw64/libocpplib.a(ppPragma.o)
 .data          0x000000000043f050        0x0 C:\orangec\src\..\src\lib\mingw64/libocpplib.a(PreProcessor.o)
 .data          0x000000000043f050        0x0 C:\orangec\src\..\src\lib\mingw64/libocpplib.a(SymbolTable.o)
 .data          0x000000000043f050       0x10 C:\orangec\src\..\src\lib\mingw64/libocpplib.a(Token.o)
                0x000000000043f050                llminus1
                0x000000000043f058                Tokenizer::IsSymbolChar
 .data          0x000000000043f060        0x0 C:\orangec\src\..\src\lib\mingw64/libocpplib.a(Floating.o)
 .data          0x000000000043f060       0x10 C:\orangec\src\..\src\lib\mingw64/libocpplib.a(InputFile.o)
 .data          0x000000000043f070        0x0 C:\orangec\src\..\src\lib\mingw64/libocpplib.a(ppCond.o)
 .data          0x000000000043f070        0x0 C:\orangec\src\..\src\lib\mingw64/libocpplib.a(ppError.o)
 .data          0x000000000043f070        0x0 C:\orangec\src\..\src\lib\mingw64/libocpplib.a(ppFile.o)
 .data          0x000000000043f070       0x10 C:\orangec\src\..\src\lib\mingw64/libutil.a(CmdFiles.o)
                0x000000000043f070                CmdFiles::PATH_SEP
                0x000000000043f078                CmdFiles::DIR_SEP
 .data          0x000000000043f080        0x0 C:\orangec\src\..\src\lib\mingw64/libutil.a(CmdSwitch.o)
 .data          0x000000000043f080      0x400 C:\orangec\src\..\src\lib\mingw64/libutil.a(crc.o)
                0x000000000043f080                Utils::crctab
 .data          0x000000000043f480        0x0 C:\orangec\src\..\src\lib\mingw64/libutil.a(NamedPipe.o)
 .data          0x000000000043f480        0x0 C:\orangec\src\..\src\lib\mingw64/libutil.a(UTF8.o)
 .data          0x000000000043f480     0x8d80 C:\orangec\src\..\src\lib\mingw64/libutil.a(UTF8Table.o)
                0x000000000043f480                UTF8::alnum
                0x0000000000443e20                UTF8::alpha
 .data          0x0000000000448200     0x1760 C:\orangec\src\..\src\lib\mingw64/libutil.a(UTF8Upper.o)
                0x0000000000448200                UTF8::upper
 .data          0x0000000000449960        0x0 C:\orangec\src\..\src\lib\mingw64/libutil.a(Utils.o)
 .data          0x0000000000449960        0x0 C:/mingw64/w64/bin/../lib/gcc/x86_64-w64-mingw32/8.1.0/../../../../x86_64-w64-mingw32/lib/../lib/libkernel32.a(dqifs01527.o)
 .data          0x0000000000449960        0x0 C:/mingw64/w64/bin/../lib/gcc/x86_64-w64-mingw32/8.1.0/../../../../x86_64-w64-mingw32/lib/../lib/libkernel32.a(dqifs01510.o)
 .data          0x0000000000449960        0x0 C:/mingw64/w64/bin/../lib/gcc/x86_64-w64-mingw32/8.1.0/../../../../x86_64-w64-mingw32/lib/../lib/libkernel32.a(dqifs01360.o)
 .data          0x0000000000449960        0x0 C:/mingw64/w64/bin/../lib/gcc/x86_64-w64-mingw32/8.1.0/../../../../x86_64-w64-mingw32/lib/../lib/libkernel32.a(dqifs01346.o)
 .data          0x0000000000449960        0x0 C:/mingw64/w64/bin/../lib/gcc/x86_64-w64-mingw32/8.1.0/../../../../x86_64-w64-mingw32/lib/../lib/libkernel32.a(dqifs01128.o)
 .data          0x0000000000449960        0x0 C:/mingw64/w64/bin/../lib/gcc/x86_64-w64-mingw32/8.1.0/../../../../x86_64-w64-mingw32/lib/../lib/libkernel32.a(dqifs01051.o)
 .data          0x0000000000449960        0x0 C:/mingw64/w64/bin/../lib/gcc/x86_64-w64-mingw32/8.1.0/../../../../x86_64-w64-mingw32/lib/../lib/libkernel32.a(dqifs00774.o)
 .data          0x0000000000449960        0x0 C:/mingw64/w64/bin/../lib/gcc/x86_64-w64-mingw32/8.1.0/../../../../x86_64-w64-mingw32/lib/../lib/libkernel32.a(dqifs00724.o)
 .data          0x0000000000449960        0x0 C:/mingw64/w64/bin/../lib/gcc/x86_64-w64-mingw32/8.1.0/../../../../x86_64-w64-mingw32/lib/../lib/libkernel32.a(dqifs00721.o)
 .data          0x0000000000449960        0x0 C:/mingw64/w64/bin/../lib/gcc/x86_64-w64-mingw32/8.1.0/../../../../x86_64-w64-mingw32/lib/../lib/libkernel32.a(dqifs00628.o)
 .data          0x0000000000449960        0x0 C:/mingw64/w64/bin/../lib/gcc/x86_64-w64-mingw32/8.1.0/../../../../x86_64-w64-mingw32/lib/../lib/libkernel32.a(dqifs00609.o)
 .data          0x0000000000449960        0x0 C:/mingw64/w64/bin/../lib/gcc/x86_64-w64-mingw32/8.1.0/../../../../x86_64-w64-mingw32/lib/../lib/libkernel32.a(dqifs00578.o)
 .data          0x0000000000449960        0x0 C:/mingw64/w64/bin/../lib/gcc/x86_64-w64-mingw32/8.1.0/../../../../x86_64-w64-mingw32/lib/../lib/libkernel32.a(dqifs00528.o)
 .data          0x0000000000449960        0x0 C:/mingw64/w64/bin/../lib/gcc/x86_64-w64-mingw32/8.1.0/../../../../x86_64-w64-mingw32/lib/../lib/libkernel32.a(dqifs00514.o)
 .data          0x0000000000449960        0x0 C:/mingw64/w64/bin/../lib/gcc/x86_64-w64-mingw32/8.1.0/../../../../x86_64-w64-mingw32/lib/../lib/libkernel32.a(dqifs00191.o)
 .data          0x0000000000449960        0x0 C:/mingw64/w64/bin/../lib/gcc/x86_64-w64-mingw32/8.1.0/../../../../x86_64-w64-mingw32/lib/../lib/libkernel32.a(dqifh.o)
 .data          0x0000000000449960        0x0 C:/mingw64/w64/bin/../lib/gcc/x86_64-w64-mingw32/8.1.0/../../../../x86_64-w64-mingw32/lib/../lib/libkernel32.a(dqift.o)
 .data          0x0000000000449960       0x10 C:/mingw64/w64/bin/../lib/gcc/x86_64-w64-mingw32/8.1.0/../../../../x86_64-w64-mingw32/lib/../lib/libmingw32.a(lib64_libmingw32_a-gccmain.o)
 .data          0x0000000000449970       0x10 C:/mingw64/w64/bin/../lib/gcc/x86_64-w64-mingw32/8.1.0/../../../../x86_64-w64-mingw32/lib/../lib/libmingw32.a(lib64_libmingw32_a-natstart.o)
                0x0000000000449970                __native_vcclrit_reason
                0x0000000000449974                __native_dllmain_reason
 .data          0x0000000000449980       0x10 C:/mingw64/w64/bin/../lib/gcc/x86_64-w64-mingw32/8.1.0/../../../../x86_64-w64-mingw32/lib/../lib/libmingw32.a(lib64_libmingw32_a-wildcard.o)
                0x0000000000449980                _dowildcard
 .data          0x0000000000449990       0x10 C:/mingw64/w64/bin/../lib/gcc/x86_64-w64-mingw32/8.1.0/../../../../x86_64-w64-mingw32/lib/../lib/libmingw32.a(lib64_libmingw32_a-charmax.o)
                0x0000000000449990                _charmax
 .data          0x00000000004499a0        0x0 C:/mingw64/w64/bin/../lib/gcc/x86_64-w64-mingw32/8.1.0/../../../../x86_64-w64-mingw32/lib/../lib/libmingw32.a(lib64_libmingw32_a-dllargv.o)
 .data          0x00000000004499a0        0x0 C:/mingw64/w64/bin/../lib/gcc/x86_64-w64-mingw32/8.1.0/../../../../x86_64-w64-mingw32/lib/../lib/libmingw32.a(lib64_libmingw32_a-gs_support.o)
 .data          0x00000000004499a0        0x0 C:/mingw64/w64/bin/../lib/gcc/x86_64-w64-mingw32/8.1.0/../../../../x86_64-w64-mingw32/lib/../lib/libmingw32.a(lib64_libmingw32_a-_newmode.o)
 .data          0x00000000004499a0        0x0 C:/mingw64/w64/bin/../lib/gcc/x86_64-w64-mingw32/8.1.0/../../../../x86_64-w64-mingw32/lib/../lib/libmingw32.a(lib64_libmingw32_a-tlssup.o)
 .data          0x00000000004499a0        0x0 C:/mingw64/w64/bin/../lib/gcc/x86_64-w64-mingw32/8.1.0/../../../../x86_64-w64-mingw32/lib/../lib/libmingw32.a(lib64_libmingw32_a-cinitexe.o)
 .data          0x00000000004499a0        0x0 C:/mingw64/w64/bin/../lib/gcc/x86_64-w64-mingw32/8.1.0/../../../../x86_64-w64-mingw32/lib/../lib/libmingw32.a(lib64_libmingw32_a-merr.o)
 .data          0x00000000004499a0        0x0 C:/mingw64/w64/bin/../lib/gcc/x86_64-w64-mingw32/8.1.0/../../../../x86_64-w64-mingw32/lib/../lib/libmingw32.a(lib64_libmingw32_a-CRT_fp10.o)
 .data          0x00000000004499a0        0x0 C:/mingw64/w64/bin/../lib/gcc/x86_64-w64-mingw32/8.1.0/../../../../x86_64-w64-mingw32/lib/../lib/libmingw32.a(lib64_libmingw32_a-mingw_helpers.o)
 .data          0x00000000004499a0        0x0 C:/mingw64/w64/bin/../lib/gcc/x86_64-w64-mingw32/8.1.0/../../../../x86_64-w64-mingw32/lib/../lib/libmingw32.a(lib64_libmingw32_a-pseudo-reloc.o)
 .data          0x00000000004499a0        0x0 C:/mingw64/w64/bin/../lib/gcc/x86_64-w64-mingw32/8.1.0/../../../../x86_64-w64-mingw32/lib/../lib/libmingw32.a(lib64_libmingw32_a-xtxtmode.o)
 .data          0x00000000004499a0        0x0 C:/mingw64/w64/bin/../lib/gcc/x86_64-w64-mingw32/8.1.0/../../../../x86_64-w64-mingw32/lib/../lib/libmingw32.a(lib64_libmingw32_a-crt_handler.o)
 .data          0x00000000004499a0        0x0 C:/mingw64/w64/bin/../lib/gcc/x86_64-w64-mingw32/8.1.0/../../../../x86_64-w64-mingw32/lib/../lib/libmingw32.a(lib64_libmingw32_a-tlsthrd.o)
 .data          0x00000000004499a0       0x10 C:/mingw64/w64/bin/../lib/gcc/x86_64-w64-mingw32/8.1.0/../../../../x86_64-w64-mingw32/lib/../lib/libmingw32.a(lib64_libmingw32_a-tlsmcrt.o)
                0x00000000004499a0                _CRT_MT
 .data          0x00000000004499b0        0x0 C:/mingw64/w64/bin/../lib/gcc/x86_64-w64-mingw32/8.1.0/../../../../x86_64-w64-mingw32/lib/../lib/libmingw32.a(lib64_libmingw32_a-pseudo-reloc-list.o)
 .data          0x00000000004499b0        0x0 C:/mingw64/w64/bin/../lib/gcc/x86_64-w64-mingw32/8.1.0/../../../../x86_64-w64-mingw32/lib/../lib/libmingw32.a(lib64_libmingw32_a-pesect.o)
 .data          0x00000000004499b0        0x0 C:/mingw64/w64/bin/../lib/gcc/x86_64-w64-mingw32/8.1.0/libgcc.a(_chkstk_ms.o)
 .data          0x00000000004499b0        0x0 C:/mingw64/w64/bin/../lib/gcc/x86_64-w64-mingw32/8.1.0/libgcc.a(_ctors.o)
 .data          0x00000000004499b0        0x0 C:/mingw64/w64/bin/../lib/gcc/x86_64-w64-mingw32/8.1.0/libgcc_eh.a(unwind-seh.o)
 .data          0x00000000004499b0       0x10 C:/mingw64/w64/bin/../lib/gcc/x86_64-w64-mingw32/8.1.0/../../../../x86_64-w64-mingw32/lib/../lib/libmingwex.a(lib64_libmingwex_a-mingw_matherr.o)
                0x00000000004499b0                _MINGW_INSTALL_DEBUG_MATHERR
 .data          0x00000000004499c0       0x10 C:/mingw64/w64/bin/../lib/gcc/x86_64-w64-mingw32/8.1.0/../../../../x86_64-w64-mingw32/lib/../lib/libmingwex.a(lib64_libmingwex_a-_stat.o)
                0x00000000004499c0                __imp_stat
 .data          0x00000000004499d0        0x0 C:/mingw64/w64/bin/../lib/gcc/x86_64-w64-mingw32/8.1.0/../../../../x86_64-w64-mingw32/lib/../lib/libmingwex.a(lib64_libmingwex_a-mingw_vfprintf.o)
 .data          0x00000000004499d0        0x0 C:/mingw64/w64/bin/../lib/gcc/x86_64-w64-mingw32/8.1.0/../../../../x86_64-w64-mingw32/lib/../lib/libmingwex.a(lib64_libmingwex_a-mingw_vsnprintf.o)
 .data          0x00000000004499d0        0x0 C:/mingw64/w64/bin/../lib/gcc/x86_64-w64-mingw32/8.1.0/../../../../x86_64-w64-mingw32/lib/../lib/libmingwex.a(lib64_libmingwex_a-mingw_vsprintf.o)
 .data          0x00000000004499d0       0x20 C:/mingw64/w64/bin/../lib/gcc/x86_64-w64-mingw32/8.1.0/../../../../x86_64-w64-mingw32/lib/../lib/libmingwex.a(lib64_libmingwex_a-mingw_pformat.o)
 .data          0x00000000004499f0        0x0 C:/mingw64/w64/bin/../lib/gcc/x86_64-w64-mingw32/8.1.0/../../../../x86_64-w64-mingw32/lib/../lib/libmingwex.a(lib64_libmingwex_a-dmisc.o)
 .data          0x00000000004499f0        0x0 C:/mingw64/w64/bin/../lib/gcc/x86_64-w64-mingw32/8.1.0/../../../../x86_64-w64-mingw32/lib/../lib/libmingwex.a(lib64_libmingwex_a-gdtoa.o)
 .data          0x00000000004499f0        0x0 C:/mingw64/w64/bin/../lib/gcc/x86_64-w64-mingw32/8.1.0/../../../../x86_64-w64-mingw32/lib/../lib/libmingwex.a(lib64_libmingwex_a-gmisc.o)
 .data          0x00000000004499f0       0x10 C:/mingw64/w64/bin/../lib/gcc/x86_64-w64-mingw32/8.1.0/../../../../x86_64-w64-mingw32/lib/../lib/libmingwex.a(lib64_libmingwex_a-misc.o)
 .data          0x0000000000449a00        0x0 C:/mingw64/w64/bin/../lib/gcc/x86_64-w64-mingw32/8.1.0/../../../../x86_64-w64-mingw32/lib/../lib/libmingwex.a(lib64_libmingwex_a-mbrtowc.o)
 .data          0x0000000000449a00        0x0 C:/mingw64/w64/bin/../lib/gcc/x86_64-w64-mingw32/8.1.0/../../../../x86_64-w64-mingw32/lib/../lib/libmingwex.a(lib64_libmingwex_a-strnlen.o)
 .data          0x0000000000449a00        0x0 C:/mingw64/w64/bin/../lib/gcc/x86_64-w64-mingw32/8.1.0/../../../../x86_64-w64-mingw32/lib/../lib/libmingwex.a(lib64_libmingwex_a-wcrtomb.o)
 .data          0x0000000000449a00        0x0 C:/mingw64/w64/bin/../lib/gcc/x86_64-w64-mingw32/8.1.0/../../../../x86_64-w64-mingw32/lib/../lib/libmingwex.a(lib64_libmingwex_a-wcsnlen.o)
 .data          0x0000000000449a00        0x0 C:/mingw64/w64/bin/../lib/gcc/x86_64-w64-mingw32/8.1.0/../../../../x86_64-w64-mingw32/lib/../lib/libmsvcrt.a(duags01264.o)
 .data          0x0000000000449a00        0x0 C:/mingw64/w64/bin/../lib/gcc/x86_64-w64-mingw32/8.1.0/../../../../x86_64-w64-mingw32/lib/../lib/libmsvcrt.a(duags01243.o)
 .data          0x0000000000449a00        0x0 C:/mingw64/w64/bin/../lib/gcc/x86_64-w64-mingw32/8.1.0/../../../../x86_64-w64-mingw32/lib/../lib/libmsvcrt.a(duags01238.o)
 .data          0x0000000000449a00        0x0 C:/mingw64/w64/bin/../lib/gcc/x86_64-w64-mingw32/8.1.0/../../../../x86_64-w64-mingw32/lib/../lib/libmsvcrt.a(duags01237.o)
 .data          0x0000000000449a00        0x0 C:/mingw64/w64/bin/../lib/gcc/x86_64-w64-mingw32/8.1.0/../../../../x86_64-w64-mingw32/lib/../lib/libmsvcrt.a(duags01235.o)
 .data          0x0000000000449a00        0x0 C:/mingw64/w64/bin/../lib/gcc/x86_64-w64-mingw32/8.1.0/../../../../x86_64-w64-mingw32/lib/../lib/libmsvcrt.a(duags01223.o)
 .data          0x0000000000449a00        0x0 C:/mingw64/w64/bin/../lib/gcc/x86_64-w64-mingw32/8.1.0/../../../../x86_64-w64-mingw32/lib/../lib/libmsvcrt.a(duags01222.o)
 .data          0x0000000000449a00        0x0 C:/mingw64/w64/bin/../lib/gcc/x86_64-w64-mingw32/8.1.0/../../../../x86_64-w64-mingw32/lib/../lib/libmsvcrt.a(duags01215.o)
 .data          0x0000000000449a00        0x0 C:/mingw64/w64/bin/../lib/gcc/x86_64-w64-mingw32/8.1.0/../../../../x86_64-w64-mingw32/lib/../lib/libmsvcrt.a(duags01212.o)
 .data          0x0000000000449a00        0x0 C:/mingw64/w64/bin/../lib/gcc/x86_64-w64-mingw32/8.1.0/../../../../x86_64-w64-mingw32/lib/../lib/libmsvcrt.a(duags01211.o)
 .data          0x0000000000449a00        0x0 C:/mingw64/w64/bin/../lib/gcc/x86_64-w64-mingw32/8.1.0/../../../../x86_64-w64-mingw32/lib/../lib/libmsvcrt.a(duags01209.o)
 .data          0x0000000000449a00        0x0 C:/mingw64/w64/bin/../lib/gcc/x86_64-w64-mingw32/8.1.0/../../../../x86_64-w64-mingw32/lib/../lib/libmsvcrt.a(duags01208.o)
 .data          0x0000000000449a00        0x0 C:/mingw64/w64/bin/../lib/gcc/x86_64-w64-mingw32/8.1.0/../../../../x86_64-w64-mingw32/lib/../lib/libmsvcrt.a(duags01207.o)
 .data          0x0000000000449a00        0x0 C:/mingw64/w64/bin/../lib/gcc/x86_64-w64-mingw32/8.1.0/../../../../x86_64-w64-mingw32/lib/../lib/libmsvcrt.a(duags01206.o)
 .data          0x0000000000449a00        0x0 C:/mingw64/w64/bin/../lib/gcc/x86_64-w64-mingw32/8.1.0/../../../../x86_64-w64-mingw32/lib/../lib/libmsvcrt.a(duags01203.o)
 .data          0x0000000000449a00        0x0 C:/mingw64/w64/bin/../lib/gcc/x86_64-w64-mingw32/8.1.0/../../../../x86_64-w64-mingw32/lib/../lib/libmsvcrt.a(duags01200.o)
 .data          0x0000000000449a00        0x0 C:/mingw64/w64/bin/../lib/gcc/x86_64-w64-mingw32/8.1.0/../../../../x86_64-w64-mingw32/lib/../lib/libmsvcrt.a(duags01198.o)
 .data          0x0000000000449a00        0x0 C:/mingw64/w64/bin/../lib/gcc/x86_64-w64-mingw32/8.1.0/../../../../x86_64-w64-mingw32/lib/../lib/libmsvcrt.a(duags01187.o)
 .data          0x0000000000449a00        0x0 C:/mingw64/w64/bin/../lib/gcc/x86_64-w64-mingw32/8.1.0/../../../../x86_64-w64-mingw32/lib/../lib/libmsvcrt.a(duags01159.o)
 .data          0x0000000000449a00        0x0 C:/mingw64/w64/bin/../lib/gcc/x86_64-w64-mingw32/8.1.0/../../../../x86_64-w64-mingw32/lib/../lib/libmsvcrt.a(duags01158.o)
 .data          0x0000000000449a00        0x0 C:/mingw64/w64/bin/../lib/gcc/x86_64-w64-mingw32/8.1.0/../../../../x86_64-w64-mingw32/lib/../lib/libmsvcrt.a(duags01157.o)
 .data          0x0000000000449a00        0x0 C:/mingw64/w64/bin/../lib/gcc/x86_64-w64-mingw32/8.1.0/../../../../x86_64-w64-mingw32/lib/../lib/libmsvcrt.a(duags01156.o)
 .data          0x0000000000449a00        0x0 C:/mingw64/w64/bin/../lib/gcc/x86_64-w64-mingw32/8.1.0/../../../../x86_64-w64-mingw32/lib/../lib/libmsvcrt.a(duags01149.o)
 .data          0x0000000000449a00        0x0 C:/mingw64/w64/bin/../lib/gcc/x86_64-w64-mingw32/8.1.0/../../../../x86_64-w64-mingw32/lib/../lib/libmsvcrt.a(duags01142.o)
 .data          0x0000000000449a00        0x0 C:/mingw64/w64/bin/../lib/gcc/x86_64-w64-mingw32/8.1.0/../../../../x86_64-w64-mingw32/lib/../lib/libmsvcrt.a(duags01138.o)
 .data          0x0000000000449a00        0x0 C:/mingw64/w64/bin/../lib/gcc/x86_64-w64-mingw32/8.1.0/../../../../x86_64-w64-mingw32/lib/../lib/libmsvcrt.a(duags01122.o)
 .data          0x0000000000449a00        0x0 C:/mingw64/w64/bin/../lib/gcc/x86_64-w64-mingw32/8.1.0/../../../../x86_64-w64-mingw32/lib/../lib/libmsvcrt.a(duags01121.o)
 .data          0x0000000000449a00        0x0 C:/mingw64/w64/bin/../lib/gcc/x86_64-w64-mingw32/8.1.0/../../../../x86_64-w64-mingw32/lib/../lib/libmsvcrt.a(duags01114.o)
 .data          0x0000000000449a00        0x0 C:/mingw64/w64/bin/../lib/gcc/x86_64-w64-mingw32/8.1.0/../../../../x86_64-w64-mingw32/lib/../lib/libmsvcrt.a(duags01113.o)
 .data          0x0000000000449a00        0x0 C:/mingw64/w64/bin/../lib/gcc/x86_64-w64-mingw32/8.1.0/../../../../x86_64-w64-mingw32/lib/../lib/libmsvcrt.a(duags01106.o)
 .data          0x0000000000449a00        0x0 C:/mingw64/w64/bin/../lib/gcc/x86_64-w64-mingw32/8.1.0/../../../../x86_64-w64-mingw32/lib/../lib/libmsvcrt.a(duags01101.o)
 .data          0x0000000000449a00        0x0 C:/mingw64/w64/bin/../lib/gcc/x86_64-w64-mingw32/8.1.0/../../../../x86_64-w64-mingw32/lib/../lib/libmsvcrt.a(duags01089.o)
 .data          0x0000000000449a00        0x0 C:/mingw64/w64/bin/../lib/gcc/x86_64-w64-mingw32/8.1.0/../../../../x86_64-w64-mingw32/lib/../lib/libmsvcrt.a(duags01088.o)
 .data          0x0000000000449a00        0x0 C:/mingw64/w64/bin/../lib/gcc/x86_64-w64-mingw32/8.1.0/../../../../x86_64-w64-mingw32/lib/../lib/libmsvcrt.a(duags01085.o)
 .data          0x0000000000449a00        0x0 C:/mingw64/w64/bin/../lib/gcc/x86_64-w64-mingw32/8.1.0/../../../../x86_64-w64-mingw32/lib/../lib/libmsvcrt.a(duags01084.o)
 .data          0x0000000000449a00        0x0 C:/mingw64/w64/bin/../lib/gcc/x86_64-w64-mingw32/8.1.0/../../../../x86_64-w64-mingw32/lib/../lib/libmsvcrt.a(duags01082.o)
 .data          0x0000000000449a00        0x0 C:/mingw64/w64/bin/../lib/gcc/x86_64-w64-mingw32/8.1.0/../../../../x86_64-w64-mingw32/lib/../lib/libmsvcrt.a(duags01080.o)
 .data          0x0000000000449a00        0x0 C:/mingw64/w64/bin/../lib/gcc/x86_64-w64-mingw32/8.1.0/../../../../x86_64-w64-mingw32/lib/../lib/libmsvcrt.a(duags01073.o)
 .data          0x0000000000449a00        0x0 C:/mingw64/w64/bin/../lib/gcc/x86_64-w64-mingw32/8.1.0/../../../../x86_64-w64-mingw32/lib/../lib/libmsvcrt.a(duags01067.o)
 .data          0x0000000000449a00        0x0 C:/mingw64/w64/bin/../lib/gcc/x86_64-w64-mingw32/8.1.0/../../../../x86_64-w64-mingw32/lib/../lib/libmsvcrt.a(duags01063.o)
 .data          0x0000000000449a00        0x0 C:/mingw64/w64/bin/../lib/gcc/x86_64-w64-mingw32/8.1.0/../../../../x86_64-w64-mingw32/lib/../lib/libmsvcrt.a(duags01050.o)
 .data          0x0000000000449a00        0x0 C:/mingw64/w64/bin/../lib/gcc/x86_64-w64-mingw32/8.1.0/../../../../x86_64-w64-mingw32/lib/../lib/libmsvcrt.a(duags01032.o)
 .data          0x0000000000449a00        0x0 C:/mingw64/w64/bin/../lib/gcc/x86_64-w64-mingw32/8.1.0/../../../../x86_64-w64-mingw32/lib/../lib/libmsvcrt.a(duags00791.o)
 .data          0x0000000000449a00        0x0 C:/mingw64/w64/bin/../lib/gcc/x86_64-w64-mingw32/8.1.0/../../../../x86_64-w64-mingw32/lib/../lib/libmsvcrt.a(duags00749.o)
 .data          0x0000000000449a00        0x0 C:/mingw64/w64/bin/../lib/gcc/x86_64-w64-mingw32/8.1.0/../../../../x86_64-w64-mingw32/lib/../lib/libmsvcrt.a(duags00730.o)
 .data          0x0000000000449a00        0x0 C:/mingw64/w64/bin/../lib/gcc/x86_64-w64-mingw32/8.1.0/../../../../x86_64-w64-mingw32/lib/../lib/libmsvcrt.a(duags00723.o)
 .data          0x0000000000449a00        0x0 C:/mingw64/w64/bin/../lib/gcc/x86_64-w64-mingw32/8.1.0/../../../../x86_64-w64-mingw32/lib/../lib/libmsvcrt.a(duags00647.o)
 .data          0x0000000000449a00        0x0 C:/mingw64/w64/bin/../lib/gcc/x86_64-w64-mingw32/8.1.0/../../../../x86_64-w64-mingw32/lib/../lib/libmsvcrt.a(duags00634.o)
 .data          0x0000000000449a00        0x0 C:/mingw64/w64/bin/../lib/gcc/x86_64-w64-mingw32/8.1.0/../../../../x86_64-w64-mingw32/lib/../lib/libmsvcrt.a(duags00617.o)
 .data          0x0000000000449a00        0x0 C:/mingw64/w64/bin/../lib/gcc/x86_64-w64-mingw32/8.1.0/../../../../x86_64-w64-mingw32/lib/../lib/libmsvcrt.a(duags00616.o)
 .data          0x0000000000449a00        0x0 C:/mingw64/w64/bin/../lib/gcc/x86_64-w64-mingw32/8.1.0/../../../../x86_64-w64-mingw32/lib/../lib/libmsvcrt.a(duags00614.o)
 .data          0x0000000000449a00        0x0 C:/mingw64/w64/bin/../lib/gcc/x86_64-w64-mingw32/8.1.0/../../../../x86_64-w64-mingw32/lib/../lib/libmsvcrt.a(duags00440.o)
 .data          0x0000000000449a00        0x0 C:/mingw64/w64/bin/../lib/gcc/x86_64-w64-mingw32/8.1.0/../../../../x86_64-w64-mingw32/lib/../lib/libmsvcrt.a(duags00337.o)
 .data          0x0000000000449a00        0x0 C:/mingw64/w64/bin/../lib/gcc/x86_64-w64-mingw32/8.1.0/../../../../x86_64-w64-mingw32/lib/../lib/libmsvcrt.a(duags00332.o)
 .data          0x0000000000449a00        0x0 C:/mingw64/w64/bin/../lib/gcc/x86_64-w64-mingw32/8.1.0/../../../../x86_64-w64-mingw32/lib/../lib/libmsvcrt.a(duags00301.o)
 .data          0x0000000000449a00        0x0 C:/mingw64/w64/bin/../lib/gcc/x86_64-w64-mingw32/8.1.0/../../../../x86_64-w64-mingw32/lib/../lib/libmsvcrt.a(duags00291.o)
 .data          0x0000000000449a00        0x0 C:/mingw64/w64/bin/../lib/gcc/x86_64-w64-mingw32/8.1.0/../../../../x86_64-w64-mingw32/lib/../lib/libmsvcrt.a(duags00245.o)
 .data          0x0000000000449a00        0x0 C:/mingw64/w64/bin/../lib/gcc/x86_64-w64-mingw32/8.1.0/../../../../x86_64-w64-mingw32/lib/../lib/libmsvcrt.a(duags00243.o)
 .data          0x0000000000449a00        0x0 C:/mingw64/w64/bin/../lib/gcc/x86_64-w64-mingw32/8.1.0/../../../../x86_64-w64-mingw32/lib/../lib/libmsvcrt.a(duags00240.o)
 .data          0x0000000000449a00        0x0 C:/mingw64/w64/bin/../lib/gcc/x86_64-w64-mingw32/8.1.0/../../../../x86_64-w64-mingw32/lib/../lib/libmsvcrt.a(duags00237.o)
 .data          0x0000000000449a00        0x0 C:/mingw64/w64/bin/../lib/gcc/x86_64-w64-mingw32/8.1.0/../../../../x86_64-w64-mingw32/lib/../lib/libmsvcrt.a(duags00203.o)
 .data          0x0000000000449a00        0x0 C:/mingw64/w64/bin/../lib/gcc/x86_64-w64-mingw32/8.1.0/../../../../x86_64-w64-mingw32/lib/../lib/libmsvcrt.a(duags00166.o)
 .data          0x0000000000449a00        0x0 C:/mingw64/w64/bin/../lib/gcc/x86_64-w64-mingw32/8.1.0/../../../../x86_64-w64-mingw32/lib/../lib/libmsvcrt.a(duags00141.o)
 .data          0x0000000000449a00        0x0 C:/mingw64/w64/bin/../lib/gcc/x86_64-w64-mingw32/8.1.0/../../../../x86_64-w64-mingw32/lib/../lib/libmsvcrt.a(duags00122.o)
 .data          0x0000000000449a00        0x0 C:/mingw64/w64/bin/../lib/gcc/x86_64-w64-mingw32/8.1.0/../../../../x86_64-w64-mingw32/lib/../lib/libmsvcrt.a(duags00114.o)
 .data          0x0000000000449a00        0x0 C:/mingw64/w64/bin/../lib/gcc/x86_64-w64-mingw32/8.1.0/../../../../x86_64-w64-mingw32/lib/../lib/libmsvcrt.a(duags00098.o)
 .data          0x0000000000449a00        0x0 C:/mingw64/w64/bin/../lib/gcc/x86_64-w64-mingw32/8.1.0/../../../../x86_64-w64-mingw32/lib/../lib/libmsvcrt.a(duags00096.o)
 .data          0x0000000000449a00        0x0 C:/mingw64/w64/bin/../lib/gcc/x86_64-w64-mingw32/8.1.0/../../../../x86_64-w64-mingw32/lib/../lib/libmsvcrt.a(duags00090.o)
 .data          0x0000000000449a00        0x0 C:/mingw64/w64/bin/../lib/gcc/x86_64-w64-mingw32/8.1.0/../../../../x86_64-w64-mingw32/lib/../lib/libmsvcrt.a(duags00082.o)
 .data          0x0000000000449a00        0x0 C:/mingw64/w64/bin/../lib/gcc/x86_64-w64-mingw32/8.1.0/../../../../x86_64-w64-mingw32/lib/../lib/libmsvcrt.a(duags00081.o)
 .data          0x0000000000449a00        0x0 C:/mingw64/w64/bin/../lib/gcc/x86_64-w64-mingw32/8.1.0/../../../../x86_64-w64-mingw32/lib/../lib/libmsvcrt.a(duags00069.o)
 .data          0x0000000000449a00        0x0 C:/mingw64/w64/bin/../lib/gcc/x86_64-w64-mingw32/8.1.0/../../../../x86_64-w64-mingw32/lib/../lib/libmsvcrt.a(duags00066.o)
 .data          0x0000000000449a00        0x0 C:/mingw64/w64/bin/../lib/gcc/x86_64-w64-mingw32/8.1.0/../../../../x86_64-w64-mingw32/lib/../lib/libmsvcrt.a(duags00063.o)
 .data          0x0000000000449a00       0x10 C:/mingw64/w64/bin/../lib/gcc/x86_64-w64-mingw32/8.1.0/../../../../x86_64-w64-mingw32/lib/../lib/libmsvcrt.a(lib64_libmsvcrt_os_a-acrt_iob_func.o)
                0x0000000000449a00                __imp___acrt_iob_func
 .data          0x0000000000449a10       0x10 C:/mingw64/w64/bin/../lib/gcc/x86_64-w64-mingw32/8.1.0/../../../../x86_64-w64-mingw32/lib/../lib/libmsvcrt.a(lib64_libmsvcrt_os_a-invalid_parameter_handler.o)
                0x0000000000449a10                __imp__get_invalid_parameter_handler
                0x0000000000449a18                __imp__set_invalid_parameter_handler
 .data          0x0000000000449a20       0x10 C:/mingw64/w64/bin/../lib/gcc/x86_64-w64-mingw32/8.1.0/../../../../x86_64-w64-mingw32/lib/../lib/libmsvcrt.a(lib64_libmsvcrt_os_a-mingw_lock.o)
                0x0000000000449a20                __imp__unlock_file
                0x0000000000449a28                __imp__lock_file
 .data          0x0000000000449a30       0x10 C:/mingw64/w64/bin/../lib/gcc/x86_64-w64-mingw32/8.1.0/../../../../x86_64-w64-mingw32/lib/../lib/libmsvcrt.a(lib64_libmsvcrt_os_a-__p___argv.o)
                0x0000000000449a30                __imp___p___argv
 .data          0x0000000000449a40       0x10 C:/mingw64/w64/bin/../lib/gcc/x86_64-w64-mingw32/8.1.0/../../../../x86_64-w64-mingw32/lib/../lib/libmsvcrt.a(lib64_libmsvcrt_os_a-__p__acmdln.o)
                0x0000000000449a40                __imp___p__acmdln
 .data          0x0000000000449a50       0x10 C:/mingw64/w64/bin/../lib/gcc/x86_64-w64-mingw32/8.1.0/../../../../x86_64-w64-mingw32/lib/../lib/libmsvcrt.a(lib64_libmsvcrt_os_a-__p__fmode.o)
                0x0000000000449a50                __imp___p__fmode
 .data          0x0000000000449a60        0x0 C:/mingw64/w64/bin/../lib/gcc/x86_64-w64-mingw32/8.1.0/../../../../x86_64-w64-mingw32/lib/../lib/libmsvcrt.a(duagh.o)
 .data          0x0000000000449a60        0x0 C:/mingw64/w64/bin/../lib/gcc/x86_64-w64-mingw32/8.1.0/../../../../x86_64-w64-mingw32/lib/../lib/libmsvcrt.a(duags00821.o)
 .data          0x0000000000449a60        0x0 C:/mingw64/w64/bin/../lib/gcc/x86_64-w64-mingw32/8.1.0/../../../../x86_64-w64-mingw32/lib/../lib/libmsvcrt.a(duags00441.o)
 .data          0x0000000000449a60        0x0 C:/mingw64/w64/bin/../lib/gcc/x86_64-w64-mingw32/8.1.0/../../../../x86_64-w64-mingw32/lib/../lib/libmsvcrt.a(duags00115.o)
 .data          0x0000000000449a60        0x0 C:/mingw64/w64/bin/../lib/gcc/x86_64-w64-mingw32/8.1.0/../../../../x86_64-w64-mingw32/lib/../lib/libmsvcrt.a(duags00083.o)
 .data          0x0000000000449a60        0x0 C:/mingw64/w64/bin/../lib/gcc/x86_64-w64-mingw32/8.1.0/../../../../x86_64-w64-mingw32/lib/../lib/libmsvcrt.a(duags00070.o)
 .data          0x0000000000449a60        0x0 C:/mingw64/w64/bin/../lib/gcc/x86_64-w64-mingw32/8.1.0/../../../../x86_64-w64-mingw32/lib/../lib/libmsvcrt.a(duagt.o)
 .data          0x0000000000449a60        0x0 C:/mingw64/w64/bin/../lib/gcc/x86_64-w64-mingw32/8.1.0/../../../../x86_64-w64-mingw32/lib/../lib/libkernel32.a(dqifs01490.o)
 .data          0x0000000000449a60        0x0 C:/mingw64/w64/bin/../lib/gcc/x86_64-w64-mingw32/8.1.0/../../../../x86_64-w64-mingw32/lib/../lib/libkernel32.a(dqifs01445.o)
 .data          0x0000000000449a60        0x0 C:/mingw64/w64/bin/../lib/gcc/x86_64-w64-mingw32/8.1.0/../../../../x86_64-w64-mingw32/lib/../lib/libkernel32.a(dqifs01443.o)
 .data          0x0000000000449a60        0x0 C:/mingw64/w64/bin/../lib/gcc/x86_64-w64-mingw32/8.1.0/../../../../x86_64-w64-mingw32/lib/../lib/libkernel32.a(dqifs01409.o)
 .data          0x0000000000449a60        0x0 C:/mingw64/w64/bin/../lib/gcc/x86_64-w64-mingw32/8.1.0/../../../../x86_64-w64-mingw32/lib/../lib/libkernel32.a(dqifs01395.o)
 .data          0x0000000000449a60        0x0 C:/mingw64/w64/bin/../lib/gcc/x86_64-w64-mingw32/8.1.0/../../../../x86_64-w64-mingw32/lib/../lib/libkernel32.a(dqifs01375.o)
 .data          0x0000000000449a60        0x0 C:/mingw64/w64/bin/../lib/gcc/x86_64-w64-mingw32/8.1.0/../../../../x86_64-w64-mingw32/lib/../lib/libkernel32.a(dqifs01194.o)
 .data          0x0000000000449a60        0x0 C:/mingw64/w64/bin/../lib/gcc/x86_64-w64-mingw32/8.1.0/../../../../x86_64-w64-mingw32/lib/../lib/libkernel32.a(dqifs01193.o)
 .data          0x0000000000449a60        0x0 C:/mingw64/w64/bin/../lib/gcc/x86_64-w64-mingw32/8.1.0/../../../../x86_64-w64-mingw32/lib/../lib/libkernel32.a(dqifs01187.o)
 .data          0x0000000000449a60        0x0 C:/mingw64/w64/bin/../lib/gcc/x86_64-w64-mingw32/8.1.0/../../../../x86_64-w64-mingw32/lib/../lib/libkernel32.a(dqifs01180.o)
 .data          0x0000000000449a60        0x0 C:/mingw64/w64/bin/../lib/gcc/x86_64-w64-mingw32/8.1.0/../../../../x86_64-w64-mingw32/lib/../lib/libkernel32.a(dqifs01179.o)
 .data          0x0000000000449a60        0x0 C:/mingw64/w64/bin/../lib/gcc/x86_64-w64-mingw32/8.1.0/../../../../x86_64-w64-mingw32/lib/../lib/libkernel32.a(dqifs01112.o)
 .data          0x0000000000449a60        0x0 C:/mingw64/w64/bin/../lib/gcc/x86_64-w64-mingw32/8.1.0/../../../../x86_64-w64-mingw32/lib/../lib/libkernel32.a(dqifs01093.o)
 .data          0x0000000000449a60        0x0 C:/mingw64/w64/bin/../lib/gcc/x86_64-w64-mingw32/8.1.0/../../../../x86_64-w64-mingw32/lib/../lib/libkernel32.a(dqifs00999.o)
 .data          0x0000000000449a60        0x0 C:/mingw64/w64/bin/../lib/gcc/x86_64-w64-mingw32/8.1.0/../../../../x86_64-w64-mingw32/lib/../lib/libkernel32.a(dqifs00951.o)
 .data          0x0000000000449a60        0x0 C:/mingw64/w64/bin/../lib/gcc/x86_64-w64-mingw32/8.1.0/../../../../x86_64-w64-mingw32/lib/../lib/libkernel32.a(dqifs00889.o)
 .data          0x0000000000449a60        0x0 C:/mingw64/w64/bin/../lib/gcc/x86_64-w64-mingw32/8.1.0/../../../../x86_64-w64-mingw32/lib/../lib/libkernel32.a(dqifs00863.o)
 .data          0x0000000000449a60        0x0 C:/mingw64/w64/bin/../lib/gcc/x86_64-w64-mingw32/8.1.0/../../../../x86_64-w64-mingw32/lib/../lib/libkernel32.a(dqifs00746.o)
 .data          0x0000000000449a60        0x0 C:/mingw64/w64/bin/../lib/gcc/x86_64-w64-mingw32/8.1.0/../../../../x86_64-w64-mingw32/lib/../lib/libkernel32.a(dqifs00540.o)
 .data          0x0000000000449a60        0x0 C:/mingw64/w64/bin/../lib/gcc/x86_64-w64-mingw32/8.1.0/../../../../x86_64-w64-mingw32/lib/../lib/libkernel32.a(dqifs00536.o)
 .data          0x0000000000449a60        0x0 C:/mingw64/w64/bin/../lib/gcc/x86_64-w64-mingw32/8.1.0/../../../../x86_64-w64-mingw32/lib/../lib/libkernel32.a(dqifs00535.o)
 .data          0x0000000000449a60        0x0 C:/mingw64/w64/bin/../lib/gcc/x86_64-w64-mingw32/8.1.0/../../../../x86_64-w64-mingw32/lib/../lib/libkernel32.a(dqifs00304.o)
 .data          0x0000000000449a60        0x0 C:/mingw64/w64/bin/../lib/gcc/x86_64-w64-mingw32/8.1.0/../../../../x86_64-w64-mingw32/lib/../lib/libkernel32.a(dqifs00268.o)
 .data          0x0000000000449a60        0x0 C:/mingw64/w64/bin/../lib/gcc/x86_64-w64-mingw32/8.1.0/../../../../x86_64-w64-mingw32/lib/../lib/libmsvcrt.a(duags00253.o)
 .data          0x0000000000449a60        0x0 C:/mingw64/w64/bin/../lib/gcc/x86_64-w64-mingw32/8.1.0/crtend.o
 *(.data2)
 *(SORT_BY_NAME(.data$*))
 .data$_ZGVZNK5Token5GetIdB5cxx11EvE2aa
                0x0000000000449a60       0x10 C:\orangec\src\..\src\lib\mingw64/libocpplib.a(Token.o)
                0x0000000000449a60                guard variable for Token::GetId[abi:cxx11]() const::aa
 *fill*         0x0000000000449a70       0x10 
 .data$_ZZNK5Token5GetIdB5cxx11EvE2aa
                0x0000000000449a80       0x20 C:\orangec\src\..\src\lib\mingw64/libocpplib.a(Token.o)
                0x0000000000449a80                Token::GetId[abi:cxx11]() const::aa
 .data$__security_cookie
                0x0000000000449aa0       0x10 C:/mingw64/w64/bin/../lib/gcc/x86_64-w64-mingw32/8.1.0/../../../../x86_64-w64-mingw32/lib/../lib/libmingw32.a(lib64_libmingw32_a-gs_support.o)
                0x0000000000449aa0                __security_cookie
 .data$__security_cookie_complement
                0x0000000000449ab0       0x10 C:/mingw64/w64/bin/../lib/gcc/x86_64-w64-mingw32/8.1.0/../../../../x86_64-w64-mingw32/lib/../lib/libmingw32.a(lib64_libmingw32_a-gs_support.o)
                0x0000000000449ab0                __security_cookie_complement
 *(.jcr)
                0x0000000000449ac0                __data_end__ = .
 *(.data_cygwin_nocopy)

.rdata          0x000000000044a000     0x4400
 *(.rdata)
 .rdata         0x000000000044a000      0x650 C:\orangec\src\ocpp\obj\mingw64\ppMain.o
 .rdata         0x000000000044a650       0xa0 C:\orangec\src\..\src\lib\mingw64/libocpplib.a(Errors.o)
 .rdata         0x000000000044a6f0       0xe0 C:\orangec\src\..\src\lib\mingw64/libocpplib.a(MakeStubs.o)
 .rdata         0x000000000044a7d0       0x70 C:\orangec\src\..\src\lib\mingw64/libocpplib.a(ppCtx.o)
 .rdata         0x000000000044a840      0x3b0 C:\orangec\src\..\src\lib\mingw64/libocpplib.a(ppDefine.o)
 .rdata         0x000000000044abf0      0x1b0 C:\orangec\src\..\src\lib\mingw64/libocpplib.a(ppExpr.o)
 .rdata         0x000000000044ada0      0x130 C:\orangec\src\..\src\lib\mingw64/libocpplib.a(ppInclude.o)
 .rdata         0x000000000044aed0      0x300 C:\orangec\src\..\src\lib\mingw64/libocpplib.a(ppMacro.o)
 .rdata         0x000000000044b1d0      0x110 C:\orangec\src\..\src\lib\mingw64/libocpplib.a(ppPragma.o)
 .rdata         0x000000000044b2e0      0x260 C:\orangec\src\..\src\lib\mingw64/libocpplib.a(PreProcessor.o)
 .rdata         0x000000000044b540       0x30 C:\orangec\src\..\src\lib\mingw64/libocpplib.a(SymbolTable.o)
 .rdata         0x000000000044b570      0x2a0 C:\orangec\src\..\src\lib\mingw64/libocpplib.a(Token.o)
 .rdata         0x000000000044b810      0x1f0 C:\orangec\src\..\src\lib\mingw64/libocpplib.a(Floating.o)
 .rdata         0x000000000044ba00       0x90 C:\orangec\src\..\src\lib\mingw64/libocpplib.a(InputFile.o)
 .rdata         0x000000000044ba90      0x250 C:\orangec\src\..\src\lib\mingw64/libocpplib.a(ppCond.o)
 .rdata         0x000000000044bce0       0x40 C:\orangec\src\..\src\lib\mingw64/libocpplib.a(ppError.o)
 .rdata         0x000000000044bd20       0xd0 C:\orangec\src\..\src\lib\mingw64/libocpplib.a(ppFile.o)
 .rdata         0x000000000044bdf0       0xa0 C:\orangec\src\..\src\lib\mingw64/libutil.a(CmdFiles.o)
 .rdata         0x000000000044be90       0xa0 C:\orangec\src\..\src\lib\mingw64/libutil.a(CmdSwitch.o)
 .rdata         0x000000000044bf30       0x40 C:\orangec\src\..\src\lib\mingw64/libutil.a(NamedPipe.o)
 .rdata         0x000000000044bf70       0x20 C:\orangec\src\..\src\lib\mingw64/libutil.a(UTF8.o)
 .rdata         0x000000000044bf90      0x1c0 C:\orangec\src\..\src\lib\mingw64/libutil.a(Utils.o)
 .rdata         0x000000000044c150       0x10 C:/mingw64/w64/bin/../lib/gcc/x86_64-w64-mingw32/8.1.0/../../../../x86_64-w64-mingw32/lib/../lib/libmingw32.a(lib64_libmingw32_a-gs_support.o)
 .rdata         0x000000000044c160       0x60 C:/mingw64/w64/bin/../lib/gcc/x86_64-w64-mingw32/8.1.0/../../../../x86_64-w64-mingw32/lib/../lib/libmingw32.a(lib64_libmingw32_a-tlssup.o)
                0x000000000044c160                __dyn_tls_init_callback
                0x000000000044c180                _tls_used
 .rdata         0x000000000044c1c0      0x140 C:/mingw64/w64/bin/../lib/gcc/x86_64-w64-mingw32/8.1.0/../../../../x86_64-w64-mingw32/lib/../lib/libmingw32.a(lib64_libmingw32_a-merr.o)
 .rdata         0x000000000044c300      0x110 C:/mingw64/w64/bin/../lib/gcc/x86_64-w64-mingw32/8.1.0/../../../../x86_64-w64-mingw32/lib/../lib/libmingw32.a(lib64_libmingw32_a-pseudo-reloc.o)
 .rdata         0x000000000044c410       0x10 C:/mingw64/w64/bin/../lib/gcc/x86_64-w64-mingw32/8.1.0/../../../../x86_64-w64-mingw32/lib/../lib/libmingw32.a(lib64_libmingw32_a-crt_handler.o)
 .rdata         0x000000000044c420      0x190 C:/mingw64/w64/bin/../lib/gcc/x86_64-w64-mingw32/8.1.0/../../../../x86_64-w64-mingw32/lib/../lib/libmingwex.a(lib64_libmingwex_a-mingw_pformat.o)
 .rdata         0x000000000044c5b0       0xa0 C:/mingw64/w64/bin/../lib/gcc/x86_64-w64-mingw32/8.1.0/../../../../x86_64-w64-mingw32/lib/../lib/libmingwex.a(lib64_libmingwex_a-gdtoa.o)
 *fill*         0x000000000044c650       0x10 
 .rdata         0x000000000044c660      0x160 C:/mingw64/w64/bin/../lib/gcc/x86_64-w64-mingw32/8.1.0/../../../../x86_64-w64-mingw32/lib/../lib/libmingwex.a(lib64_libmingwex_a-misc.o)
                0x000000000044c680                __tens_D2A
                0x000000000044c740                __tinytens_D2A
                0x000000000044c780                __bigtens_D2A
 .rdata         0x000000000044c7c0        0x8 ertr000001.o
 *(SORT_BY_NAME(.rdata$*))
 *fill*         0x000000000044c7c8        0x8 
 .rdata$.refptr._CRT_MT
                0x000000000044c7d0       0x10 C:/mingw64/w64/bin/../lib/gcc/x86_64-w64-mingw32/8.1.0/../../../../x86_64-w64-mingw32/lib/../lib/libmingw32.a(lib64_libmingw32_a-tlssup.o)
                0x000000000044c7d0                .refptr._CRT_MT
 .rdata$.refptr._MINGW_INSTALL_DEBUG_MATHERR
                0x000000000044c7e0       0x10 C:/mingw64/w64/bin/../lib/gcc/x86_64-w64-mingw32/8.1.0/../../../../x86_64-w64-mingw32/lib/../lib/crt2.o
                0x000000000044c7e0                .refptr._MINGW_INSTALL_DEBUG_MATHERR
 .rdata$.refptr._ZN10FPContract8instanceE
                0x000000000044c7f0       0x10 C:\orangec\src\ocpp\obj\mingw64\ppMain.o
                0x000000000044c7f0                .refptr._ZN10FPContract8instanceE
 .rdata$.refptr._ZN10FenvAccess8instanceE
                0x000000000044c800       0x10 C:\orangec\src\ocpp\obj\mingw64\ppMain.o
                0x000000000044c800                .refptr._ZN10FenvAccess8instanceE
 .rdata$.refptr._ZN12NumericToken3c99E
                0x000000000044c810       0x10 C:\orangec\src\ocpp\obj\mingw64\ppMain.o
                0x000000000044c810                .refptr._ZN12NumericToken3c99E
 .rdata$.refptr._ZN12NumericToken4ansiE
                0x000000000044c820       0x10 C:\orangec\src\ocpp\obj\mingw64\ppMain.o
                0x000000000044c820                .refptr._ZN12NumericToken4ansiE
 .rdata$.refptr._ZN14CXLimitedRange8instanceE
                0x000000000044c830       0x10 C:\orangec\src\ocpp\obj\mingw64\ppMain.o
                0x000000000044c830                .refptr._ZN14CXLimitedRange8instanceE
 .rdata$.refptr._ZN4Once8instanceE
                0x000000000044c840       0x10 C:\orangec\src\ocpp\obj\mingw64\ppMain.o
                0x000000000044c840                .refptr._ZN4Once8instanceE
 .rdata$.refptr._ZN5Utils7cleanupE
                0x000000000044c850       0x10 C:\orangec\src\ocpp\obj\mingw64\ppMain.o
                0x000000000044c850                .refptr._ZN5Utils7cleanupE
 .rdata$.refptr._ZN6Errors10errorCountE
                0x000000000044c860       0x10 C:\orangec\src\ocpp\obj\mingw64\ppMain.o
                0x000000000044c860                .refptr._ZN6Errors10errorCountE
 .rdata$.refptr._ZN6Errors12showWarningsE
                0x000000000044c870       0x10 C:\orangec\src\ocpp\obj\mingw64\ppMain.o
                0x000000000044c870                .refptr._ZN6Errors12showWarningsE
 .rdata$.refptr._ZN6Errors19showTrivialWarningsE
                0x000000000044c880       0x10 C:\orangec\src\ocpp\obj\mingw64\ppMain.o
                0x000000000044c880                .refptr._ZN6Errors19showTrivialWarningsE
 .rdata$.refptr._ZN6Errors7includeE
                0x000000000044c890       0x10 C:\orangec\src\ocpp\obj\mingw64\ppMain.o
                0x000000000044c890                .refptr._ZN6Errors7includeE
 .rdata$.refptr._ZN6Errors9maxErrorsE
                0x000000000044c8a0       0x10 C:\orangec\src\ocpp\obj\mingw64\ppMain.o
                0x000000000044c8a0                .refptr._ZN6Errors9maxErrorsE
 .rdata$.refptr._ZN6ppExpr4hashB5cxx11E
                0x000000000044c8b0       0x10 C:\orangec\src\..\src\lib\mingw64/libocpplib.a(ppMacro.o)
                0x000000000044c8b0                .refptr._ZN6ppExpr4hashB5cxx11E
 .rdata$.refptr._ZN6ppExpr7includeE
                0x000000000044c8c0       0x10 C:\orangec\src\ocpp\obj\mingw64\ppMain.o
                0x000000000044c8c0                .refptr._ZN6ppExpr7includeE
 .rdata$.refptr._ZN7Aliases8instanceE
                0x000000000044c8d0       0x10 C:\orangec\src\ocpp\obj\mingw64\ppMain.o
                0x000000000044c8d0                .refptr._ZN7Aliases8instanceE
 .rdata$.refptr._ZN7Packing8instanceE
                0x000000000044c8e0       0x10 C:\orangec\src\ocpp\obj\mingw64\ppMain.o
                0x000000000044c8e0                .refptr._ZN7Packing8instanceE
 .rdata$.refptr._ZN8CmdFiles7DIR_SEPE
                0x000000000044c8f0       0x10 C:\orangec\src\..\src\lib\mingw64/libocpplib.a(ppInclude.o)
                0x000000000044c8f0                .refptr._ZN8CmdFiles7DIR_SEPE
 .rdata$.refptr._ZN8CmdFiles8PATH_SEPE
                0x000000000044c900       0x10 C:\orangec\src\..\src\lib\mingw64/libutil.a(Utils.o)
                0x000000000044c900                .refptr._ZN8CmdFiles8PATH_SEPE
 .rdata$.refptr._ZN8Startups8instanceE
                0x000000000044c910       0x10 C:\orangec\src\ocpp\obj\mingw64\ppMain.o
                0x000000000044c910                .refptr._ZN8Startups8instanceE
 .rdata$.refptr._ZN9InputFile13fileNameCacheB5cxx11E
                0x000000000044c920       0x10 C:\orangec\src\..\src\lib\mingw64/libocpplib.a(ppInclude.o)
                0x000000000044c920                .refptr._ZN9InputFile13fileNameCacheB5cxx11E
 .rdata$.refptr._ZN9Libraries8instanceE
                0x000000000044c930       0x10 C:\orangec\src\ocpp\obj\mingw64\ppMain.o
                0x000000000044c930                .refptr._ZN9Libraries8instanceE
 .rdata$.refptr._ZN9Tokenizer12IsSymbolCharE
                0x000000000044c940       0x10 C:\orangec\src\ocpp\obj\mingw64\ppMain.o
                0x000000000044c940                .refptr._ZN9Tokenizer12IsSymbolCharE
 .rdata$.refptr._ZN9ppInclude11sysSrchPathB5cxx11E
                0x000000000044c950       0x10 C:\orangec\src\ocpp\obj\mingw64\ppMain.o
                0x000000000044c950                .refptr._ZN9ppInclude11sysSrchPathB5cxx11E
 .rdata$.refptr._ZN9ppInclude8srchPathB5cxx11E
                0x000000000044c960       0x10 C:\orangec\src\ocpp\obj\mingw64\ppMain.o
                0x000000000044c960                .refptr._ZN9ppInclude8srchPathB5cxx11E
 .rdata$.refptr._ZSt4cerr
                0x000000000044c970       0x10 C:\orangec\src\..\src\lib\mingw64/libutil.a(CmdSwitch.o)
                0x000000000044c970                __fu32__ZSt4cerr
                0x000000000044c970                .refptr._ZSt4cerr
 .rdata$.refptr._ZSt4cout
                0x000000000044c980       0x10 C:\orangec\src\ocpp\obj\mingw64\ppMain.o
                0x000000000044c980                .refptr._ZSt4cout
                0x000000000044c980                __fu31__ZSt4cout
 .rdata$.refptr._ZTTNSt7__cxx1118basic_stringstreamIcSt11char_traitsIcESaIcEEE
                0x000000000044c990       0x10 C:\orangec\src\..\src\lib\mingw64/libutil.a(Utils.o)
                0x000000000044c990                __fu34__ZTTNSt7__cxx1118basic_stringstreamIcSt11char_traitsIcESaIcEEE
                0x000000000044c990                .refptr._ZTTNSt7__cxx1118basic_stringstreamIcSt11char_traitsIcESaIcEEE
 .rdata$.refptr._ZTTSt13basic_fstreamIcSt11char_traitsIcEE
                0x000000000044c9a0       0x10 C:\orangec\src\ocpp\obj\mingw64\ppMain.o
                0x000000000044c9a0                .refptr._ZTTSt13basic_fstreamIcSt11char_traitsIcEE
                0x000000000044c9a0                __fu29__ZTTSt13basic_fstreamIcSt11char_traitsIcEE
 .rdata$.refptr._ZTV11SymbolTable
                0x000000000044c9b0       0x10 C:\orangec\src\..\src\lib\mingw64/libocpplib.a(ppDefine.o)
                0x000000000044c9b0                .refptr._ZTV11SymbolTable
 .rdata$.refptr._ZTV13CmdSwitchBool
                0x000000000044c9c0       0x10 C:\orangec\src\ocpp\obj\mingw64\ppMain.o
                0x000000000044c9c0                .refptr._ZTV13CmdSwitchBool
 .rdata$.refptr._ZTV13CmdSwitchFile
                0x000000000044c9d0       0x10 C:\orangec\src\ocpp\obj\mingw64\ppMain.o
                0x000000000044c9d0                .refptr._ZTV13CmdSwitchFile
 .rdata$.refptr._ZTV15CmdSwitchDefine
                0x000000000044c9e0       0x10 C:\orangec\src\ocpp\obj\mingw64\ppMain.o
                0x000000000044c9e0                .refptr._ZTV15CmdSwitchDefine
 .rdata$.refptr._ZTV15CmdSwitchString
                0x000000000044c9f0       0x10 C:\orangec\src\ocpp\obj\mingw64\ppMain.o
                0x000000000044c9f0                .refptr._ZTV15CmdSwitchString
 .rdata$.refptr._ZTV22CmdSwitchCombineString
                0x000000000044ca00       0x10 C:\orangec\src\ocpp\obj\mingw64\ppMain.o
                0x000000000044ca00                .refptr._ZTV22CmdSwitchCombineString
 .rdata$.refptr._ZTV6ppFile
                0x000000000044ca10       0x10 C:\orangec\src\..\src\lib\mingw64/libocpplib.a(ppInclude.o)
                0x000000000044ca10                .refptr._ZTV6ppFile
 .rdata$.refptr._ZTV9InputFile
                0x000000000044ca20       0x10 C:\orangec\src\..\src\lib\mingw64/libocpplib.a(ppInclude.o)
                0x000000000044ca20                .refptr._ZTV9InputFile
 .rdata$.refptr._ZTVNSt7__cxx1115basic_stringbufIcSt11char_traitsIcESaIcEEE
                0x000000000044ca30       0x10 C:\orangec\src\..\src\lib\mingw64/libutil.a(Utils.o)
                0x000000000044ca30                __fu35__ZTVNSt7__cxx1115basic_stringbufIcSt11char_traitsIcESaIcEEE
                0x000000000044ca30                .refptr._ZTVNSt7__cxx1115basic_stringbufIcSt11char_traitsIcESaIcEEE
 .rdata$.refptr._ZTVNSt7__cxx1118basic_stringstreamIcSt11char_traitsIcESaIcEEE
                0x000000000044ca40       0x10 C:\orangec\src\..\src\lib\mingw64/libutil.a(Utils.o)
                0x000000000044ca40                .refptr._ZTVNSt7__cxx1118basic_stringstreamIcSt11char_traitsIcESaIcEEE
                0x000000000044ca40                __fu33__ZTVNSt7__cxx1118basic_stringstreamIcSt11char_traitsIcESaIcEEE
 .rdata$.refptr._ZTVSt13basic_filebufIcSt11char_traitsIcEE
                0x000000000044ca50       0x10 C:\orangec\src\ocpp\obj\mingw64\ppMain.o
                0x000000000044ca50                .refptr._ZTVSt13basic_filebufIcSt11char_traitsIcEE
                0x000000000044ca50                __fu27__ZTVSt13basic_filebufIcSt11char_traitsIcEE
 .rdata$.refptr._ZTVSt13basic_fstreamIcSt11char_traitsIcEE
                0x000000000044ca60       0x10 C:\orangec\src\ocpp\obj\mingw64\ppMain.o
                0x000000000044ca60                __fu28__ZTVSt13basic_fstreamIcSt11char_traitsIcEE
                0x000000000044ca60                .refptr._ZTVSt13basic_fstreamIcSt11char_traitsIcEE
 .rdata$.refptr._ZTVSt15basic_streambufIcSt11char_traitsIcEE
                0x000000000044ca70       0x10 C:\orangec\src\ocpp\obj\mingw64\ppMain.o
                0x000000000044ca70                __fu26__ZTVSt15basic_streambufIcSt11char_traitsIcEE
                0x000000000044ca70                .refptr._ZTVSt15basic_streambufIcSt11char_traitsIcEE
 .rdata$.refptr._ZTVSt9basic_iosIcSt11char_traitsIcEE
                0x000000000044ca80       0x10 C:\orangec\src\ocpp\obj\mingw64\ppMain.o
                0x000000000044ca80                __fu30__ZTVSt9basic_iosIcSt11char_traitsIcEE
                0x000000000044ca80                .refptr._ZTVSt9basic_iosIcSt11char_traitsIcEE
 .rdata$.refptr.__CTOR_LIST__
                0x000000000044ca90       0x10 C:/mingw64/w64/bin/../lib/gcc/x86_64-w64-mingw32/8.1.0/../../../../x86_64-w64-mingw32/lib/../lib/libmingw32.a(lib64_libmingw32_a-gccmain.o)
                0x000000000044ca90                .refptr.__CTOR_LIST__
 .rdata$.refptr.__RUNTIME_PSEUDO_RELOC_LIST_END__
                0x000000000044caa0       0x10 C:/mingw64/w64/bin/../lib/gcc/x86_64-w64-mingw32/8.1.0/../../../../x86_64-w64-mingw32/lib/../lib/libmingw32.a(lib64_libmingw32_a-pseudo-reloc.o)
                0x000000000044caa0                .refptr.__RUNTIME_PSEUDO_RELOC_LIST_END__
 .rdata$.refptr.__RUNTIME_PSEUDO_RELOC_LIST__
                0x000000000044cab0       0x10 C:/mingw64/w64/bin/../lib/gcc/x86_64-w64-mingw32/8.1.0/../../../../x86_64-w64-mingw32/lib/../lib/libmingw32.a(lib64_libmingw32_a-pseudo-reloc.o)
                0x000000000044cab0                .refptr.__RUNTIME_PSEUDO_RELOC_LIST__
 .rdata$.refptr.__dyn_tls_init_callback
                0x000000000044cac0       0x10 C:/mingw64/w64/bin/../lib/gcc/x86_64-w64-mingw32/8.1.0/../../../../x86_64-w64-mingw32/lib/../lib/crt2.o
                0x000000000044cac0                .refptr.__dyn_tls_init_callback
 .rdata$.refptr.__image_base__
                0x000000000044cad0       0x10 C:/mingw64/w64/bin/../lib/gcc/x86_64-w64-mingw32/8.1.0/../../../../x86_64-w64-mingw32/lib/../lib/crt2.o
                0x000000000044cad0                .refptr.__image_base__
 .rdata$.refptr.__imp___argc
                0x000000000044cae0       0x10 C:\orangec\src\..\src\lib\mingw64/libutil.a(Utils.o)
                0x000000000044cae0                .refptr.__imp___argc
 .rdata$.refptr.__imp___argv
                0x000000000044caf0       0x10 C:/mingw64/w64/bin/../lib/gcc/x86_64-w64-mingw32/8.1.0/../../../../x86_64-w64-mingw32/lib/../lib/libmsvcrt.a(lib64_libmsvcrt_os_a-__p___argv.o)
                0x000000000044caf0                .refptr.__imp___argv
 .rdata$.refptr.__imp___initenv
                0x000000000044cb00       0x10 C:/mingw64/w64/bin/../lib/gcc/x86_64-w64-mingw32/8.1.0/../../../../x86_64-w64-mingw32/lib/../lib/crt2.o
                0x000000000044cb00                .refptr.__imp___initenv
 .rdata$.refptr.__imp__acmdln
                0x000000000044cb10       0x10 C:/mingw64/w64/bin/../lib/gcc/x86_64-w64-mingw32/8.1.0/../../../../x86_64-w64-mingw32/lib/../lib/libmsvcrt.a(lib64_libmsvcrt_os_a-__p__acmdln.o)
                0x000000000044cb10                .refptr.__imp__acmdln
 .rdata$.refptr.__imp__fmode
                0x000000000044cb20       0x10 C:/mingw64/w64/bin/../lib/gcc/x86_64-w64-mingw32/8.1.0/../../../../x86_64-w64-mingw32/lib/../lib/libmsvcrt.a(lib64_libmsvcrt_os_a-__p__fmode.o)
                0x000000000044cb20                .refptr.__imp__fmode
 .rdata$.refptr.__mingw_oldexcpt_handler
                0x000000000044cb30       0x10 C:/mingw64/w64/bin/../lib/gcc/x86_64-w64-mingw32/8.1.0/../../../../x86_64-w64-mingw32/lib/../lib/crt2.o
                0x000000000044cb30                .refptr.__mingw_oldexcpt_handler
 .rdata$.refptr.__native_startup_lock
                0x000000000044cb40       0x10 C:/mingw64/w64/bin/../lib/gcc/x86_64-w64-mingw32/8.1.0/../../../../x86_64-w64-mingw32/lib/../lib/crt2.o
                0x000000000044cb40                .refptr.__native_startup_lock
 .rdata$.refptr.__native_startup_state
                0x000000000044cb50       0x10 C:/mingw64/w64/bin/../lib/gcc/x86_64-w64-mingw32/8.1.0/../../../../x86_64-w64-mingw32/lib/../lib/crt2.o
                0x000000000044cb50                .refptr.__native_startup_state
 .rdata$.refptr.__tens_D2A
                0x000000000044cb60       0x10 C:/mingw64/w64/bin/../lib/gcc/x86_64-w64-mingw32/8.1.0/../../../../x86_64-w64-mingw32/lib/../lib/libmingwex.a(lib64_libmingwex_a-gdtoa.o)
                0x000000000044cb60                .refptr.__tens_D2A
 .rdata$.refptr.__xc_a
                0x000000000044cb70       0x10 C:/mingw64/w64/bin/../lib/gcc/x86_64-w64-mingw32/8.1.0/../../../../x86_64-w64-mingw32/lib/../lib/crt2.o
                0x000000000044cb70                .refptr.__xc_a
 .rdata$.refptr.__xc_z
                0x000000000044cb80       0x10 C:/mingw64/w64/bin/../lib/gcc/x86_64-w64-mingw32/8.1.0/../../../../x86_64-w64-mingw32/lib/../lib/crt2.o
                0x000000000044cb80                .refptr.__xc_z
 .rdata$.refptr.__xi_a
                0x000000000044cb90       0x10 C:/mingw64/w64/bin/../lib/gcc/x86_64-w64-mingw32/8.1.0/../../../../x86_64-w64-mingw32/lib/../lib/crt2.o
                0x000000000044cb90                .refptr.__xi_a
 .rdata$.refptr.__xi_z
                0x000000000044cba0       0x10 C:/mingw64/w64/bin/../lib/gcc/x86_64-w64-mingw32/8.1.0/../../../../x86_64-w64-mingw32/lib/../lib/crt2.o
                0x000000000044cba0                .refptr.__xi_z
 .rdata$.refptr._dowildcard
                0x000000000044cbb0       0x10 C:/mingw64/w64/bin/../lib/gcc/x86_64-w64-mingw32/8.1.0/../../../../x86_64-w64-mingw32/lib/../lib/crt2.o
                0x000000000044cbb0                .refptr._dowildcard
 .rdata$.refptr._fmode
                0x000000000044cbc0       0x10 C:/mingw64/w64/bin/../lib/gcc/x86_64-w64-mingw32/8.1.0/../../../../x86_64-w64-mingw32/lib/../lib/crt2.o
                0x000000000044cbc0                .refptr._fmode
 .rdata$.refptr._gnu_exception_handler
                0x000000000044cbd0       0x10 C:/mingw64/w64/bin/../lib/gcc/x86_64-w64-mingw32/8.1.0/../../../../x86_64-w64-mingw32/lib/../lib/crt2.o
                0x000000000044cbd0                .refptr._gnu_exception_handler
 .rdata$.refptr._matherr
                0x000000000044cbe0       0x10 C:/mingw64/w64/bin/../lib/gcc/x86_64-w64-mingw32/8.1.0/../../../../x86_64-w64-mingw32/lib/../lib/crt2.o
                0x000000000044cbe0                .refptr._matherr
 .rdata$.refptr._newmode
                0x000000000044cbf0       0x10 C:/mingw64/w64/bin/../lib/gcc/x86_64-w64-mingw32/8.1.0/../../../../x86_64-w64-mingw32/lib/../lib/crt2.o
                0x000000000044cbf0                .refptr._newmode
 .rdata$.refptr.mingw_app_type
                0x000000000044cc00       0x10 C:/mingw64/w64/bin/../lib/gcc/x86_64-w64-mingw32/8.1.0/../../../../x86_64-w64-mingw32/lib/../lib/crt2.o
                0x000000000044cc00                .refptr.mingw_app_type
 .rdata$.refptr.mingw_initcharmax
                0x000000000044cc10       0x10 C:/mingw64/w64/bin/../lib/gcc/x86_64-w64-mingw32/8.1.0/../../../../x86_64-w64-mingw32/lib/../lib/crt2.o
                0x000000000044cc10                .refptr.mingw_initcharmax
 .rdata$.refptr.mingw_initltsdrot_force
                0x000000000044cc20       0x10 C:/mingw64/w64/bin/../lib/gcc/x86_64-w64-mingw32/8.1.0/../../../../x86_64-w64-mingw32/lib/../lib/crt2.o
                0x000000000044cc20                .refptr.mingw_initltsdrot_force
 .rdata$.refptr.mingw_initltsdyn_force
                0x000000000044cc30       0x10 C:/mingw64/w64/bin/../lib/gcc/x86_64-w64-mingw32/8.1.0/../../../../x86_64-w64-mingw32/lib/../lib/crt2.o
                0x000000000044cc30                .refptr.mingw_initltsdyn_force
 .rdata$.refptr.mingw_initltssuo_force
                0x000000000044cc40       0x10 C:/mingw64/w64/bin/../lib/gcc/x86_64-w64-mingw32/8.1.0/../../../../x86_64-w64-mingw32/lib/../lib/crt2.o
                0x000000000044cc40                .refptr.mingw_initltssuo_force
 .rdata$.refptr.strtol
                0x000000000044cc50       0x10 C:\orangec\src\..\src\lib\mingw64/libutil.a(Utils.o)
                0x000000000044cc50                .refptr.strtol
 .rdata$_ZTI10ErrorToken
                0x000000000044cc60       0x20 C:\orangec\src\..\src\lib\mingw64/libocpplib.a(Token.o)
                0x000000000044cc60                typeinfo for ErrorToken
                0x000000000044cc60                __fu15__ZTVN10__cxxabiv120__si_class_type_infoE
 .rdata$_ZTI11StringToken
                0x000000000044cc80       0x20 C:\orangec\src\..\src\lib\mingw64/libocpplib.a(Token.o)
                0x000000000044cc80                __fu9__ZTVN10__cxxabiv120__si_class_type_infoE
                0x000000000044cc80                typeinfo for StringToken
 .rdata$_ZTI11SymbolTable
                0x000000000044cca0       0x10 C:\orangec\src\..\src\lib\mingw64/libocpplib.a(SymbolTable.o)
                0x000000000044cca0                __fu4__ZTVN10__cxxabiv117__class_type_infoE
                0x000000000044cca0                typeinfo for SymbolTable
 .rdata$_ZTI12CmdSwitchHex
                0x000000000044ccb0       0x20 C:\orangec\src\..\src\lib\mingw64/libutil.a(CmdSwitch.o)
                0x000000000044ccb0                __fu19__ZTVN10__cxxabiv120__si_class_type_infoE
                0x000000000044ccb0                typeinfo for CmdSwitchHex
 .rdata$_ZTI12CmdSwitchInt
                0x000000000044ccd0       0x20 C:\orangec\src\..\src\lib\mingw64/libutil.a(CmdSwitch.o)
                0x000000000044ccd0                typeinfo for CmdSwitchInt
                0x000000000044ccd0                __fu18__ZTVN10__cxxabiv120__si_class_type_infoE
 .rdata$_ZTI12KeywordToken
                0x000000000044ccf0       0x20 C:\orangec\src\..\src\lib\mingw64/libocpplib.a(Token.o)
                0x000000000044ccf0                __fu12__ZTVN10__cxxabiv120__si_class_type_infoE
                0x000000000044ccf0                typeinfo for KeywordToken
 .rdata$_ZTI12NumericToken
                0x000000000044cd10       0x20 C:\orangec\src\..\src\lib\mingw64/libocpplib.a(Token.o)
                0x000000000044cd10                typeinfo for NumericToken
                0x000000000044cd10                __fu11__ZTVN10__cxxabiv120__si_class_type_infoE
 .rdata$_ZTI13CmdSwitchBase
                0x000000000044cd30       0x10 C:\orangec\src\ocpp\obj\mingw64\ppMain.o
                0x000000000044cd30                __fu1__ZTVN10__cxxabiv117__class_type_infoE
                0x000000000044cd30                typeinfo for CmdSwitchBase
 .rdata$_ZTI13CmdSwitchBool
                0x000000000044cd40       0x20 C:\orangec\src\..\src\lib\mingw64/libutil.a(CmdSwitch.o)
                0x000000000044cd40                __fu17__ZTVN10__cxxabiv120__si_class_type_infoE
                0x000000000044cd40                typeinfo for CmdSwitchBool
 .rdata$_ZTI13CmdSwitchFile
                0x000000000044cd60       0x20 C:\orangec\src\..\src\lib\mingw64/libutil.a(CmdSwitch.o)
                0x000000000044cd60                typeinfo for CmdSwitchFile
                0x000000000044cd60                __fu25__ZTVN10__cxxabiv120__si_class_type_infoE
 .rdata$_ZTI14CharacterToken
                0x000000000044cd80       0x20 C:\orangec\src\..\src\lib\mingw64/libocpplib.a(Token.o)
                0x000000000044cd80                __fu10__ZTVN10__cxxabiv120__si_class_type_infoE
                0x000000000044cd80                typeinfo for CharacterToken
 .rdata$_ZTI14CmdSwitchCombo
                0x000000000044cda0       0x20 C:\orangec\src\..\src\lib\mingw64/libutil.a(CmdSwitch.o)
                0x000000000044cda0                __fu22__ZTVN10__cxxabiv120__si_class_type_infoE
                0x000000000044cda0                typeinfo for CmdSwitchCombo
 .rdata$_ZTI15CmdSwitchDefine
                0x000000000044cdc0       0x20 C:\orangec\src\..\src\lib\mingw64/libutil.a(CmdSwitch.o)
                0x000000000044cdc0                __fu24__ZTVN10__cxxabiv120__si_class_type_infoE
                0x000000000044cdc0                typeinfo for CmdSwitchDefine
 .rdata$_ZTI15CmdSwitchOutput
                0x000000000044cde0       0x20 C:\orangec\src\..\src\lib\mingw64/libutil.a(CmdSwitch.o)
                0x000000000044cde0                __fu23__ZTVN10__cxxabiv120__si_class_type_infoE
                0x000000000044cde0                typeinfo for CmdSwitchOutput
 .rdata$_ZTI15CmdSwitchString
                0x000000000044ce00       0x20 C:\orangec\src\..\src\lib\mingw64/libutil.a(CmdSwitch.o)
                0x000000000044ce00                __fu20__ZTVN10__cxxabiv120__si_class_type_infoE
                0x000000000044ce00                typeinfo for CmdSwitchString
 .rdata$_ZTI15IdentifierToken
                0x000000000044ce20       0x20 C:\orangec\src\..\src\lib\mingw64/libocpplib.a(Token.o)
                0x000000000044ce20                __fu13__ZTVN10__cxxabiv120__si_class_type_infoE
                0x000000000044ce20                typeinfo for IdentifierToken
 .rdata$_ZTI22CmdSwitchCombineString
                0x000000000044ce40       0x20 C:\orangec\src\..\src\lib\mingw64/libutil.a(CmdSwitch.o)
                0x000000000044ce40                __fu21__ZTVN10__cxxabiv120__si_class_type_infoE
                0x000000000044ce40                typeinfo for CmdSwitchCombineString
 .rdata$_ZTI5Token
                0x000000000044ce60       0x10 C:\orangec\src\..\src\lib\mingw64/libocpplib.a(Token.o)
                0x000000000044ce60                __fu5__ZTVN10__cxxabiv117__class_type_infoE
                0x000000000044ce60                typeinfo for Token
 .rdata$_ZTI6Symbol
                0x000000000044ce70       0x10 C:\orangec\src\..\src\lib\mingw64/libocpplib.a(ppDefine.o)
                0x000000000044ce70                typeinfo for Symbol
                0x000000000044ce70                __fu3__ZTVN10__cxxabiv117__class_type_infoE
 .rdata$_ZTI6ppFile
                0x000000000044ce80       0x20 C:\orangec\src\..\src\lib\mingw64/libocpplib.a(ppFile.o)
                0x000000000044ce80                __fu16__ZTVN10__cxxabiv120__si_class_type_infoE
                0x000000000044ce80                typeinfo for ppFile
 .rdata$_ZTI8EndToken
                0x000000000044cea0       0x20 C:\orangec\src\..\src\lib\mingw64/libocpplib.a(Token.o)
                0x000000000044cea0                typeinfo for EndToken
                0x000000000044cea0                __fu14__ZTVN10__cxxabiv120__si_class_type_infoE
 .rdata$_ZTI9InputFile
                0x000000000044cec0       0x10 C:\orangec\src\..\src\lib\mingw64/libocpplib.a(InputFile.o)
                0x000000000044cec0                typeinfo for InputFile
                0x000000000044cec0                __fu6__ZTVN10__cxxabiv117__class_type_infoE
 .rdata$_ZTI9Tokenizer
                0x000000000044ced0       0x10 C:\orangec\src\ocpp\obj\mingw64\ppMain.o
                0x000000000044ced0                typeinfo for Tokenizer
                0x000000000044ced0                __fu2__ZTVN10__cxxabiv117__class_type_infoE
 .rdata$_ZTIN8ppDefine10DefinitionE
                0x000000000044cee0       0x20 C:\orangec\src\..\src\lib\mingw64/libocpplib.a(ppDefine.o)
                0x000000000044cee0                __fu8__ZTVN10__cxxabiv120__si_class_type_infoE
                0x000000000044cee0                typeinfo for ppDefine::Definition
 .rdata$_ZTISt13runtime_error
                0x000000000044cf00       0x20 C:\orangec\src\ocpp\obj\mingw64\ppMain.o
                0x000000000044cf00                __fu7__ZTVN10__cxxabiv120__si_class_type_infoE
                0x000000000044cf00                typeinfo for std::runtime_error
 .rdata$_ZTISt9exception
                0x000000000044cf20       0x10 C:\orangec\src\ocpp\obj\mingw64\ppMain.o
                0x000000000044cf20                __fu0__ZTVN10__cxxabiv117__class_type_infoE
                0x000000000044cf20                typeinfo for std::exception
 .rdata$_ZTS10ErrorToken
                0x000000000044cf30       0x10 C:\orangec\src\..\src\lib\mingw64/libocpplib.a(Token.o)
                0x000000000044cf30                typeinfo name for ErrorToken
 .rdata$_ZTS11StringToken
                0x000000000044cf40       0x10 C:\orangec\src\..\src\lib\mingw64/libocpplib.a(Token.o)
                0x000000000044cf40                typeinfo name for StringToken
 .rdata$_ZTS11SymbolTable
                0x000000000044cf50       0x10 C:\orangec\src\..\src\lib\mingw64/libocpplib.a(SymbolTable.o)
                0x000000000044cf50                typeinfo name for SymbolTable
 .rdata$_ZTS12CmdSwitchHex
                0x000000000044cf60       0x10 C:\orangec\src\..\src\lib\mingw64/libutil.a(CmdSwitch.o)
                0x000000000044cf60                typeinfo name for CmdSwitchHex
 .rdata$_ZTS12CmdSwitchInt
                0x000000000044cf70       0x10 C:\orangec\src\..\src\lib\mingw64/libutil.a(CmdSwitch.o)
                0x000000000044cf70                typeinfo name for CmdSwitchInt
 .rdata$_ZTS12KeywordToken
                0x000000000044cf80       0x10 C:\orangec\src\..\src\lib\mingw64/libocpplib.a(Token.o)
                0x000000000044cf80                typeinfo name for KeywordToken
 .rdata$_ZTS12NumericToken
                0x000000000044cf90       0x10 C:\orangec\src\..\src\lib\mingw64/libocpplib.a(Token.o)
                0x000000000044cf90                typeinfo name for NumericToken
 .rdata$_ZTS13CmdSwitchBase
                0x000000000044cfa0       0x10 C:\orangec\src\ocpp\obj\mingw64\ppMain.o
                0x000000000044cfa0                typeinfo name for CmdSwitchBase
 .rdata$_ZTS13CmdSwitchBool
                0x000000000044cfb0       0x10 C:\orangec\src\..\src\lib\mingw64/libutil.a(CmdSwitch.o)
                0x000000000044cfb0                typeinfo name for CmdSwitchBool
 .rdata$_ZTS13CmdSwitchFile
                0x000000000044cfc0       0x10 C:\orangec\src\..\src\lib\mingw64/libutil.a(CmdSwitch.o)
                0x000000000044cfc0                typeinfo name for CmdSwitchFile
 .rdata$_ZTS14CharacterToken
                0x000000000044cfd0       0x20 C:\orangec\src\..\src\lib\mingw64/libocpplib.a(Token.o)
                0x000000000044cfd0                typeinfo name for CharacterToken
 .rdata$_ZTS14CmdSwitchCombo
                0x000000000044cff0       0x20 C:\orangec\src\..\src\lib\mingw64/libutil.a(CmdSwitch.o)
                0x000000000044cff0                typeinfo name for CmdSwitchCombo
 .rdata$_ZTS15CmdSwitchDefine
                0x000000000044d010       0x20 C:\orangec\src\..\src\lib\mingw64/libutil.a(CmdSwitch.o)
                0x000000000044d010                typeinfo name for CmdSwitchDefine
 .rdata$_ZTS15CmdSwitchOutput
                0x000000000044d030       0x20 C:\orangec\src\..\src\lib\mingw64/libutil.a(CmdSwitch.o)
                0x000000000044d030                typeinfo name for CmdSwitchOutput
 .rdata$_ZTS15CmdSwitchString
                0x000000000044d050       0x20 C:\orangec\src\..\src\lib\mingw64/libutil.a(CmdSwitch.o)
                0x000000000044d050                typeinfo name for CmdSwitchString
 .rdata$_ZTS15IdentifierToken
                0x000000000044d070       0x20 C:\orangec\src\..\src\lib\mingw64/libocpplib.a(Token.o)
                0x000000000044d070                typeinfo name for IdentifierToken
 .rdata$_ZTS22CmdSwitchCombineString
                0x000000000044d090       0x20 C:\orangec\src\..\src\lib\mingw64/libutil.a(CmdSwitch.o)
                0x000000000044d090                typeinfo name for CmdSwitchCombineString
 .rdata$_ZTS5Token
                0x000000000044d0b0       0x10 C:\orangec\src\..\src\lib\mingw64/libocpplib.a(Token.o)
                0x000000000044d0b0                typeinfo name for Token
 .rdata$_ZTS6Symbol
                0x000000000044d0c0       0x10 C:\orangec\src\..\src\lib\mingw64/libocpplib.a(ppDefine.o)
                0x000000000044d0c0                typeinfo name for Symbol
 .rdata$_ZTS6ppFile
                0x000000000044d0d0       0x10 C:\orangec\src\..\src\lib\mingw64/libocpplib.a(ppFile.o)
                0x000000000044d0d0                typeinfo name for ppFile
 .rdata$_ZTS8EndToken
                0x000000000044d0e0       0x10 C:\orangec\src\..\src\lib\mingw64/libocpplib.a(Token.o)
                0x000000000044d0e0                typeinfo name for EndToken
 .rdata$_ZTS9InputFile
                0x000000000044d0f0       0x10 C:\orangec\src\..\src\lib\mingw64/libocpplib.a(InputFile.o)
                0x000000000044d0f0                typeinfo name for InputFile
 .rdata$_ZTS9Tokenizer
                0x000000000044d100       0x10 C:\orangec\src\ocpp\obj\mingw64\ppMain.o
                0x000000000044d100                typeinfo name for Tokenizer
 .rdata$_ZTSN8ppDefine10DefinitionE
                0x000000000044d110       0x20 C:\orangec\src\..\src\lib\mingw64/libocpplib.a(ppDefine.o)
                0x000000000044d110                typeinfo name for ppDefine::Definition
 .rdata$_ZTSSt13runtime_error
                0x000000000044d130       0x20 C:\orangec\src\ocpp\obj\mingw64\ppMain.o
                0x000000000044d130                typeinfo name for std::runtime_error
 .rdata$_ZTSSt9exception
                0x000000000044d150       0x10 C:\orangec\src\ocpp\obj\mingw64\ppMain.o
                0x000000000044d150                typeinfo name for std::exception
 .rdata$_ZTV10ErrorToken
                0x000000000044d160       0xb0 C:\orangec\src\..\src\lib\mingw64/libocpplib.a(Token.o)
                0x000000000044d160                vtable for ErrorToken
 .rdata$_ZTV11StringToken
                0x000000000044d210       0xb0 C:\orangec\src\..\src\lib\mingw64/libocpplib.a(Token.o)
                0x000000000044d210                vtable for StringToken
 .rdata$_ZTV11SymbolTable
                0x000000000044d2c0       0x20 C:\orangec\src\..\src\lib\mingw64/libocpplib.a(SymbolTable.o)
                0x000000000044d2c0                vtable for SymbolTable
 .rdata$_ZTV12CmdSwitchHex
                0x000000000044d2e0       0x30 C:\orangec\src\..\src\lib\mingw64/libutil.a(CmdSwitch.o)
                0x000000000044d2e0                vtable for CmdSwitchHex
 .rdata$_ZTV12CmdSwitchInt
                0x000000000044d310       0x30 C:\orangec\src\..\src\lib\mingw64/libutil.a(CmdSwitch.o)
                0x000000000044d310                vtable for CmdSwitchInt
 .rdata$_ZTV12KeywordToken
                0x000000000044d340       0xb0 C:\orangec\src\..\src\lib\mingw64/libocpplib.a(Token.o)
                0x000000000044d340                vtable for KeywordToken
 .rdata$_ZTV12NumericToken
                0x000000000044d3f0       0xb0 C:\orangec\src\..\src\lib\mingw64/libocpplib.a(Token.o)
                0x000000000044d3f0                vtable for NumericToken
 .rdata$_ZTV13CmdSwitchBase
                0x000000000044d4a0       0x30 C:\orangec\src\ocpp\obj\mingw64\ppMain.o
                0x000000000044d4a0                vtable for CmdSwitchBase
 .rdata$_ZTV13CmdSwitchBool
                0x000000000044d4d0       0x30 C:\orangec\src\..\src\lib\mingw64/libutil.a(CmdSwitch.o)
                0x000000000044d4d0                vtable for CmdSwitchBool
 .rdata$_ZTV13CmdSwitchFile
                0x000000000044d500       0x30 C:\orangec\src\..\src\lib\mingw64/libutil.a(CmdSwitch.o)
                0x000000000044d500                vtable for CmdSwitchFile
 .rdata$_ZTV14CharacterToken
                0x000000000044d530       0xb0 C:\orangec\src\..\src\lib\mingw64/libocpplib.a(Token.o)
                0x000000000044d530                vtable for CharacterToken
 .rdata$_ZTV14CmdSwitchCombo
                0x000000000044d5e0       0x30 C:\orangec\src\..\src\lib\mingw64/libutil.a(CmdSwitch.o)
                0x000000000044d5e0                vtable for CmdSwitchCombo
 .rdata$_ZTV15CmdSwitchDefine
                0x000000000044d610       0x40 C:\orangec\src\..\src\lib\mingw64/libutil.a(CmdSwitch.o)
                0x000000000044d610                vtable for CmdSwitchDefine
 .rdata$_ZTV15CmdSwitchOutput
                0x000000000044d650       0x30 C:\orangec\src\..\src\lib\mingw64/libutil.a(CmdSwitch.o)
                0x000000000044d650                vtable for CmdSwitchOutput
 .rdata$_ZTV15CmdSwitchString
                0x000000000044d680       0x30 C:\orangec\src\..\src\lib\mingw64/libutil.a(CmdSwitch.o)
                0x000000000044d680                vtable for CmdSwitchString
 .rdata$_ZTV15IdentifierToken
                0x000000000044d6b0       0xb0 C:\orangec\src\..\src\lib\mingw64/libocpplib.a(Token.o)
                0x000000000044d6b0                vtable for IdentifierToken
 .rdata$_ZTV22CmdSwitchCombineString
                0x000000000044d760       0x30 C:\orangec\src\..\src\lib\mingw64/libutil.a(CmdSwitch.o)
                0x000000000044d760                vtable for CmdSwitchCombineString
 .rdata$_ZTV5Token
                0x000000000044d790       0xb0 C:\orangec\src\..\src\lib\mingw64/libocpplib.a(Token.o)
                0x000000000044d790                vtable for Token
 .rdata$_ZTV6Symbol
                0x000000000044d840       0x20 C:\orangec\src\..\src\lib\mingw64/libocpplib.a(ppDefine.o)
                0x000000000044d840                vtable for Symbol
 .rdata$_ZTV6ppFile
                0x000000000044d860       0x40 C:\orangec\src\..\src\lib\mingw64/libocpplib.a(ppFile.o)
                0x000000000044d860                vtable for ppFile
 .rdata$_ZTV8EndToken
                0x000000000044d8a0       0xb0 C:\orangec\src\..\src\lib\mingw64/libocpplib.a(Token.o)
                0x000000000044d8a0                vtable for EndToken
 .rdata$_ZTV9InputFile
                0x000000000044d950       0x40 C:\orangec\src\..\src\lib\mingw64/libocpplib.a(InputFile.o)
                0x000000000044d950                vtable for InputFile
 .rdata$_ZTV9Tokenizer
                0x000000000044d990       0x20 C:\orangec\src\ocpp\obj\mingw64\ppMain.o
                0x000000000044d990                vtable for Tokenizer
 .rdata$_ZTVN8ppDefine10DefinitionE
                0x000000000044d9b0       0x20 C:\orangec\src\..\src\lib\mingw64/libocpplib.a(ppDefine.o)
                0x000000000044d9b0                vtable for ppDefine::Definition
 .rdata$zzz     0x000000000044d9d0       0x40 C:\orangec\src\ocpp\obj\mingw64\ppMain.o
 .rdata$zzz     0x000000000044da10       0x40 C:\orangec\src\..\src\lib\mingw64/libocpplib.a(Errors.o)
 .rdata$zzz     0x000000000044da50       0x40 C:\orangec\src\..\src\lib\mingw64/libocpplib.a(MakeStubs.o)
 .rdata$zzz     0x000000000044da90       0x40 C:\orangec\src\..\src\lib\mingw64/libocpplib.a(PipeArbitrator.o)
 .rdata$zzz     0x000000000044dad0       0x40 C:\orangec\src\..\src\lib\mingw64/libocpplib.a(ppCtx.o)
 .rdata$zzz     0x000000000044db10       0x40 C:\orangec\src\..\src\lib\mingw64/libocpplib.a(ppDefine.o)
 .rdata$zzz     0x000000000044db50       0x40 C:\orangec\src\..\src\lib\mingw64/libocpplib.a(ppExpr.o)
 .rdata$zzz     0x000000000044db90       0x40 C:\orangec\src\..\src\lib\mingw64/libocpplib.a(ppInclude.o)
 .rdata$zzz     0x000000000044dbd0       0x40 C:\orangec\src\..\src\lib\mingw64/libocpplib.a(ppMacro.o)
 .rdata$zzz     0x000000000044dc10       0x40 C:\orangec\src\..\src\lib\mingw64/libocpplib.a(ppPragma.o)
 .rdata$zzz     0x000000000044dc50       0x40 C:\orangec\src\..\src\lib\mingw64/libocpplib.a(PreProcessor.o)
 .rdata$zzz     0x000000000044dc90       0x40 C:\orangec\src\..\src\lib\mingw64/libocpplib.a(SymbolTable.o)
 .rdata$zzz     0x000000000044dcd0       0x40 C:\orangec\src\..\src\lib\mingw64/libocpplib.a(Token.o)
 .rdata$zzz     0x000000000044dd10       0x40 C:\orangec\src\..\src\lib\mingw64/libocpplib.a(Floating.o)
 .rdata$zzz     0x000000000044dd50       0x40 C:\orangec\src\..\src\lib\mingw64/libocpplib.a(InputFile.o)
 .rdata$zzz     0x000000000044dd90       0x40 C:\orangec\src\..\src\lib\mingw64/libocpplib.a(ppCond.o)
 .rdata$zzz     0x000000000044ddd0       0x40 C:\orangec\src\..\src\lib\mingw64/libocpplib.a(ppError.o)
 .rdata$zzz     0x000000000044de10       0x40 C:\orangec\src\..\src\lib\mingw64/libocpplib.a(ppFile.o)
 .rdata$zzz     0x000000000044de50       0x40 C:\orangec\src\..\src\lib\mingw64/libutil.a(CmdFiles.o)
 .rdata$zzz     0x000000000044de90       0x40 C:\orangec\src\..\src\lib\mingw64/libutil.a(CmdSwitch.o)
 .rdata$zzz     0x000000000044ded0       0x40 C:\orangec\src\..\src\lib\mingw64/libutil.a(crc.o)
 .rdata$zzz     0x000000000044df10       0x40 C:\orangec\src\..\src\lib\mingw64/libutil.a(NamedPipe.o)
 .rdata$zzz     0x000000000044df50       0x40 C:\orangec\src\..\src\lib\mingw64/libutil.a(UTF8.o)
 .rdata$zzz     0x000000000044df90       0x40 C:\orangec\src\..\src\lib\mingw64/libutil.a(UTF8Table.o)
 .rdata$zzz     0x000000000044dfd0       0x40 C:\orangec\src\..\src\lib\mingw64/libutil.a(UTF8Upper.o)
 .rdata$zzz     0x000000000044e010       0x40 C:\orangec\src\..\src\lib\mingw64/libutil.a(Utils.o)
                0x000000000044e050                __rt_psrelocs_start = .
 *(.rdata_runtime_pseudo_reloc)
 .rdata_runtime_pseudo_reloc
                0x000000000044e050       0x18 rtr000000.o
 .rdata_runtime_pseudo_reloc
                0x000000000044e068        0xc rtr000002.o
 .rdata_runtime_pseudo_reloc
                0x000000000044e074        0xc rtr000003.o
 .rdata_runtime_pseudo_reloc
                0x000000000044e080        0xc rtr000004.o
 .rdata_runtime_pseudo_reloc
                0x000000000044e08c        0xc rtr000005.o
 .rdata_runtime_pseudo_reloc
                0x000000000044e098        0xc rtr000006.o
 .rdata_runtime_pseudo_reloc
                0x000000000044e0a4        0xc rtr000007.o
 .rdata_runtime_pseudo_reloc
                0x000000000044e0b0        0xc rtr000008.o
 .rdata_runtime_pseudo_reloc
                0x000000000044e0bc        0xc rtr000009.o
 .rdata_runtime_pseudo_reloc
                0x000000000044e0c8        0xc rtr000010.o
 .rdata_runtime_pseudo_reloc
                0x000000000044e0d4        0xc rtr000011.o
 .rdata_runtime_pseudo_reloc
                0x000000000044e0e0        0xc rtr000012.o
 .rdata_runtime_pseudo_reloc
                0x000000000044e0ec        0xc rtr000013.o
 .rdata_runtime_pseudo_reloc
                0x000000000044e0f8        0xc rtr000014.o
 .rdata_runtime_pseudo_reloc
                0x000000000044e104        0xc rtr000015.o
 .rdata_runtime_pseudo_reloc
                0x000000000044e110        0xc rtr000016.o
 .rdata_runtime_pseudo_reloc
                0x000000000044e11c        0xc rtr000017.o
 .rdata_runtime_pseudo_reloc
                0x000000000044e128        0xc rtr000018.o
 .rdata_runtime_pseudo_reloc
                0x000000000044e134        0xc rtr000019.o
 .rdata_runtime_pseudo_reloc
                0x000000000044e140        0xc rtr000020.o
 .rdata_runtime_pseudo_reloc
                0x000000000044e14c        0xc rtr000021.o
 .rdata_runtime_pseudo_reloc
                0x000000000044e158        0xc rtr000022.o
 .rdata_runtime_pseudo_reloc
                0x000000000044e164        0xc rtr000023.o
 .rdata_runtime_pseudo_reloc
                0x000000000044e170        0xc rtr000024.o
 .rdata_runtime_pseudo_reloc
                0x000000000044e17c        0xc rtr000025.o
 .rdata_runtime_pseudo_reloc
                0x000000000044e188        0xc rtr000026.o
 .rdata_runtime_pseudo_reloc
                0x000000000044e194        0xc rtr000027.o
 .rdata_runtime_pseudo_reloc
                0x000000000044e1a0        0xc rtr000028.o
 .rdata_runtime_pseudo_reloc
                0x000000000044e1ac        0xc rtr000029.o
 .rdata_runtime_pseudo_reloc
                0x000000000044e1b8        0xc rtr000030.o
 .rdata_runtime_pseudo_reloc
                0x000000000044e1c4        0xc rtr000031.o
 .rdata_runtime_pseudo_reloc
                0x000000000044e1d0        0xc rtr000032.o
 .rdata_runtime_pseudo_reloc
                0x000000000044e1dc        0xc rtr000033.o
 .rdata_runtime_pseudo_reloc
                0x000000000044e1e8        0xc rtr000034.o
 .rdata_runtime_pseudo_reloc
                0x000000000044e1f4        0xc rtr000035.o
 .rdata_runtime_pseudo_reloc
                0x000000000044e200        0xc rtr000036.o
                0x000000000044e20c                __rt_psrelocs_end = .
                0x00000000000001bc                __rt_psrelocs_size = (__rt_psrelocs_end - __rt_psrelocs_start)
                0x000000000044e20c                ___RUNTIME_PSEUDO_RELOC_LIST_END__ = .
                0x000000000044e20c                __RUNTIME_PSEUDO_RELOC_LIST_END__ = .
                0x000000000044e050                ___RUNTIME_PSEUDO_RELOC_LIST__ = (. - __rt_psrelocs_size)
                0x000000000044e050                __RUNTIME_PSEUDO_RELOC_LIST__ = (. - __rt_psrelocs_size)

.eh_frame
 *(.eh_frame*)

.pdata          0x000000000044f000     0x1e00
 *(.pdata*)
 .pdata         0x000000000044f000       0x54 C:/mingw64/w64/bin/../lib/gcc/x86_64-w64-mingw32/8.1.0/../../../../x86_64-w64-mingw32/lib/../lib/crt2.o
 .pdata         0x000000000044f054       0x18 C:/mingw64/w64/bin/../lib/gcc/x86_64-w64-mingw32/8.1.0/crtbegin.o
 .pdata$_ZNKSt5ctypeIcE8do_widenEc
                0x000000000044f06c        0xc C:\orangec\src\ocpp\obj\mingw64\ppMain.o
 .pdata$_ZN13CmdSwitchBase5ParseEPKc
                0x000000000044f078        0xc C:\orangec\src\ocpp\obj\mingw64\ppMain.o
 .pdata$_ZN13CmdSwitchBase9SetArgNumEi
                0x000000000044f084        0xc C:\orangec\src\ocpp\obj\mingw64\ppMain.o
 .pdata$_ZN13CmdSwitchBase16RequiresArgumentEv
                0x000000000044f090        0xc C:\orangec\src\ocpp\obj\mingw64\ppMain.o
 .pdata$_ZN9TokenizerD1Ev
                0x000000000044f09c        0xc C:\orangec\src\ocpp\obj\mingw64\ppMain.o
 .pdata         0x000000000044f0a8      0x150 C:\orangec\src\ocpp\obj\mingw64\ppMain.o
 .pdata$_ZN9TokenizerD0Ev
                0x000000000044f1f8        0xc C:\orangec\src\ocpp\obj\mingw64\ppMain.o
 .pdata$_ZNSt10_HashtableINSt7__cxx1112basic_stringIcSt11char_traitsIcESaIcEEESt4pairIKS5_St5stackIPN8ppDefine10DefinitionESt5dequeISB_SaISB_EEEESaISG_ENSt8__detail10_Select1stESt8equal_toIS5_ESt4hashIS5_ENSI_18_Mod_range_hashingENSI_20_Default_ranged_hashENSI_20_Prime_rehash_policyENSI_17_Hashtable_traitsILb1ELb0ELb1EEEED1Ev
                0x000000000044f204        0xc C:\orangec\src\ocpp\obj\mingw64\ppMain.o
 .pdata$_ZNSt10_HashtableINSt7__cxx1112basic_stringIcSt11char_traitsIcESaIcEEESt4pairIKS5_2kwESaIS9_ENSt8__detail10_Select1stESt8equal_toIS5_ESt4hashIS5_ENSB_18_Mod_range_hashingENSB_20_Default_ranged_hashENSB_20_Prime_rehash_policyENSB_17_Hashtable_traitsILb1ELb0ELb1EEEED1Ev
                0x000000000044f210        0xc C:\orangec\src\ocpp\obj\mingw64\ppMain.o
 .pdata$_ZN5Utils5fatalIJPKcEEEvS2_DpT_
                0x000000000044f21c        0xc C:\orangec\src\ocpp\obj\mingw64\ppMain.o
 .pdata$_ZNSt11_Deque_baseINSt7__cxx1112basic_stringIcSt11char_traitsIcESaIcEEESaIS5_EED2Ev
                0x000000000044f228        0xc C:\orangec\src\ocpp\obj\mingw64\ppMain.o
 .pdata$_ZNSt5dequeINSt7__cxx1112basic_stringIcSt11char_traitsIcESaIcEEESaIS5_EED1Ev
                0x000000000044f234        0xc C:\orangec\src\ocpp\obj\mingw64\ppMain.o
 .pdata$_ZN13CmdSwitchFileD1Ev
                0x000000000044f240        0xc C:\orangec\src\ocpp\obj\mingw64\ppMain.o
 .pdata$_ZNSt8_Rb_treeIP13CmdSwitchBaseS1_St9_IdentityIS1_ESt4lessIS1_ESaIS1_EE8_M_eraseEPSt13_Rb_tree_nodeIS1_E
                0x000000000044f24c        0xc C:\orangec\src\ocpp\obj\mingw64\ppMain.o
 .pdata$_ZNSt11_Deque_baseIiSaIiEED2Ev
                0x000000000044f258        0xc C:\orangec\src\ocpp\obj\mingw64\ppMain.o
 .pdata$_ZNSt8_Rb_treeINSt7__cxx1112basic_stringIcSt11char_traitsIcESaIcEEES5_St9_IdentityIS5_ESt4lessIS5_ESaIS5_EE8_M_eraseEPSt13_Rb_tree_nodeIS5_E
                0x000000000044f264        0xc C:\orangec\src\ocpp\obj\mingw64\ppMain.o
 .pdata$_ZNSt11_Deque_baseIbSaIbEED2Ev
                0x000000000044f270        0xc C:\orangec\src\ocpp\obj\mingw64\ppMain.o
 .pdata$_ZNSt7__cxx1110_List_baseINS_12basic_stringIcSt11char_traitsIcESaIcEEESaIS5_EE8_M_clearEv
                0x000000000044f27c        0xc C:\orangec\src\ocpp\obj\mingw64\ppMain.o
 .pdata$_ZNSt8_Rb_treeINSt7__cxx1112basic_stringIcSt11char_traitsIcESaIcEEESt4pairIKS5_St10unique_ptrIN8Startups10PropertiesESt14default_deleteISA_EEESt10_Select1stISE_ESt4lessIS5_ESaISE_EE8_M_eraseEPSt13_Rb_tree_nodeISE_E
                0x000000000044f288        0xc C:\orangec\src\ocpp\obj\mingw64\ppMain.o
 .pdata$_ZNSt8_Rb_treeIN4Once8OnceItemES1_St9_IdentityIS1_ESt4lessIS1_ESaIS1_EE8_M_eraseEPSt13_Rb_tree_nodeIS1_E
                0x000000000044f294        0xc C:\orangec\src\ocpp\obj\mingw64\ppMain.o
 .pdata$_ZSt11__remove_ifIN9__gnu_cxx17__normal_iteratorIPcNSt7__cxx1112basic_stringIcSt11char_traitsIcESaIcEEEEENS0_5__ops16_Iter_equals_valIKN8ppDefineUt_EEEET_SG_SG_T0_
                0x000000000044f2a0        0xc C:\orangec\src\ocpp\obj\mingw64\ppMain.o
 .pdata$_ZNSt11_Deque_baseINSt7__cxx1112basic_stringIcSt11char_traitsIcESaIcEEESaIS5_EE17_M_initialize_mapEy
                0x000000000044f2ac        0xc C:\orangec\src\ocpp\obj\mingw64\ppMain.o
 .pdata$_ZNSt11_Deque_baseIiSaIiEE17_M_initialize_mapEy
                0x000000000044f2b8        0xc C:\orangec\src\ocpp\obj\mingw64\ppMain.o
 .pdata$_ZNSt7__cxx1112basic_stringIcSt11char_traitsIcESaIcEE12_M_constructIPKcEEvT_S8_St20forward_iterator_tag
                0x000000000044f2c4        0xc C:\orangec\src\ocpp\obj\mingw64\ppMain.o
 .pdata$_ZNSt7__cxx1112basic_stringIcSt11char_traitsIcESaIcEE12_M_constructIPcEEvT_S7_St20forward_iterator_tag
                0x000000000044f2d0        0xc C:\orangec\src\ocpp\obj\mingw64\ppMain.o
 .pdata$_ZSt8_DestroyISt15_Deque_iteratorINSt7__cxx1112basic_stringIcSt11char_traitsIcESaIcEEERS6_PS6_EEvT_SA_
                0x000000000044f2dc        0xc C:\orangec\src\ocpp\obj\mingw64\ppMain.o
 .pdata$_ZNSt5dequeINSt7__cxx1112basic_stringIcSt11char_traitsIcESaIcEEESaIS5_EE19_M_range_initializeIPKS5_EEvT_SB_St20forward_iterator_tag
                0x000000000044f2e8        0xc C:\orangec\src\ocpp\obj\mingw64\ppMain.o
 .pdata.startup
                0x000000000044f2f4       0x30 C:\orangec\src\ocpp\obj\mingw64\ppMain.o
 .pdata$_ZN13CmdSwitchBoolC1ER15CmdSwitchParsercbSt5dequeINSt7__cxx1112basic_stringIcSt11char_traitsIcESaIcEEESaIS8_EE
                0x000000000044f324        0xc C:\orangec\src\ocpp\obj\mingw64\ppMain.o
 .pdata$_ZN15CmdSwitchDefineC1ER15CmdSwitchParsercSt5dequeINSt7__cxx1112basic_stringIcSt11char_traitsIcESaIcEEESaIS8_EE
                0x000000000044f330        0xc C:\orangec\src\ocpp\obj\mingw64\ppMain.o
 .pdata$_ZN15CmdSwitchStringC1ER15CmdSwitchParserccSt5dequeINSt7__cxx1112basic_stringIcSt11char_traitsIcESaIcEEESaIS8_EE
                0x000000000044f33c        0xc C:\orangec\src\ocpp\obj\mingw64\ppMain.o
 .pdata$_ZN15CmdSwitchParserC1Ev
                0x000000000044f348        0xc C:\orangec\src\ocpp\obj\mingw64\ppMain.o
 .pdata$_ZN22CmdSwitchCombineStringC1ER15CmdSwitchParserccSt5dequeINSt7__cxx1112basic_stringIcSt11char_traitsIcESaIcEEESaIS8_EE
                0x000000000044f354        0xc C:\orangec\src\ocpp\obj\mingw64\ppMain.o
 .pdata$_ZNSt5dequeIiSaIiEE16_M_push_back_auxIJiEEEvDpOT_
                0x000000000044f360        0xc C:\orangec\src\ocpp\obj\mingw64\ppMain.o
 .pdata$_ZNSt11_Deque_baseIbSaIbEE17_M_initialize_mapEy
                0x000000000044f36c        0xc C:\orangec\src\ocpp\obj\mingw64\ppMain.o
 .pdata$_ZNSt5dequeIbSaIbEE16_M_push_back_auxIJbEEEvDpOT_
                0x000000000044f378        0xc C:\orangec\src\ocpp\obj\mingw64\ppMain.o
 .pdata$_ZN8ppDefineD1Ev
                0x000000000044f384        0xc C:\orangec\src\ocpp\obj\mingw64\ppMain.o
 .pdata$_ZN12PreProcessorD1Ev
                0x000000000044f390        0xc C:\orangec\src\ocpp\obj\mingw64\ppMain.o
 .pdata         0x000000000044f39c       0xa8 C:\orangec\src\..\src\lib\mingw64/libocpplib.a(Errors.o)
 .pdata$_ZN5Utils5fatalEPKc
                0x000000000044f444        0xc C:\orangec\src\..\src\lib\mingw64/libocpplib.a(Errors.o)
 .pdata.startup
                0x000000000044f450        0xc C:\orangec\src\..\src\lib\mingw64/libocpplib.a(Errors.o)
 .pdata         0x000000000044f45c       0x24 C:\orangec\src\..\src\lib\mingw64/libocpplib.a(MakeStubs.o)
 .pdata$_ZNSt6vectorINSt7__cxx1112basic_stringIcSt11char_traitsIcESaIcEEESaIS5_EED1Ev
                0x000000000044f480        0xc C:\orangec\src\..\src\lib\mingw64/libocpplib.a(MakeStubs.o)
 .pdata.startup
                0x000000000044f48c        0xc C:\orangec\src\..\src\lib\mingw64/libocpplib.a(MakeStubs.o)
 .pdata         0x000000000044f498       0x24 C:\orangec\src\..\src\lib\mingw64/libocpplib.a(PipeArbitrator.o)
 .pdata         0x000000000044f4bc       0x48 C:\orangec\src\..\src\lib\mingw64/libocpplib.a(ppCtx.o)
 .pdata$_ZNSt5dequeISt10unique_ptrI7CtxDataSt14default_deleteIS1_EESaIS4_EE17_M_push_front_auxIJS4_EEEvDpOT_
                0x000000000044f504        0xc C:\orangec\src\..\src\lib\mingw64/libocpplib.a(ppCtx.o)
 .pdata$_ZN6SymbolD1Ev
                0x000000000044f510        0xc C:\orangec\src\..\src\lib\mingw64/libocpplib.a(ppDefine.o)
 .pdata         0x000000000044f51c      0x180 C:\orangec\src\..\src\lib\mingw64/libocpplib.a(ppDefine.o)
 .pdata$_ZN6SymbolD0Ev
                0x000000000044f69c        0xc C:\orangec\src\..\src\lib\mingw64/libocpplib.a(ppDefine.o)
 .pdata.unlikely
                0x000000000044f6a8        0xc C:\orangec\src\..\src\lib\mingw64/libocpplib.a(ppDefine.o)
 .pdata$_ZN8ppDefine10DefinitionD1Ev
                0x000000000044f6b4        0xc C:\orangec\src\..\src\lib\mingw64/libocpplib.a(ppDefine.o)
 .pdata$_ZN8ppDefine10DefinitionD0Ev
                0x000000000044f6c0        0xc C:\orangec\src\..\src\lib\mingw64/libocpplib.a(ppDefine.o)
 .pdata$_ZN6SymbolD2Ev
                0x000000000044f6cc        0xc C:\orangec\src\..\src\lib\mingw64/libocpplib.a(ppDefine.o)
 .pdata$_ZNSt10_HashtableINSt7__cxx1112basic_stringIcSt11char_traitsIcESaIcEEESt4pairIKS5_P6SymbolESaISA_ENSt8__detail10_Select1stESt8equal_toIS5_ESt4hashIS5_ENSC_18_Mod_range_hashingENSC_20_Default_ranged_hashENSC_20_Prime_rehash_policyENSC_17_Hashtable_traitsILb1ELb0ELb1EEEE4findERS7_
                0x000000000044f6d8        0xc C:\orangec\src\..\src\lib\mingw64/libocpplib.a(ppDefine.o)
 .pdata$_ZNSt5dequeIPN8ppDefine10DefinitionESaIS2_EE16_M_push_back_auxIJRKS2_EEEvDpOT_
                0x000000000044f6e4        0xc C:\orangec\src\..\src\lib\mingw64/libocpplib.a(ppDefine.o)
 .pdata$_ZNSt5dequeIN8ppDefine8TokenPosESaIS1_EE16_M_push_back_auxIJRKS1_EEEvDpOT_
                0x000000000044f6f0        0xc C:\orangec\src\..\src\lib\mingw64/libocpplib.a(ppDefine.o)
 .pdata$_ZNSt11_Deque_baseIPN8ppDefine10DefinitionESaIS2_EED2Ev
                0x000000000044f6fc        0xc C:\orangec\src\..\src\lib\mingw64/libocpplib.a(ppDefine.o)
 .pdata$_ZNSt11_Deque_baseIPN8ppDefine10DefinitionESaIS2_EE17_M_initialize_mapEy
                0x000000000044f708        0xc C:\orangec\src\..\src\lib\mingw64/libocpplib.a(ppDefine.o)
 .pdata$_ZNSt6vectorINSt7__cxx1112basic_stringIcSt11char_traitsIcESaIcEEESaIS5_EE17_M_realloc_insertIJRKS5_EEEvN9__gnu_cxx17__normal_iteratorIPS5_S7_EEDpOT_
                0x000000000044f714        0xc C:\orangec\src\..\src\lib\mingw64/libocpplib.a(ppDefine.o)
 .pdata$_ZNKSt10_HashtableINSt7__cxx1112basic_stringIcSt11char_traitsIcESaIcEEESt4pairIKS5_St5stackIPN8ppDefine10DefinitionESt5dequeISB_SaISB_EEEESaISG_ENSt8__detail10_Select1stESt8equal_toIS5_ESt4hashIS5_ENSI_18_Mod_range_hashingENSI_20_Default_ranged_hashENSI_20_Prime_rehash_policyENSI_17_Hashtable_traitsILb1ELb0ELb1EEEE19_M_find_before_nodeEyRS7_y
                0x000000000044f720        0xc C:\orangec\src\..\src\lib\mingw64/libocpplib.a(ppDefine.o)
 .pdata$_ZNSt10_HashtableINSt7__cxx1112basic_stringIcSt11char_traitsIcESaIcEEESt4pairIKS5_St5stackIPN8ppDefine10DefinitionESt5dequeISB_SaISB_EEEESaISG_ENSt8__detail10_Select1stESt8equal_toIS5_ESt4hashIS5_ENSI_18_Mod_range_hashingENSI_20_Default_ranged_hashENSI_20_Prime_rehash_policyENSI_17_Hashtable_traitsILb1ELb0ELb1EEEE4findERS7_
                0x000000000044f72c        0xc C:\orangec\src\..\src\lib\mingw64/libocpplib.a(ppDefine.o)
 .pdata$_ZNSt10_HashtableINSt7__cxx1112basic_stringIcSt11char_traitsIcESaIcEEESt4pairIKS5_St5stackIPN8ppDefine10DefinitionESt5dequeISB_SaISB_EEEESaISG_ENSt8__detail10_Select1stESt8equal_toIS5_ESt4hashIS5_ENSI_18_Mod_range_hashingENSI_20_Default_ranged_hashENSI_20_Prime_rehash_policyENSI_17_Hashtable_traitsILb1ELb0ELb1EEEE9_M_rehashEyRKy
                0x000000000044f738        0xc C:\orangec\src\..\src\lib\mingw64/libocpplib.a(ppDefine.o)
 .pdata$_ZNSt8__detail9_Map_baseINSt7__cxx1112basic_stringIcSt11char_traitsIcESaIcEEESt4pairIKS6_St5stackIPN8ppDefine10DefinitionESt5dequeISC_SaISC_EEEESaISH_ENS_10_Select1stESt8equal_toIS6_ESt4hashIS6_ENS_18_Mod_range_hashingENS_20_Default_ranged_hashENS_20_Prime_rehash_policyENS_17_Hashtable_traitsILb1ELb0ELb1EEELb1EEixERS8_
                0x000000000044f744        0xc C:\orangec\src\..\src\lib\mingw64/libocpplib.a(ppDefine.o)
 .pdata$_ZNSt10_HashtableINSt7__cxx1112basic_stringIcSt11char_traitsIcESaIcEEESt4pairIKS5_2kwESaIS9_ENSt8__detail10_Select1stESt8equal_toIS5_ESt4hashIS5_ENSB_18_Mod_range_hashingENSB_20_Default_ranged_hashENSB_20_Prime_rehash_policyENSB_17_Hashtable_traitsILb1ELb0ELb1EEEE9_M_rehashEyRKy
                0x000000000044f750        0xc C:\orangec\src\..\src\lib\mingw64/libocpplib.a(ppDefine.o)
 .pdata$_ZNSt10_HashtableINSt7__cxx1112basic_stringIcSt11char_traitsIcESaIcEEESt4pairIKS5_2kwESaIS9_ENSt8__detail10_Select1stESt8equal_toIS5_ESt4hashIS5_ENSB_18_Mod_range_hashingENSB_20_Default_ranged_hashENSB_20_Prime_rehash_policyENSB_17_Hashtable_traitsILb1ELb0ELb1EEEEC1IPKS9_EET_SQ_yRKSG_RKSH_RKSI_RKSE_RKSC_RKSA_
                0x000000000044f75c        0xc C:\orangec\src\..\src\lib\mingw64/libocpplib.a(ppDefine.o)
 .pdata.startup
                0x000000000044f768        0xc C:\orangec\src\..\src\lib\mingw64/libocpplib.a(ppDefine.o)
 .pdata         0x000000000044f774       0xe4 C:\orangec\src\..\src\lib\mingw64/libocpplib.a(ppExpr.o)
 .pdata.startup
                0x000000000044f858       0x18 C:\orangec\src\..\src\lib\mingw64/libocpplib.a(ppExpr.o)
 .pdata         0x000000000044f870       0xd8 C:\orangec\src\..\src\lib\mingw64/libocpplib.a(ppInclude.o)
 .pdata$_ZN6ppFileD0Ev
                0x000000000044f948        0xc C:\orangec\src\..\src\lib\mingw64/libocpplib.a(ppInclude.o)
 .pdata$_ZNSt5dequeISt10unique_ptrIN6ppCond4skipESt14default_deleteIS2_EESaIS5_EED1Ev
                0x000000000044f954        0xc C:\orangec\src\..\src\lib\mingw64/libocpplib.a(ppInclude.o)
 .pdata$_ZNSt8_Rb_treeINSt7__cxx1112basic_stringIcSt11char_traitsIcESaIcEEES5_St9_IdentityIS5_ESt4lessIS5_ESaIS5_EE4findERKS5_
                0x000000000044f960        0xc C:\orangec\src\..\src\lib\mingw64/libocpplib.a(ppInclude.o)
 .pdata$_ZNSt10_HashtableINSt7__cxx1112basic_stringIcSt11char_traitsIcESaIcEEESt4pairIKS5_iESaIS8_ENSt8__detail10_Select1stESt8equal_toIS5_ESt4hashIS5_ENSA_18_Mod_range_hashingENSA_20_Default_ranged_hashENSA_20_Prime_rehash_policyENSA_17_Hashtable_traitsILb1ELb0ELb1EEEE21_M_insert_unique_nodeEyyPNSA_10_Hash_nodeIS8_Lb1EEEy
                0x000000000044f96c        0xc C:\orangec\src\..\src\lib\mingw64/libocpplib.a(ppInclude.o)
 .pdata$_ZNSt8_Rb_treeINSt7__cxx1112basic_stringIcSt11char_traitsIcESaIcEEES5_St9_IdentityIS5_ESt4lessIS5_ESaIS5_EE16_M_insert_uniqueIRKS5_EESt4pairISt17_Rb_tree_iteratorIS5_EbEOT_
                0x000000000044f978        0xc C:\orangec\src\..\src\lib\mingw64/libocpplib.a(ppInclude.o)
 .pdata$_ZNKSt10_HashtableINSt7__cxx1112basic_stringIcSt11char_traitsIcESaIcEEESt4pairIKS5_iESaIS8_ENSt8__detail10_Select1stESt8equal_toIS5_ESt4hashIS5_ENSA_18_Mod_range_hashingENSA_20_Default_ranged_hashENSA_20_Prime_rehash_policyENSA_17_Hashtable_traitsILb1ELb0ELb1EEEE19_M_find_before_nodeEyRS7_y
                0x000000000044f984        0xc C:\orangec\src\..\src\lib\mingw64/libocpplib.a(ppInclude.o)
 .pdata$_ZNSt8__detail9_Map_baseINSt7__cxx1112basic_stringIcSt11char_traitsIcESaIcEEESt4pairIKS6_iESaIS9_ENS_10_Select1stESt8equal_toIS6_ESt4hashIS6_ENS_18_Mod_range_hashingENS_20_Default_ranged_hashENS_20_Prime_rehash_policyENS_17_Hashtable_traitsILb1ELb0ELb1EEELb1EEixERS8_
                0x000000000044f990        0xc C:\orangec\src\..\src\lib\mingw64/libocpplib.a(ppInclude.o)
 .pdata.startup
                0x000000000044f99c        0xc C:\orangec\src\..\src\lib\mingw64/libocpplib.a(ppInclude.o)
 .pdata         0x000000000044f9a8       0xc0 C:\orangec\src\..\src\lib\mingw64/libocpplib.a(ppMacro.o)
 .pdata$_ZNSt5dequeIiSaIiEE17_M_push_front_auxIJiEEEvDpOT_
                0x000000000044fa68        0xc C:\orangec\src\..\src\lib\mingw64/libocpplib.a(ppMacro.o)
 .pdata$_ZNSt6vectorISt10unique_ptrI9MacroDataSt14default_deleteIS1_EESaIS4_EE17_M_realloc_insertIJS4_EEEvN9__gnu_cxx17__normal_iteratorIPS4_S6_EEDpOT_
                0x000000000044fa74        0xc C:\orangec\src\..\src\lib\mingw64/libocpplib.a(ppMacro.o)
 .pdata$_ZNSt6vectorISt10unique_ptrI9MacroDataSt14default_deleteIS1_EESaIS4_EE12emplace_backIJS4_EEEvDpOT_
                0x000000000044fa80        0xc C:\orangec\src\..\src\lib\mingw64/libocpplib.a(ppMacro.o)
 .pdata$_ZNSt10_HashtableINSt7__cxx1112basic_stringIcSt11char_traitsIcESaIcEEESt4pairIKS5_P9MacroDataESaISA_ENSt8__detail10_Select1stESt8equal_toIS5_ESt4hashIS5_ENSC_18_Mod_range_hashingENSC_20_Default_ranged_hashENSC_20_Prime_rehash_policyENSC_17_Hashtable_traitsILb1ELb0ELb1EEEE21_M_insert_unique_nodeEyyPNSC_10_Hash_nodeISA_Lb1EEEy
                0x000000000044fa8c        0xc C:\orangec\src\..\src\lib\mingw64/libocpplib.a(ppMacro.o)
 .pdata$_ZNKSt10_HashtableINSt7__cxx1112basic_stringIcSt11char_traitsIcESaIcEEESt4pairIKS5_P9MacroDataESaISA_ENSt8__detail10_Select1stESt8equal_toIS5_ESt4hashIS5_ENSC_18_Mod_range_hashingENSC_20_Default_ranged_hashENSC_20_Prime_rehash_policyENSC_17_Hashtable_traitsILb1ELb0ELb1EEEE19_M_find_before_nodeEyRS7_y
                0x000000000044fa98        0xc C:\orangec\src\..\src\lib\mingw64/libocpplib.a(ppMacro.o)
 .pdata$_ZNSt10_HashtableINSt7__cxx1112basic_stringIcSt11char_traitsIcESaIcEEESt4pairIKS5_P9MacroDataESaISA_ENSt8__detail10_Select1stESt8equal_toIS5_ESt4hashIS5_ENSC_18_Mod_range_hashingENSC_20_Default_ranged_hashENSC_20_Prime_rehash_policyENSC_17_Hashtable_traitsILb1ELb0ELb1EEEE4findERS7_
                0x000000000044faa4        0xc C:\orangec\src\..\src\lib\mingw64/libocpplib.a(ppMacro.o)
 .pdata$_ZNSt8__detail9_Map_baseINSt7__cxx1112basic_stringIcSt11char_traitsIcESaIcEEESt4pairIKS6_P9MacroDataESaISB_ENS_10_Select1stESt8equal_toIS6_ESt4hashIS6_ENS_18_Mod_range_hashingENS_20_Default_ranged_hashENS_20_Prime_rehash_policyENS_17_Hashtable_traitsILb1ELb0ELb1EEELb1EEixERS8_
                0x000000000044fab0        0xc C:\orangec\src\..\src\lib\mingw64/libocpplib.a(ppMacro.o)
 .pdata         0x000000000044fabc      0x120 C:\orangec\src\..\src\lib\mingw64/libocpplib.a(ppPragma.o)
 .pdata$_ZNSt8_Rb_treeIiSt4pairIKiiESt10_Select1stIS2_ESt4lessIiESaIS2_EE8_M_eraseEPSt13_Rb_tree_nodeIS2_E
                0x000000000044fbdc        0xc C:\orangec\src\..\src\lib\mingw64/libocpplib.a(ppPragma.o)
 .pdata$_ZNSt8_Rb_treeIN4Once8OnceItemES1_St9_IdentityIS1_ESt4lessIS1_ESaIS1_EE16_M_insert_uniqueIRKS1_EESt4pairISt17_Rb_tree_iteratorIS1_EbEOT_
                0x000000000044fbe8        0xc C:\orangec\src\..\src\lib\mingw64/libocpplib.a(ppPragma.o)
 .pdata$_ZNSt8_Rb_treeIiSt4pairIKiiESt10_Select1stIS2_ESt4lessIiESaIS2_EE7_M_copyINS8_20_Reuse_or_alloc_nodeEEEPSt13_Rb_tree_nodeIS2_EPKSC_PSt18_Rb_tree_node_baseRT_
                0x000000000044fbf4        0xc C:\orangec\src\..\src\lib\mingw64/libocpplib.a(ppPragma.o)
 .pdata$_ZNSt8_Rb_treeIiSt4pairIKiiESt10_Select1stIS2_ESt4lessIiESaIS2_EEaSERKS8_
                0x000000000044fc00        0xc C:\orangec\src\..\src\lib\mingw64/libocpplib.a(ppPragma.o)
 .pdata$_ZNSt10_HashtableINSt7__cxx1112basic_stringIcSt11char_traitsIcESaIcEEESt4pairIKS5_S5_ESaIS8_ENSt8__detail10_Select1stESt8equal_toIS5_ESt4hashIS5_ENSA_18_Mod_range_hashingENSA_20_Default_ranged_hashENSA_20_Prime_rehash_policyENSA_17_Hashtable_traitsILb1ELb0ELb1EEEE9_M_rehashEyRKy
                0x000000000044fc0c        0xc C:\orangec\src\..\src\lib\mingw64/libocpplib.a(ppPragma.o)
 .pdata$_ZNSt8__detail9_Map_baseINSt7__cxx1112basic_stringIcSt11char_traitsIcESaIcEEESt4pairIKS6_S6_ESaIS9_ENS_10_Select1stESt8equal_toIS6_ESt4hashIS6_ENS_18_Mod_range_hashingENS_20_Default_ranged_hashENS_20_Prime_rehash_policyENS_17_Hashtable_traitsILb1ELb0ELb1EEELb1EEixERS8_
                0x000000000044fc18        0xc C:\orangec\src\..\src\lib\mingw64/libocpplib.a(ppPragma.o)
 .pdata$_ZNSt8_Rb_treeINSt7__cxx1112basic_stringIcSt11char_traitsIcESaIcEEESt4pairIKS5_St10unique_ptrIN8Startups10PropertiesESt14default_deleteISA_EEESt10_Select1stISE_ESt4lessIS5_ESaISE_EE24_M_get_insert_unique_posERS7_
                0x000000000044fc24        0xc C:\orangec\src\..\src\lib\mingw64/libocpplib.a(ppPragma.o)
 .pdata$_ZNSt8_Rb_treeINSt7__cxx1112basic_stringIcSt11char_traitsIcESaIcEEESt4pairIKS5_St10unique_ptrIN8Startups10PropertiesESt14default_deleteISA_EEESt10_Select1stISE_ESt4lessIS5_ESaISE_EE22_M_emplace_hint_uniqueIJRKSt21piecewise_construct_tSt5tupleIJRS7_EESP_IJEEEEESt17_Rb_tree_iteratorISE_ESt23_Rb_tree_const_iteratorISE_EDpOT_
                0x000000000044fc30        0xc C:\orangec\src\..\src\lib\mingw64/libocpplib.a(ppPragma.o)
 .pdata$_ZNSt8_Rb_treeIiSt4pairIKiiESt10_Select1stIS2_ESt4lessIiESaIS2_EE24_M_get_insert_unique_posERS1_
                0x000000000044fc3c        0xc C:\orangec\src\..\src\lib\mingw64/libocpplib.a(ppPragma.o)
 .pdata$_ZNSt8_Rb_treeIiSt4pairIKiiESt10_Select1stIS2_ESt4lessIiESaIS2_EE22_M_emplace_hint_uniqueIJRKSt21piecewise_construct_tSt5tupleIJRS1_EESD_IJEEEEESt17_Rb_tree_iteratorIS2_ESt23_Rb_tree_const_iteratorIS2_EDpOT_
                0x000000000044fc48        0xc C:\orangec\src\..\src\lib\mingw64/libocpplib.a(ppPragma.o)
 .pdata$_ZNSt5dequeIiSaIiEE17_M_reallocate_mapEyb
                0x000000000044fc54        0xc C:\orangec\src\..\src\lib\mingw64/libocpplib.a(ppPragma.o)
 .pdata$_ZNSt5dequeIbSaIbEE17_M_reallocate_mapEyb
                0x000000000044fc60        0xc C:\orangec\src\..\src\lib\mingw64/libocpplib.a(ppPragma.o)
 .pdata$_ZNSt5dequeIbSaIbEE16_M_push_back_auxIJRKbEEEvDpOT_
                0x000000000044fc6c        0xc C:\orangec\src\..\src\lib\mingw64/libocpplib.a(ppPragma.o)
 .pdata$_ZNSt8_Rb_treeIiSt4pairIKiiESt10_Select1stIS2_ESt4lessIiESaIS2_EE7_M_copyINS8_11_Alloc_nodeEEEPSt13_Rb_tree_nodeIS2_EPKSC_PSt18_Rb_tree_node_baseRT_
                0x000000000044fc78        0xc C:\orangec\src\..\src\lib\mingw64/libocpplib.a(ppPragma.o)
 .pdata$_ZNSt5dequeISt3mapIiiSt4lessIiESaISt4pairIKiiEEESaIS7_EE16_M_push_back_auxIJRKS7_EEEvDpOT_
                0x000000000044fc84        0xc C:\orangec\src\..\src\lib\mingw64/libocpplib.a(ppPragma.o)
 .pdata.startup
                0x000000000044fc90        0xc C:\orangec\src\..\src\lib\mingw64/libocpplib.a(ppPragma.o)
 .pdata$_ZNSt10_HashtableINSt7__cxx1112basic_stringIcSt11char_traitsIcESaIcEEESt4pairIKS5_2kwESaIS9_ENSt8__detail10_Select1stESt8equal_toIS5_ESt4hashIS5_ENSB_18_Mod_range_hashingENSB_20_Default_ranged_hashENSB_20_Prime_rehash_policyENSB_17_Hashtable_traitsILb1ELb0ELb1EEEE21_M_insert_unique_nodeEyyPNSB_10_Hash_nodeIS9_Lb1EEEy
                0x000000000044fc9c        0xc C:\orangec\src\..\src\lib\mingw64/libocpplib.a(PreProcessor.o)
 .pdata$_ZNSt8__detail9_Map_baseINSt7__cxx1112basic_stringIcSt11char_traitsIcESaIcEEESt4pairIKS6_2kwESaISA_ENS_10_Select1stESt8equal_toIS6_ESt4hashIS6_ENS_18_Mod_range_hashingENS_20_Default_ranged_hashENS_20_Prime_rehash_policyENS_17_Hashtable_traitsILb1ELb0ELb1EEELb1EEixEOS6_
                0x000000000044fca8        0xc C:\orangec\src\..\src\lib\mingw64/libocpplib.a(PreProcessor.o)
 .pdata         0x000000000044fcb4       0x30 C:\orangec\src\..\src\lib\mingw64/libocpplib.a(PreProcessor.o)
 .pdata         0x000000000044fce4       0x3c C:\orangec\src\..\src\lib\mingw64/libocpplib.a(SymbolTable.o)
 .pdata$_ZNSt10_HashtableINSt7__cxx1112basic_stringIcSt11char_traitsIcESaIcEEESt4pairIKS5_P6SymbolESaISA_ENSt8__detail10_Select1stESt8equal_toIS5_ESt4hashIS5_ENSC_18_Mod_range_hashingENSC_20_Default_ranged_hashENSC_20_Prime_rehash_policyENSC_17_Hashtable_traitsILb1ELb0ELb1EEEED1Ev
                0x000000000044fd20        0xc C:\orangec\src\..\src\lib\mingw64/libocpplib.a(SymbolTable.o)
 .pdata$_ZNSt11_Deque_baseISt10unique_ptrI6SymbolSt14default_deleteIS1_EESaIS4_EED2Ev
                0x000000000044fd2c        0xc C:\orangec\src\..\src\lib\mingw64/libocpplib.a(SymbolTable.o)
 .pdata$_ZNSt5dequeISt10unique_ptrI6SymbolSt14default_deleteIS1_EESaIS4_EE8_M_eraseESt15_Deque_iteratorIS4_RS4_PS4_E
                0x000000000044fd38        0xc C:\orangec\src\..\src\lib\mingw64/libocpplib.a(SymbolTable.o)
 .pdata$_ZNSt5dequeISt10unique_ptrI6SymbolSt14default_deleteIS1_EESaIS4_EE19_M_destroy_data_auxESt15_Deque_iteratorIS4_RS4_PS4_ESA_
                0x000000000044fd44        0xc C:\orangec\src\..\src\lib\mingw64/libocpplib.a(SymbolTable.o)
 .pdata$_ZNSt8__detail16_Hashtable_allocISaINS_10_Hash_nodeISt4pairIKNSt7__cxx1112basic_stringIcSt11char_traitsIcESaIcEEEP6SymbolELb1EEEEE16_M_allocate_nodeIJRKSt21piecewise_construct_tSt5tupleIJRS9_EESK_IJEEEEEPSD_DpOT_
                0x000000000044fd50        0xc C:\orangec\src\..\src\lib\mingw64/libocpplib.a(SymbolTable.o)
 .pdata$_ZNSt10_HashtableINSt7__cxx1112basic_stringIcSt11char_traitsIcESaIcEEESt4pairIKS5_P6SymbolESaISA_ENSt8__detail10_Select1stESt8equal_toIS5_ESt4hashIS5_ENSC_18_Mod_range_hashingENSC_20_Default_ranged_hashENSC_20_Prime_rehash_policyENSC_17_Hashtable_traitsILb1ELb0ELb1EEEE21_M_insert_unique_nodeEyyPNSC_10_Hash_nodeISA_Lb1EEEy
                0x000000000044fd5c        0xc C:\orangec\src\..\src\lib\mingw64/libocpplib.a(SymbolTable.o)
 .pdata$_ZNSt5dequeISt10unique_ptrI6SymbolSt14default_deleteIS1_EESaIS4_EE16_M_push_back_auxIJS4_EEEvDpOT_
                0x000000000044fd68        0xc C:\orangec\src\..\src\lib\mingw64/libocpplib.a(SymbolTable.o)
 .pdata$_ZNKSt10_HashtableINSt7__cxx1112basic_stringIcSt11char_traitsIcESaIcEEESt4pairIKS5_P6SymbolESaISA_ENSt8__detail10_Select1stESt8equal_toIS5_ESt4hashIS5_ENSC_18_Mod_range_hashingENSC_20_Default_ranged_hashENSC_20_Prime_rehash_policyENSC_17_Hashtable_traitsILb1ELb0ELb1EEEE19_M_find_before_nodeEyRS7_y
                0x000000000044fd74        0xc C:\orangec\src\..\src\lib\mingw64/libocpplib.a(SymbolTable.o)
 .pdata$_ZNK5Token9IsNumericEv
                0x000000000044fd80        0xc C:\orangec\src\..\src\lib\mingw64/libocpplib.a(Token.o)
 .pdata$_ZNK5Token10IsFloatingEv
                0x000000000044fd8c        0xc C:\orangec\src\..\src\lib\mingw64/libocpplib.a(Token.o)
 .pdata$_ZNK5Token9IsKeywordEv
                0x000000000044fd98        0xc C:\orangec\src\..\src\lib\mingw64/libocpplib.a(Token.o)
 .pdata$_ZNK5Token11IsCharacterEv
                0x000000000044fda4        0xc C:\orangec\src\..\src\lib\mingw64/libocpplib.a(Token.o)
 .pdata$_ZNK5Token8IsStringEv
                0x000000000044fdb0        0xc C:\orangec\src\..\src\lib\mingw64/libocpplib.a(Token.o)
 .pdata$_ZNK5Token12IsIdentifierEv
                0x000000000044fdbc        0xc C:\orangec\src\..\src\lib\mingw64/libocpplib.a(Token.o)
 .pdata$_ZNK5Token5IsEndEv
                0x000000000044fdc8        0xc C:\orangec\src\..\src\lib\mingw64/libocpplib.a(Token.o)
 .pdata$_ZNK5Token7IsErrorEv
                0x000000000044fdd4        0xc C:\orangec\src\..\src\lib\mingw64/libocpplib.a(Token.o)
 .pdata$_ZNK5Token6IsWideEv
                0x000000000044fde0        0xc C:\orangec\src\..\src\lib\mingw64/libocpplib.a(Token.o)
 .pdata$_ZNK5Token10GetIntegerEv
                0x000000000044fdec        0xc C:\orangec\src\..\src\lib\mingw64/libocpplib.a(Token.o)
 .pdata$_ZNK5Token14GetNumericTypeEv
                0x000000000044fdf8        0xc C:\orangec\src\..\src\lib\mingw64/libocpplib.a(Token.o)
 .pdata$_ZNK5Token8GetFloatEv
                0x000000000044fe04        0xc C:\orangec\src\..\src\lib\mingw64/libocpplib.a(Token.o)
 .pdata$_ZNK5Token10GetKeywordEv
                0x000000000044fe10        0xc C:\orangec\src\..\src\lib\mingw64/libocpplib.a(Token.o)
 .pdata$_ZN5Token5ParseERNSt7__cxx1112basic_stringIcSt11char_traitsIcESaIcEEE
                0x000000000044fe1c        0xc C:\orangec\src\..\src\lib\mingw64/libocpplib.a(Token.o)
 .pdata$_ZNK11StringToken8IsStringEv
                0x000000000044fe28        0xc C:\orangec\src\..\src\lib\mingw64/libocpplib.a(Token.o)
 .pdata$_ZNK11StringToken6IsWideEv
                0x000000000044fe34        0xc C:\orangec\src\..\src\lib\mingw64/libocpplib.a(Token.o)
 .pdata$_ZNK14CharacterToken11IsCharacterEv
                0x000000000044fe40        0xc C:\orangec\src\..\src\lib\mingw64/libocpplib.a(Token.o)
 .pdata$_ZNK14CharacterToken10GetIntegerEv
                0x000000000044fe4c        0xc C:\orangec\src\..\src\lib\mingw64/libocpplib.a(Token.o)
 .pdata$_ZNK12NumericToken9IsNumericEv
                0x000000000044fe58        0xc C:\orangec\src\..\src\lib\mingw64/libocpplib.a(Token.o)
 .pdata$_ZNK12NumericToken10IsFloatingEv
                0x000000000044fe64        0xc C:\orangec\src\..\src\lib\mingw64/libocpplib.a(Token.o)
 .pdata$_ZNK12NumericToken14GetNumericTypeEv
                0x000000000044fe70        0xc C:\orangec\src\..\src\lib\mingw64/libocpplib.a(Token.o)
 .pdata$_ZNK12KeywordToken9IsKeywordEv
                0x000000000044fe7c        0xc C:\orangec\src\..\src\lib\mingw64/libocpplib.a(Token.o)
 .pdata$_ZNK12KeywordToken10GetKeywordEv
                0x000000000044fe88        0xc C:\orangec\src\..\src\lib\mingw64/libocpplib.a(Token.o)
 .pdata$_ZNK12KeywordToken7IsErrorEv
                0x000000000044fe94        0xc C:\orangec\src\..\src\lib\mingw64/libocpplib.a(Token.o)
 .pdata$_ZNK15IdentifierToken12IsIdentifierEv
                0x000000000044fea0        0xc C:\orangec\src\..\src\lib\mingw64/libocpplib.a(Token.o)
 .pdata$_ZNK15IdentifierToken9IsKeywordEv
                0x000000000044feac        0xc C:\orangec\src\..\src\lib\mingw64/libocpplib.a(Token.o)
 .pdata$_ZNK15IdentifierToken10GetKeywordEv
                0x000000000044feb8        0xc C:\orangec\src\..\src\lib\mingw64/libocpplib.a(Token.o)
 .pdata$_ZNK15IdentifierToken5GetIdB5cxx11Ev
                0x000000000044fec4        0xc C:\orangec\src\..\src\lib\mingw64/libocpplib.a(Token.o)
 .pdata$_ZNK8EndToken5IsEndEv
                0x000000000044fed0        0xc C:\orangec\src\..\src\lib\mingw64/libocpplib.a(Token.o)
 .pdata$_ZNK10ErrorToken7IsErrorEv
                0x000000000044fedc        0xc C:\orangec\src\..\src\lib\mingw64/libocpplib.a(Token.o)
 .pdata$_ZN8EndTokenD1Ev
                0x000000000044fee8        0xc C:\orangec\src\..\src\lib\mingw64/libocpplib.a(Token.o)
 .pdata$_ZN10ErrorTokenD1Ev
                0x000000000044fef4        0xc C:\orangec\src\..\src\lib\mingw64/libocpplib.a(Token.o)
 .pdata$_ZN12KeywordTokenD1Ev
                0x000000000044ff00        0xc C:\orangec\src\..\src\lib\mingw64/libocpplib.a(Token.o)
 .pdata$_ZN12NumericTokenD1Ev
                0x000000000044ff0c        0xc C:\orangec\src\..\src\lib\mingw64/libocpplib.a(Token.o)
 .pdata$_ZN14CharacterTokenD1Ev
                0x000000000044ff18        0xc C:\orangec\src\..\src\lib\mingw64/libocpplib.a(Token.o)
 .pdata$_ZN5TokenD1Ev
                0x000000000044ff24        0xc C:\orangec\src\..\src\lib\mingw64/libocpplib.a(Token.o)
 .pdata         0x000000000044ff30      0x138 C:\orangec\src\..\src\lib\mingw64/libocpplib.a(Token.o)
 .pdata$_ZN15IdentifierTokenD1Ev
                0x0000000000450068        0xc C:\orangec\src\..\src\lib\mingw64/libocpplib.a(Token.o)
 .pdata$_ZN11StringTokenD1Ev
                0x0000000000450074        0xc C:\orangec\src\..\src\lib\mingw64/libocpplib.a(Token.o)
 .pdata$_ZN8EndTokenD0Ev
                0x0000000000450080        0xc C:\orangec\src\..\src\lib\mingw64/libocpplib.a(Token.o)
 .pdata$_ZN10ErrorTokenD0Ev
                0x000000000045008c        0xc C:\orangec\src\..\src\lib\mingw64/libocpplib.a(Token.o)
 .pdata$_ZN12KeywordTokenD0Ev
                0x0000000000450098        0xc C:\orangec\src\..\src\lib\mingw64/libocpplib.a(Token.o)
 .pdata$_ZN12NumericTokenD0Ev
                0x00000000004500a4        0xc C:\orangec\src\..\src\lib\mingw64/libocpplib.a(Token.o)
 .pdata$_ZN14CharacterTokenD0Ev
                0x00000000004500b0        0xc C:\orangec\src\..\src\lib\mingw64/libocpplib.a(Token.o)
 .pdata$_ZN5TokenD0Ev
                0x00000000004500bc        0xc C:\orangec\src\..\src\lib\mingw64/libocpplib.a(Token.o)
 .pdata$_ZNK5Token5GetIdB5cxx11Ev
                0x00000000004500c8        0xc C:\orangec\src\..\src\lib\mingw64/libocpplib.a(Token.o)
 .pdata$_ZN15IdentifierTokenD0Ev
                0x00000000004500d4        0xc C:\orangec\src\..\src\lib\mingw64/libocpplib.a(Token.o)
 .pdata$_ZN11StringTokenD0Ev
                0x00000000004500e0        0xc C:\orangec\src\..\src\lib\mingw64/libocpplib.a(Token.o)
 .pdata$_ZNSt10_HashtableINSt7__cxx1112basic_stringIcSt11char_traitsIcESaIcEEESt4pairIKS5_2kwESaIS9_ENSt8__detail10_Select1stESt8equal_toIS5_ESt4hashIS5_ENSB_18_Mod_range_hashingENSB_20_Default_ranged_hashENSB_20_Prime_rehash_policyENSB_17_Hashtable_traitsILb1ELb0ELb1EEEE4findERS7_
                0x00000000004500ec        0xc C:\orangec\src\..\src\lib\mingw64/libocpplib.a(Token.o)
 .pdata$_ZNSt7__cxx1112basic_stringIwSt11char_traitsIwESaIwEE12_M_constructIPKwEEvT_S8_St20forward_iterator_tag
                0x00000000004500f8        0xc C:\orangec\src\..\src\lib\mingw64/libocpplib.a(Token.o)
 .pdata$_ZNK5Token9GetStringB5cxx11Ev
                0x0000000000450104        0xc C:\orangec\src\..\src\lib\mingw64/libocpplib.a(Token.o)
 .pdata$_ZNK5Token12GetRawStringB5cxx11Ev
                0x0000000000450110        0xc C:\orangec\src\..\src\lib\mingw64/libocpplib.a(Token.o)
 .pdata$_ZNSt7__cxx1112basic_stringIwSt11char_traitsIwESaIwEE12_M_constructIPwEEvT_S7_St20forward_iterator_tag
                0x000000000045011c        0xc C:\orangec\src\..\src\lib\mingw64/libocpplib.a(Token.o)
 .pdata$_ZNK11StringToken12GetRawStringB5cxx11Ev
                0x0000000000450128        0xc C:\orangec\src\..\src\lib\mingw64/libocpplib.a(Token.o)
 .pdata$_ZNK11StringToken9GetStringB5cxx11Ev
                0x0000000000450134        0xc C:\orangec\src\..\src\lib\mingw64/libocpplib.a(Token.o)
 .pdata         0x0000000000450140      0x1bc C:\orangec\src\..\src\lib\mingw64/libocpplib.a(Floating.o)
 .pdata.startup
                0x00000000004502fc        0xc C:\orangec\src\..\src\lib\mingw64/libocpplib.a(Floating.o)
 .pdata$_ZN9InputFile12StripCommentEPc
                0x0000000000450308        0xc C:\orangec\src\..\src\lib\mingw64/libocpplib.a(InputFile.o)
 .pdata         0x0000000000450314       0x84 C:\orangec\src\..\src\lib\mingw64/libocpplib.a(InputFile.o)
 .pdata.startup
                0x0000000000450398        0xc C:\orangec\src\..\src\lib\mingw64/libocpplib.a(InputFile.o)
 .pdata         0x00000000004503a4       0xa8 C:\orangec\src\..\src\lib\mingw64/libocpplib.a(ppCond.o)
 .pdata$_ZNSt5dequeISt10unique_ptrIN6ppCond4skipESt14default_deleteIS2_EESaIS5_EE17_M_push_front_auxIJS5_EEEvDpOT_
                0x000000000045044c        0xc C:\orangec\src\..\src\lib\mingw64/libocpplib.a(ppCond.o)
 .pdata$_ZStplIcSt11char_traitsIcESaIcEENSt7__cxx1112basic_stringIT_T0_T1_EEPKS5_RKS8_
                0x0000000000450458        0xc C:\orangec\src\..\src\lib\mingw64/libocpplib.a(ppError.o)
 .pdata         0x0000000000450464        0xc C:\orangec\src\..\src\lib\mingw64/libocpplib.a(ppError.o)
 .pdata         0x0000000000450470       0x24 C:\orangec\src\..\src\lib\mingw64/libocpplib.a(ppFile.o)
 .pdata$_ZN6ppFileD1Ev
                0x0000000000450494        0xc C:\orangec\src\..\src\lib\mingw64/libocpplib.a(ppFile.o)
 .pdata         0x00000000004504a0       0x3c C:\orangec\src\..\src\lib\mingw64/libutil.a(CmdFiles.o)
 .pdata$_ZN12CmdSwitchInt16RequiresArgumentEv
                0x00000000004504dc        0xc C:\orangec\src\..\src\lib\mingw64/libutil.a(CmdSwitch.o)
 .pdata$_ZN15CmdSwitchDefine9SetArgNumEi
                0x00000000004504e8        0xc C:\orangec\src\..\src\lib\mingw64/libutil.a(CmdSwitch.o)
 .pdata         0x00000000004504f4       0xf0 C:\orangec\src\..\src\lib\mingw64/libutil.a(CmdSwitch.o)
 .pdata$_ZNSt6vectorISt10unique_ptrIN15CmdSwitchDefine6defineESt14default_deleteIS2_EESaIS5_EE17_M_realloc_insertIJS5_EEEvN9__gnu_cxx17__normal_iteratorIPS5_S7_EEDpOT_
                0x00000000004505e4        0xc C:\orangec\src\..\src\lib\mingw64/libutil.a(CmdSwitch.o)
 .pdata.startup
                0x00000000004505f0        0xc C:\orangec\src\..\src\lib\mingw64/libutil.a(CmdSwitch.o)
 .pdata         0x00000000004505fc        0xc C:\orangec\src\..\src\lib\mingw64/libutil.a(crc.o)
 .pdata         0x0000000000450608       0x3c C:\orangec\src\..\src\lib\mingw64/libutil.a(NamedPipe.o)
 .pdata         0x0000000000450644       0x3c C:\orangec\src\..\src\lib\mingw64/libutil.a(UTF8.o)
 .pdata         0x0000000000450680       0x30 C:\orangec\src\..\src\lib\mingw64/libutil.a(UTF8Table.o)
 .pdata         0x00000000004506b0        0xc C:\orangec\src\..\src\lib\mingw64/libutil.a(UTF8Upper.o)
 .pdata$_Z9vsnprintfPcyPKcS_
                0x00000000004506bc        0xc C:\orangec\src\..\src\lib\mingw64/libutil.a(Utils.o)
 .pdata         0x00000000004506c8      0x138 C:\orangec\src\..\src\lib\mingw64/libutil.a(Utils.o)
 .pdata$_Z7fprintfP6_iobufPKcz
                0x0000000000450800        0xc C:\orangec\src\..\src\lib\mingw64/libutil.a(Utils.o)
 .pdata$_Z6printfPKcz
                0x000000000045080c        0xc C:\orangec\src\..\src\lib\mingw64/libutil.a(Utils.o)
 .pdata$_ZN9__gnu_cxx6__stoaIlicJiEEET0_PFT_PKT1_PPS3_DpT2_EPKcS5_PyS9_
                0x0000000000450818        0xc C:\orangec\src\..\src\lib\mingw64/libutil.a(Utils.o)
 .pdata$_ZNSt7__cxx1115basic_stringbufIcSt11char_traitsIcESaIcEED1Ev
                0x0000000000450824        0xc C:\orangec\src\..\src\lib\mingw64/libutil.a(Utils.o)
 .pdata$_ZN9__gnu_cxx12__to_xstringINSt7__cxx1112basic_stringIcSt11char_traitsIcESaIcEEEcEET_PFiPT0_yPKS8_PcEySB_z
                0x0000000000450830        0xc C:\orangec\src\..\src\lib\mingw64/libutil.a(Utils.o)
 .pdata.startup
                0x000000000045083c        0xc C:\orangec\src\..\src\lib\mingw64/libutil.a(Utils.o)
 .pdata         0x0000000000450848       0x24 C:/mingw64/w64/bin/../lib/gcc/x86_64-w64-mingw32/8.1.0/../../../../x86_64-w64-mingw32/lib/../lib/libmingw32.a(lib64_libmingw32_a-gccmain.o)
 .pdata         0x000000000045086c        0xc C:/mingw64/w64/bin/../lib/gcc/x86_64-w64-mingw32/8.1.0/../../../../x86_64-w64-mingw32/lib/../lib/libmingw32.a(lib64_libmingw32_a-charmax.o)
 .pdata         0x0000000000450878        0xc C:/mingw64/w64/bin/../lib/gcc/x86_64-w64-mingw32/8.1.0/../../../../x86_64-w64-mingw32/lib/../lib/libmingw32.a(lib64_libmingw32_a-dllargv.o)
 .pdata         0x0000000000450884       0x18 C:/mingw64/w64/bin/../lib/gcc/x86_64-w64-mingw32/8.1.0/../../../../x86_64-w64-mingw32/lib/../lib/libmingw32.a(lib64_libmingw32_a-gs_support.o)
 .pdata         0x000000000045089c       0x24 C:/mingw64/w64/bin/../lib/gcc/x86_64-w64-mingw32/8.1.0/../../../../x86_64-w64-mingw32/lib/../lib/libmingw32.a(lib64_libmingw32_a-tlssup.o)
 .pdata         0x00000000004508c0       0x24 C:/mingw64/w64/bin/../lib/gcc/x86_64-w64-mingw32/8.1.0/../../../../x86_64-w64-mingw32/lib/../lib/libmingw32.a(lib64_libmingw32_a-merr.o)
 .pdata         0x00000000004508e4        0xc C:/mingw64/w64/bin/../lib/gcc/x86_64-w64-mingw32/8.1.0/../../../../x86_64-w64-mingw32/lib/../lib/libmingw32.a(lib64_libmingw32_a-CRT_fp10.o)
 .pdata         0x00000000004508f0       0x18 C:/mingw64/w64/bin/../lib/gcc/x86_64-w64-mingw32/8.1.0/../../../../x86_64-w64-mingw32/lib/../lib/libmingw32.a(lib64_libmingw32_a-mingw_helpers.o)
 .pdata.unlikely
                0x0000000000450908        0xc C:/mingw64/w64/bin/../lib/gcc/x86_64-w64-mingw32/8.1.0/../../../../x86_64-w64-mingw32/lib/../lib/libmingw32.a(lib64_libmingw32_a-pseudo-reloc.o)
 .pdata         0x0000000000450914       0x18 C:/mingw64/w64/bin/../lib/gcc/x86_64-w64-mingw32/8.1.0/../../../../x86_64-w64-mingw32/lib/../lib/libmingw32.a(lib64_libmingw32_a-pseudo-reloc.o)
 .pdata         0x000000000045092c       0x24 C:/mingw64/w64/bin/../lib/gcc/x86_64-w64-mingw32/8.1.0/../../../../x86_64-w64-mingw32/lib/../lib/libmingw32.a(lib64_libmingw32_a-crt_handler.o)
 .pdata         0x0000000000450950       0x30 C:/mingw64/w64/bin/../lib/gcc/x86_64-w64-mingw32/8.1.0/../../../../x86_64-w64-mingw32/lib/../lib/libmingw32.a(lib64_libmingw32_a-tlsthrd.o)
 .pdata         0x0000000000450980       0x78 C:/mingw64/w64/bin/../lib/gcc/x86_64-w64-mingw32/8.1.0/../../../../x86_64-w64-mingw32/lib/../lib/libmingw32.a(lib64_libmingw32_a-pesect.o)
 .pdata         0x00000000004509f8       0xe4 C:/mingw64/w64/bin/../lib/gcc/x86_64-w64-mingw32/8.1.0/libgcc_eh.a(unwind-seh.o)
 .pdata         0x0000000000450adc        0xc C:/mingw64/w64/bin/../lib/gcc/x86_64-w64-mingw32/8.1.0/../../../../x86_64-w64-mingw32/lib/../lib/libmingwex.a(lib64_libmingwex_a-_stat.o)
 .pdata         0x0000000000450ae8        0xc C:/mingw64/w64/bin/../lib/gcc/x86_64-w64-mingw32/8.1.0/../../../../x86_64-w64-mingw32/lib/../lib/libmingwex.a(lib64_libmingwex_a-mingw_vfprintf.o)
 .pdata         0x0000000000450af4        0xc C:/mingw64/w64/bin/../lib/gcc/x86_64-w64-mingw32/8.1.0/../../../../x86_64-w64-mingw32/lib/../lib/libmingwex.a(lib64_libmingwex_a-mingw_vsnprintf.o)
 .pdata         0x0000000000450b00        0xc C:/mingw64/w64/bin/../lib/gcc/x86_64-w64-mingw32/8.1.0/../../../../x86_64-w64-mingw32/lib/../lib/libmingwex.a(lib64_libmingwex_a-mingw_vsprintf.o)
 .pdata         0x0000000000450b0c       0xc0 C:/mingw64/w64/bin/../lib/gcc/x86_64-w64-mingw32/8.1.0/../../../../x86_64-w64-mingw32/lib/../lib/libmingwex.a(lib64_libmingwex_a-mingw_pformat.o)
 .pdata         0x0000000000450bcc       0x30 C:/mingw64/w64/bin/../lib/gcc/x86_64-w64-mingw32/8.1.0/../../../../x86_64-w64-mingw32/lib/../lib/libmingwex.a(lib64_libmingwex_a-dmisc.o)
 .pdata         0x0000000000450bfc        0xc C:/mingw64/w64/bin/../lib/gcc/x86_64-w64-mingw32/8.1.0/../../../../x86_64-w64-mingw32/lib/../lib/libmingwex.a(lib64_libmingwex_a-gdtoa.o)
 .pdata         0x0000000000450c08       0x18 C:/mingw64/w64/bin/../lib/gcc/x86_64-w64-mingw32/8.1.0/../../../../x86_64-w64-mingw32/lib/../lib/libmingwex.a(lib64_libmingwex_a-gmisc.o)
 .pdata         0x0000000000450c20       0xa8 C:/mingw64/w64/bin/../lib/gcc/x86_64-w64-mingw32/8.1.0/../../../../x86_64-w64-mingw32/lib/../lib/libmingwex.a(lib64_libmingwex_a-misc.o)
 .pdata         0x0000000000450cc8       0x30 C:/mingw64/w64/bin/../lib/gcc/x86_64-w64-mingw32/8.1.0/../../../../x86_64-w64-mingw32/lib/../lib/libmingwex.a(lib64_libmingwex_a-mbrtowc.o)
 .pdata         0x0000000000450cf8        0xc C:/mingw64/w64/bin/../lib/gcc/x86_64-w64-mingw32/8.1.0/../../../../x86_64-w64-mingw32/lib/../lib/libmingwex.a(lib64_libmingwex_a-strnlen.o)
 .pdata         0x0000000000450d04       0x24 C:/mingw64/w64/bin/../lib/gcc/x86_64-w64-mingw32/8.1.0/../../../../x86_64-w64-mingw32/lib/../lib/libmingwex.a(lib64_libmingwex_a-wcrtomb.o)
 .pdata         0x0000000000450d28        0xc C:/mingw64/w64/bin/../lib/gcc/x86_64-w64-mingw32/8.1.0/../../../../x86_64-w64-mingw32/lib/../lib/libmingwex.a(lib64_libmingwex_a-wcsnlen.o)
 .pdata         0x0000000000450d34        0xc C:/mingw64/w64/bin/../lib/gcc/x86_64-w64-mingw32/8.1.0/../../../../x86_64-w64-mingw32/lib/../lib/libmsvcrt.a(lib64_libmsvcrt_os_a-acrt_iob_func.o)
 .pdata         0x0000000000450d40       0x18 C:/mingw64/w64/bin/../lib/gcc/x86_64-w64-mingw32/8.1.0/../../../../x86_64-w64-mingw32/lib/../lib/libmsvcrt.a(lib64_libmsvcrt_os_a-invalid_parameter_handler.o)
 .pdata         0x0000000000450d58       0x18 C:/mingw64/w64/bin/../lib/gcc/x86_64-w64-mingw32/8.1.0/../../../../x86_64-w64-mingw32/lib/../lib/libmsvcrt.a(lib64_libmsvcrt_os_a-mingw_lock.o)
 .pdata         0x0000000000450d70        0xc C:/mingw64/w64/bin/../lib/gcc/x86_64-w64-mingw32/8.1.0/../../../../x86_64-w64-mingw32/lib/../lib/libmsvcrt.a(lib64_libmsvcrt_os_a-__p___argv.o)
 .pdata         0x0000000000450d7c        0xc C:/mingw64/w64/bin/../lib/gcc/x86_64-w64-mingw32/8.1.0/../../../../x86_64-w64-mingw32/lib/../lib/libmsvcrt.a(lib64_libmsvcrt_os_a-__p__acmdln.o)
 .pdata         0x0000000000450d88        0xc C:/mingw64/w64/bin/../lib/gcc/x86_64-w64-mingw32/8.1.0/../../../../x86_64-w64-mingw32/lib/../lib/libmsvcrt.a(lib64_libmsvcrt_os_a-__p__fmode.o)
 .pdata.startup
                0x0000000000450d94        0xc C:/mingw64/w64/bin/../lib/gcc/x86_64-w64-mingw32/8.1.0/crtend.o

.xdata          0x0000000000451000     0x4600
 *(.xdata*)
 .xdata         0x0000000000451000       0x70 C:/mingw64/w64/bin/../lib/gcc/x86_64-w64-mingw32/8.1.0/../../../../x86_64-w64-mingw32/lib/../lib/crt2.o
 .xdata         0x0000000000451070        0x8 C:/mingw64/w64/bin/../lib/gcc/x86_64-w64-mingw32/8.1.0/crtbegin.o
 .xdata$_ZNKSt5ctypeIcE8do_widenEc
                0x0000000000451078        0x4 C:\orangec\src\ocpp\obj\mingw64\ppMain.o
 .xdata$_ZN13CmdSwitchBase5ParseEPKc
                0x000000000045107c        0x4 C:\orangec\src\ocpp\obj\mingw64\ppMain.o
 .xdata$_ZN13CmdSwitchBase9SetArgNumEi
                0x0000000000451080        0x4 C:\orangec\src\ocpp\obj\mingw64\ppMain.o
 .xdata$_ZN13CmdSwitchBase16RequiresArgumentEv
                0x0000000000451084        0x4 C:\orangec\src\ocpp\obj\mingw64\ppMain.o
 .xdata$_ZN9TokenizerD1Ev
                0x0000000000451088        0x8 C:\orangec\src\ocpp\obj\mingw64\ppMain.o
 .xdata         0x0000000000451090      0x540 C:\orangec\src\ocpp\obj\mingw64\ppMain.o
 .xdata$_ZN9TokenizerD0Ev
                0x00000000004515d0        0x8 C:\orangec\src\ocpp\obj\mingw64\ppMain.o
 .xdata$_ZNSt10_HashtableINSt7__cxx1112basic_stringIcSt11char_traitsIcESaIcEEESt4pairIKS5_St5stackIPN8ppDefine10DefinitionESt5dequeISB_SaISB_EEEESaISG_ENSt8__detail10_Select1stESt8equal_toIS5_ESt4hashIS5_ENSI_18_Mod_range_hashingENSI_20_Default_ranged_hashENSI_20_Prime_rehash_policyENSI_17_Hashtable_traitsILb1ELb0ELb1EEEED1Ev
                0x00000000004515d8       0x10 C:\orangec\src\ocpp\obj\mingw64\ppMain.o
 .xdata$_ZNSt10_HashtableINSt7__cxx1112basic_stringIcSt11char_traitsIcESaIcEEESt4pairIKS5_2kwESaIS9_ENSt8__detail10_Select1stESt8equal_toIS5_ESt4hashIS5_ENSB_18_Mod_range_hashingENSB_20_Default_ranged_hashENSB_20_Prime_rehash_policyENSB_17_Hashtable_traitsILb1ELb0ELb1EEEED1Ev
                0x00000000004515e8        0xc C:\orangec\src\ocpp\obj\mingw64\ppMain.o
 .xdata$_ZN5Utils5fatalIJPKcEEEvS2_DpT_
                0x00000000004515f4        0xc C:\orangec\src\ocpp\obj\mingw64\ppMain.o
 .xdata$_ZNSt11_Deque_baseINSt7__cxx1112basic_stringIcSt11char_traitsIcESaIcEEESaIS5_EED2Ev
                0x0000000000451600        0xc C:\orangec\src\ocpp\obj\mingw64\ppMain.o
 .xdata$_ZNSt5dequeINSt7__cxx1112basic_stringIcSt11char_traitsIcESaIcEEESaIS5_EED1Ev
                0x000000000045160c       0x18 C:\orangec\src\ocpp\obj\mingw64\ppMain.o
 .xdata$_ZN13CmdSwitchFileD1Ev
                0x0000000000451624       0x18 C:\orangec\src\ocpp\obj\mingw64\ppMain.o
 .xdata$_ZNSt8_Rb_treeIP13CmdSwitchBaseS1_St9_IdentityIS1_ESt4lessIS1_ESaIS1_EE8_M_eraseEPSt13_Rb_tree_nodeIS1_E
                0x000000000045163c        0xc C:\orangec\src\ocpp\obj\mingw64\ppMain.o
 .xdata$_ZNSt11_Deque_baseIiSaIiEED2Ev
                0x0000000000451648        0xc C:\orangec\src\ocpp\obj\mingw64\ppMain.o
 .xdata$_ZNSt8_Rb_treeINSt7__cxx1112basic_stringIcSt11char_traitsIcESaIcEEES5_St9_IdentityIS5_ESt4lessIS5_ESaIS5_EE8_M_eraseEPSt13_Rb_tree_nodeIS5_E
                0x0000000000451654        0xc C:\orangec\src\ocpp\obj\mingw64\ppMain.o
 .xdata$_ZNSt11_Deque_baseIbSaIbEED2Ev
                0x0000000000451660        0xc C:\orangec\src\ocpp\obj\mingw64\ppMain.o
 .xdata$_ZNSt7__cxx1110_List_baseINS_12basic_stringIcSt11char_traitsIcESaIcEEESaIS5_EE8_M_clearEv
                0x000000000045166c        0xc C:\orangec\src\ocpp\obj\mingw64\ppMain.o
 .xdata$_ZNSt8_Rb_treeINSt7__cxx1112basic_stringIcSt11char_traitsIcESaIcEEESt4pairIKS5_St10unique_ptrIN8Startups10PropertiesESt14default_deleteISA_EEESt10_Select1stISE_ESt4lessIS5_ESaISE_EE8_M_eraseEPSt13_Rb_tree_nodeISE_E
                0x0000000000451678        0xc C:\orangec\src\ocpp\obj\mingw64\ppMain.o
 .xdata$_ZNSt8_Rb_treeIN4Once8OnceItemES1_St9_IdentityIS1_ESt4lessIS1_ESaIS1_EE8_M_eraseEPSt13_Rb_tree_nodeIS1_E
                0x0000000000451684        0xc C:\orangec\src\ocpp\obj\mingw64\ppMain.o
 .xdata$_ZSt11__remove_ifIN9__gnu_cxx17__normal_iteratorIPcNSt7__cxx1112basic_stringIcSt11char_traitsIcESaIcEEEEENS0_5__ops16_Iter_equals_valIKN8ppDefineUt_EEEET_SG_SG_T0_
                0x0000000000451690        0x4 C:\orangec\src\ocpp\obj\mingw64\ppMain.o
 .xdata$_ZNSt11_Deque_baseINSt7__cxx1112basic_stringIcSt11char_traitsIcESaIcEEESaIS5_EE17_M_initialize_mapEy
                0x0000000000451694       0x3c C:\orangec\src\ocpp\obj\mingw64\ppMain.o
 .xdata$_ZNSt11_Deque_baseIiSaIiEE17_M_initialize_mapEy
                0x00000000004516d0       0x3c C:\orangec\src\ocpp\obj\mingw64\ppMain.o
 .xdata$_ZNSt7__cxx1112basic_stringIcSt11char_traitsIcESaIcEE12_M_constructIPKcEEvT_S8_St20forward_iterator_tag
                0x000000000045170c        0xc C:\orangec\src\ocpp\obj\mingw64\ppMain.o
 .xdata$_ZNSt7__cxx1112basic_stringIcSt11char_traitsIcESaIcEE12_M_constructIPcEEvT_S7_St20forward_iterator_tag
                0x0000000000451718        0xc C:\orangec\src\ocpp\obj\mingw64\ppMain.o
 .xdata$_ZSt8_DestroyISt15_Deque_iteratorINSt7__cxx1112basic_stringIcSt11char_traitsIcESaIcEEERS6_PS6_EEvT_SA_
                0x0000000000451724       0x10 C:\orangec\src\ocpp\obj\mingw64\ppMain.o
 .xdata$_ZNSt5dequeINSt7__cxx1112basic_stringIcSt11char_traitsIcESaIcEEESaIS5_EE19_M_range_initializeIPKS5_EEvT_SB_St20forward_iterator_tag
                0x0000000000451734       0x50 C:\orangec\src\ocpp\obj\mingw64\ppMain.o
 .xdata.startup
                0x0000000000451784      0x1cc C:\orangec\src\ocpp\obj\mingw64\ppMain.o
 .xdata$_ZN13CmdSwitchBoolC1ER15CmdSwitchParsercbSt5dequeINSt7__cxx1112basic_stringIcSt11char_traitsIcESaIcEEESaIS8_EE
                0x0000000000451950       0x48 C:\orangec\src\ocpp\obj\mingw64\ppMain.o
 .xdata$_ZN15CmdSwitchDefineC1ER15CmdSwitchParsercSt5dequeINSt7__cxx1112basic_stringIcSt11char_traitsIcESaIcEEESaIS8_EE
                0x0000000000451998       0x48 C:\orangec\src\ocpp\obj\mingw64\ppMain.o
 .xdata$_ZN15CmdSwitchStringC1ER15CmdSwitchParserccSt5dequeINSt7__cxx1112basic_stringIcSt11char_traitsIcESaIcEEESaIS8_EE
                0x00000000004519e0       0x50 C:\orangec\src\ocpp\obj\mingw64\ppMain.o
 .xdata$_ZN15CmdSwitchParserC1Ev
                0x0000000000451a30       0x50 C:\orangec\src\ocpp\obj\mingw64\ppMain.o
 .xdata$_ZN22CmdSwitchCombineStringC1ER15CmdSwitchParserccSt5dequeINSt7__cxx1112basic_stringIcSt11char_traitsIcESaIcEEESaIS8_EE
                0x0000000000451a80       0x60 C:\orangec\src\ocpp\obj\mingw64\ppMain.o
 .xdata$_ZNSt5dequeIiSaIiEE16_M_push_back_auxIJiEEEvDpOT_
                0x0000000000451ae0       0x14 C:\orangec\src\ocpp\obj\mingw64\ppMain.o
 .xdata$_ZNSt11_Deque_baseIbSaIbEE17_M_initialize_mapEy
                0x0000000000451af4       0x3c C:\orangec\src\ocpp\obj\mingw64\ppMain.o
 .xdata$_ZNSt5dequeIbSaIbEE16_M_push_back_auxIJbEEEvDpOT_
                0x0000000000451b30       0x14 C:\orangec\src\ocpp\obj\mingw64\ppMain.o
 .xdata$_ZN8ppDefineD1Ev
                0x0000000000451b44        0xc C:\orangec\src\ocpp\obj\mingw64\ppMain.o
 .xdata$_ZN12PreProcessorD1Ev
                0x0000000000451b50       0x18 C:\orangec\src\ocpp\obj\mingw64\ppMain.o
 .xdata         0x0000000000451b68       0xa4 C:\orangec\src\..\src\lib\mingw64/libocpplib.a(Errors.o)
 .xdata$_ZN5Utils5fatalEPKc
                0x0000000000451c0c        0xc C:\orangec\src\..\src\lib\mingw64/libocpplib.a(Errors.o)
 .xdata.startup
                0x0000000000451c18        0x8 C:\orangec\src\..\src\lib\mingw64/libocpplib.a(Errors.o)
 .xdata         0x0000000000451c20      0x12c C:\orangec\src\..\src\lib\mingw64/libocpplib.a(MakeStubs.o)
 .xdata$_ZNSt6vectorINSt7__cxx1112basic_stringIcSt11char_traitsIcESaIcEEESaIS5_EED1Ev
                0x0000000000451d4c        0xc C:\orangec\src\..\src\lib\mingw64/libocpplib.a(MakeStubs.o)
 .xdata.startup
                0x0000000000451d58        0x8 C:\orangec\src\..\src\lib\mingw64/libocpplib.a(MakeStubs.o)
 .xdata         0x0000000000451d60       0x38 C:\orangec\src\..\src\lib\mingw64/libocpplib.a(PipeArbitrator.o)
 .xdata         0x0000000000451d98       0xc4 C:\orangec\src\..\src\lib\mingw64/libocpplib.a(ppCtx.o)
 .xdata$_ZNSt5dequeISt10unique_ptrI7CtxDataSt14default_deleteIS1_EESaIS4_EE17_M_push_front_auxIJS4_EEEvDpOT_
                0x0000000000451e5c       0x14 C:\orangec\src\..\src\lib\mingw64/libocpplib.a(ppCtx.o)
 .xdata$_ZN6SymbolD1Ev
                0x0000000000451e70        0x8 C:\orangec\src\..\src\lib\mingw64/libocpplib.a(ppDefine.o)
 .xdata         0x0000000000451e78      0x744 C:\orangec\src\..\src\lib\mingw64/libocpplib.a(ppDefine.o)
 .xdata$_ZN6SymbolD0Ev
                0x00000000004525bc        0x8 C:\orangec\src\..\src\lib\mingw64/libocpplib.a(ppDefine.o)
 .xdata.unlikely
                0x00000000004525c4        0xc C:\orangec\src\..\src\lib\mingw64/libocpplib.a(ppDefine.o)
 .xdata$_ZN8ppDefine10DefinitionD1Ev
                0x00000000004525d0       0x10 C:\orangec\src\..\src\lib\mingw64/libocpplib.a(ppDefine.o)
 .xdata$_ZN8ppDefine10DefinitionD0Ev
                0x00000000004525e0       0x10 C:\orangec\src\..\src\lib\mingw64/libocpplib.a(ppDefine.o)
 .xdata$_ZN6SymbolD2Ev
                0x00000000004525f0        0x8 C:\orangec\src\..\src\lib\mingw64/libocpplib.a(ppDefine.o)
 .xdata$_ZNSt10_HashtableINSt7__cxx1112basic_stringIcSt11char_traitsIcESaIcEEESt4pairIKS5_P6SymbolESaISA_ENSt8__detail10_Select1stESt8equal_toIS5_ESt4hashIS5_ENSC_18_Mod_range_hashingENSC_20_Default_ranged_hashENSC_20_Prime_rehash_policyENSC_17_Hashtable_traitsILb1ELb0ELb1EEEE4findERS7_
                0x00000000004525f8       0x1c C:\orangec\src\..\src\lib\mingw64/libocpplib.a(ppDefine.o)
 .xdata$_ZNSt5dequeIPN8ppDefine10DefinitionESaIS2_EE16_M_push_back_auxIJRKS2_EEEvDpOT_
                0x0000000000452614       0x14 C:\orangec\src\..\src\lib\mingw64/libocpplib.a(ppDefine.o)
 .xdata$_ZNSt5dequeIN8ppDefine8TokenPosESaIS1_EE16_M_push_back_auxIJRKS1_EEEvDpOT_
                0x0000000000452628       0x14 C:\orangec\src\..\src\lib\mingw64/libocpplib.a(ppDefine.o)
 .xdata$_ZNSt11_Deque_baseIPN8ppDefine10DefinitionESaIS2_EED2Ev
                0x000000000045263c        0xc C:\orangec\src\..\src\lib\mingw64/libocpplib.a(ppDefine.o)
 .xdata$_ZNSt11_Deque_baseIPN8ppDefine10DefinitionESaIS2_EE17_M_initialize_mapEy
                0x0000000000452648       0x3c C:\orangec\src\..\src\lib\mingw64/libocpplib.a(ppDefine.o)
 .xdata$_ZNSt6vectorINSt7__cxx1112basic_stringIcSt11char_traitsIcESaIcEEESaIS5_EE17_M_realloc_insertIJRKS5_EEEvN9__gnu_cxx17__normal_iteratorIPS5_S7_EEDpOT_
                0x0000000000452684       0x3c C:\orangec\src\..\src\lib\mingw64/libocpplib.a(ppDefine.o)
 .xdata$_ZNKSt10_HashtableINSt7__cxx1112basic_stringIcSt11char_traitsIcESaIcEEESt4pairIKS5_St5stackIPN8ppDefine10DefinitionESt5dequeISB_SaISB_EEEESaISG_ENSt8__detail10_Select1stESt8equal_toIS5_ESt4hashIS5_ENSI_18_Mod_range_hashingENSI_20_Default_ranged_hashENSI_20_Prime_rehash_policyENSI_17_Hashtable_traitsILb1ELb0ELb1EEEE19_M_find_before_nodeEyRS7_y
                0x00000000004526c0       0x10 C:\orangec\src\..\src\lib\mingw64/libocpplib.a(ppDefine.o)
 .xdata$_ZNSt10_HashtableINSt7__cxx1112basic_stringIcSt11char_traitsIcESaIcEEESt4pairIKS5_St5stackIPN8ppDefine10DefinitionESt5dequeISB_SaISB_EEEESaISG_ENSt8__detail10_Select1stESt8equal_toIS5_ESt4hashIS5_ENSI_18_Mod_range_hashingENSI_20_Default_ranged_hashENSI_20_Prime_rehash_policyENSI_17_Hashtable_traitsILb1ELb0ELb1EEEE4findERS7_
                0x00000000004526d0       0x14 C:\orangec\src\..\src\lib\mingw64/libocpplib.a(ppDefine.o)
 .xdata$_ZNSt10_HashtableINSt7__cxx1112basic_stringIcSt11char_traitsIcESaIcEEESt4pairIKS5_St5stackIPN8ppDefine10DefinitionESt5dequeISB_SaISB_EEEESaISG_ENSt8__detail10_Select1stESt8equal_toIS5_ESt4hashIS5_ENSI_18_Mod_range_hashingENSI_20_Default_ranged_hashENSI_20_Prime_rehash_policyENSI_17_Hashtable_traitsILb1ELb0ELb1EEEE9_M_rehashEyRKy
                0x00000000004526e4       0x30 C:\orangec\src\..\src\lib\mingw64/libocpplib.a(ppDefine.o)
 .xdata$_ZNSt8__detail9_Map_baseINSt7__cxx1112basic_stringIcSt11char_traitsIcESaIcEEESt4pairIKS6_St5stackIPN8ppDefine10DefinitionESt5dequeISC_SaISC_EEEESaISH_ENS_10_Select1stESt8equal_toIS6_ESt4hashIS6_ENS_18_Mod_range_hashingENS_20_Default_ranged_hashENS_20_Prime_rehash_policyENS_17_Hashtable_traitsILb1ELb0ELb1EEELb1EEixERS8_
                0x0000000000452714       0x58 C:\orangec\src\..\src\lib\mingw64/libocpplib.a(ppDefine.o)
 .xdata$_ZNSt10_HashtableINSt7__cxx1112basic_stringIcSt11char_traitsIcESaIcEEESt4pairIKS5_2kwESaIS9_ENSt8__detail10_Select1stESt8equal_toIS5_ESt4hashIS5_ENSB_18_Mod_range_hashingENSB_20_Default_ranged_hashENSB_20_Prime_rehash_policyENSB_17_Hashtable_traitsILb1ELb0ELb1EEEE9_M_rehashEyRKy
                0x000000000045276c       0x30 C:\orangec\src\..\src\lib\mingw64/libocpplib.a(ppDefine.o)
 .xdata$_ZNSt10_HashtableINSt7__cxx1112basic_stringIcSt11char_traitsIcESaIcEEESt4pairIKS5_2kwESaIS9_ENSt8__detail10_Select1stESt8equal_toIS5_ESt4hashIS5_ENSB_18_Mod_range_hashingENSB_20_Default_ranged_hashENSB_20_Prime_rehash_policyENSB_17_Hashtable_traitsILb1ELb0ELb1EEEEC1IPKS9_EET_SQ_yRKSG_RKSH_RKSI_RKSE_RKSC_RKSA_
                0x000000000045279c       0x58 C:\orangec\src\..\src\lib\mingw64/libocpplib.a(ppDefine.o)
 .xdata.startup
                0x00000000004527f4       0x28 C:\orangec\src\..\src\lib\mingw64/libocpplib.a(ppDefine.o)
 .xdata         0x000000000045281c      0x230 C:\orangec\src\..\src\lib\mingw64/libocpplib.a(ppExpr.o)
 .xdata.startup
                0x0000000000452a4c       0x2c C:\orangec\src\..\src\lib\mingw64/libocpplib.a(ppExpr.o)
 .xdata         0x0000000000452a78      0x318 C:\orangec\src\..\src\lib\mingw64/libocpplib.a(ppInclude.o)
 .xdata$_ZN6ppFileD0Ev
                0x0000000000452d90        0x8 C:\orangec\src\..\src\lib\mingw64/libocpplib.a(ppInclude.o)
 .xdata$_ZNSt5dequeISt10unique_ptrIN6ppCond4skipESt14default_deleteIS2_EESaIS5_EED1Ev
                0x0000000000452d98       0x18 C:\orangec\src\..\src\lib\mingw64/libocpplib.a(ppInclude.o)
 .xdata$_ZNSt8_Rb_treeINSt7__cxx1112basic_stringIcSt11char_traitsIcESaIcEEES5_St9_IdentityIS5_ESt4lessIS5_ESaIS5_EE4findERKS5_
                0x0000000000452db0       0x14 C:\orangec\src\..\src\lib\mingw64/libocpplib.a(ppInclude.o)
 .xdata$_ZNSt10_HashtableINSt7__cxx1112basic_stringIcSt11char_traitsIcESaIcEEESt4pairIKS5_iESaIS8_ENSt8__detail10_Select1stESt8equal_toIS5_ESt4hashIS5_ENSA_18_Mod_range_hashingENSA_20_Default_ranged_hashENSA_20_Prime_rehash_policyENSA_17_Hashtable_traitsILb1ELb0ELb1EEEE21_M_insert_unique_nodeEyyPNSA_10_Hash_nodeIS8_Lb1EEEy
                0x0000000000452dc4       0x40 C:\orangec\src\..\src\lib\mingw64/libocpplib.a(ppInclude.o)
 .xdata$_ZNSt8_Rb_treeINSt7__cxx1112basic_stringIcSt11char_traitsIcESaIcEEES5_St9_IdentityIS5_ESt4lessIS5_ESaIS5_EE16_M_insert_uniqueIRKS5_EESt4pairISt17_Rb_tree_iteratorIS5_EbEOT_
                0x0000000000452e04       0x40 C:\orangec\src\..\src\lib\mingw64/libocpplib.a(ppInclude.o)
 .xdata$_ZNKSt10_HashtableINSt7__cxx1112basic_stringIcSt11char_traitsIcESaIcEEESt4pairIKS5_iESaIS8_ENSt8__detail10_Select1stESt8equal_toIS5_ESt4hashIS5_ENSA_18_Mod_range_hashingENSA_20_Default_ranged_hashENSA_20_Prime_rehash_policyENSA_17_Hashtable_traitsILb1ELb0ELb1EEEE19_M_find_before_nodeEyRS7_y
                0x0000000000452e44       0x10 C:\orangec\src\..\src\lib\mingw64/libocpplib.a(ppInclude.o)
 .xdata$_ZNSt8__detail9_Map_baseINSt7__cxx1112basic_stringIcSt11char_traitsIcESaIcEEESt4pairIKS6_iESaIS9_ENS_10_Select1stESt8equal_toIS6_ESt4hashIS6_ENS_18_Mod_range_hashingENS_20_Default_ranged_hashENS_20_Prime_rehash_policyENS_17_Hashtable_traitsILb1ELb0ELb1EEELb1EEixERS8_
                0x0000000000452e54       0x3c C:\orangec\src\..\src\lib\mingw64/libocpplib.a(ppInclude.o)
 .xdata.startup
                0x0000000000452e90        0x8 C:\orangec\src\..\src\lib\mingw64/libocpplib.a(ppInclude.o)
 .xdata         0x0000000000452e98      0x314 C:\orangec\src\..\src\lib\mingw64/libocpplib.a(ppMacro.o)
 .xdata$_ZNSt5dequeIiSaIiEE17_M_push_front_auxIJiEEEvDpOT_
                0x00000000004531ac       0x14 C:\orangec\src\..\src\lib\mingw64/libocpplib.a(ppMacro.o)
 .xdata$_ZNSt6vectorISt10unique_ptrI9MacroDataSt14default_deleteIS1_EESaIS4_EE17_M_realloc_insertIJS4_EEEvN9__gnu_cxx17__normal_iteratorIPS4_S6_EEDpOT_
                0x00000000004531c0       0x18 C:\orangec\src\..\src\lib\mingw64/libocpplib.a(ppMacro.o)
 .xdata$_ZNSt6vectorISt10unique_ptrI9MacroDataSt14default_deleteIS1_EESaIS4_EE12emplace_backIJS4_EEEvDpOT_
                0x00000000004531d8        0x4 C:\orangec\src\..\src\lib\mingw64/libocpplib.a(ppMacro.o)
 .xdata$_ZNSt10_HashtableINSt7__cxx1112basic_stringIcSt11char_traitsIcESaIcEEESt4pairIKS5_P9MacroDataESaISA_ENSt8__detail10_Select1stESt8equal_toIS5_ESt4hashIS5_ENSC_18_Mod_range_hashingENSC_20_Default_ranged_hashENSC_20_Prime_rehash_policyENSC_17_Hashtable_traitsILb1ELb0ELb1EEEE21_M_insert_unique_nodeEyyPNSC_10_Hash_nodeISA_Lb1EEEy
                0x00000000004531dc       0x40 C:\orangec\src\..\src\lib\mingw64/libocpplib.a(ppMacro.o)
 .xdata$_ZNKSt10_HashtableINSt7__cxx1112basic_stringIcSt11char_traitsIcESaIcEEESt4pairIKS5_P9MacroDataESaISA_ENSt8__detail10_Select1stESt8equal_toIS5_ESt4hashIS5_ENSC_18_Mod_range_hashingENSC_20_Default_ranged_hashENSC_20_Prime_rehash_policyENSC_17_Hashtable_traitsILb1ELb0ELb1EEEE19_M_find_before_nodeEyRS7_y
                0x000000000045321c       0x10 C:\orangec\src\..\src\lib\mingw64/libocpplib.a(ppMacro.o)
 .xdata$_ZNSt10_HashtableINSt7__cxx1112basic_stringIcSt11char_traitsIcESaIcEEESt4pairIKS5_P9MacroDataESaISA_ENSt8__detail10_Select1stESt8equal_toIS5_ESt4hashIS5_ENSC_18_Mod_range_hashingENSC_20_Default_ranged_hashENSC_20_Prime_rehash_policyENSC_17_Hashtable_traitsILb1ELb0ELb1EEEE4findERS7_
                0x000000000045322c       0x14 C:\orangec\src\..\src\lib\mingw64/libocpplib.a(ppMacro.o)
 .xdata$_ZNSt8__detail9_Map_baseINSt7__cxx1112basic_stringIcSt11char_traitsIcESaIcEEESt4pairIKS6_P9MacroDataESaISB_ENS_10_Select1stESt8equal_toIS6_ESt4hashIS6_ENS_18_Mod_range_hashingENS_20_Default_ranged_hashENS_20_Prime_rehash_policyENS_17_Hashtable_traitsILb1ELb0ELb1EEELb1EEixERS8_
                0x0000000000453240       0x3c C:\orangec\src\..\src\lib\mingw64/libocpplib.a(ppMacro.o)
 .xdata         0x000000000045327c      0x368 C:\orangec\src\..\src\lib\mingw64/libocpplib.a(ppPragma.o)
 .xdata$_ZNSt8_Rb_treeIiSt4pairIKiiESt10_Select1stIS2_ESt4lessIiESaIS2_EE8_M_eraseEPSt13_Rb_tree_nodeIS2_E
                0x00000000004535e4        0xc C:\orangec\src\..\src\lib\mingw64/libocpplib.a(ppPragma.o)
 .xdata$_ZNSt8_Rb_treeIN4Once8OnceItemES1_St9_IdentityIS1_ESt4lessIS1_ESaIS1_EE16_M_insert_uniqueIRKS1_EESt4pairISt17_Rb_tree_iteratorIS1_EbEOT_
                0x00000000004535f0       0x14 C:\orangec\src\..\src\lib\mingw64/libocpplib.a(ppPragma.o)
 .xdata$_ZNSt8_Rb_treeIiSt4pairIKiiESt10_Select1stIS2_ESt4lessIiESaIS2_EE7_M_copyINS8_20_Reuse_or_alloc_nodeEEEPSt13_Rb_tree_nodeIS2_EPKSC_PSt18_Rb_tree_node_baseRT_
                0x0000000000453604       0x3c C:\orangec\src\..\src\lib\mingw64/libocpplib.a(ppPragma.o)
 .xdata$_ZNSt8_Rb_treeIiSt4pairIKiiESt10_Select1stIS2_ESt4lessIiESaIS2_EEaSERKS8_
                0x0000000000453640       0x20 C:\orangec\src\..\src\lib\mingw64/libocpplib.a(ppPragma.o)
 .xdata$_ZNSt10_HashtableINSt7__cxx1112basic_stringIcSt11char_traitsIcESaIcEEESt4pairIKS5_S5_ESaIS8_ENSt8__detail10_Select1stESt8equal_toIS5_ESt4hashIS5_ENSA_18_Mod_range_hashingENSA_20_Default_ranged_hashENSA_20_Prime_rehash_policyENSA_17_Hashtable_traitsILb1ELb0ELb1EEEE9_M_rehashEyRKy
                0x0000000000453660       0x30 C:\orangec\src\..\src\lib\mingw64/libocpplib.a(ppPragma.o)
 .xdata$_ZNSt8__detail9_Map_baseINSt7__cxx1112basic_stringIcSt11char_traitsIcESaIcEEESt4pairIKS6_S6_ESaIS9_ENS_10_Select1stESt8equal_toIS6_ESt4hashIS6_ENS_18_Mod_range_hashingENS_20_Default_ranged_hashENS_20_Prime_rehash_policyENS_17_Hashtable_traitsILb1ELb0ELb1EEELb1EEixERS8_
                0x0000000000453690       0x54 C:\orangec\src\..\src\lib\mingw64/libocpplib.a(ppPragma.o)
 .xdata$_ZNSt8_Rb_treeINSt7__cxx1112basic_stringIcSt11char_traitsIcESaIcEEESt4pairIKS5_St10unique_ptrIN8Startups10PropertiesESt14default_deleteISA_EEESt10_Select1stISE_ESt4lessIS5_ESaISE_EE24_M_get_insert_unique_posERS7_
                0x00000000004536e4       0x18 C:\orangec\src\..\src\lib\mingw64/libocpplib.a(ppPragma.o)
 .xdata$_ZNSt8_Rb_treeINSt7__cxx1112basic_stringIcSt11char_traitsIcESaIcEEESt4pairIKS5_St10unique_ptrIN8Startups10PropertiesESt14default_deleteISA_EEESt10_Select1stISE_ESt4lessIS5_ESaISE_EE22_M_emplace_hint_uniqueIJRKSt21piecewise_construct_tSt5tupleIJRS7_EESP_IJEEEEESt17_Rb_tree_iteratorISE_ESt23_Rb_tree_const_iteratorISE_EDpOT_
                0x00000000004536fc       0x3c C:\orangec\src\..\src\lib\mingw64/libocpplib.a(ppPragma.o)
 .xdata$_ZNSt8_Rb_treeIiSt4pairIKiiESt10_Select1stIS2_ESt4lessIiESaIS2_EE24_M_get_insert_unique_posERS1_
                0x0000000000453738        0xc C:\orangec\src\..\src\lib\mingw64/libocpplib.a(ppPragma.o)
 .xdata$_ZNSt8_Rb_treeIiSt4pairIKiiESt10_Select1stIS2_ESt4lessIiESaIS2_EE22_M_emplace_hint_uniqueIJRKSt21piecewise_construct_tSt5tupleIJRS1_EESD_IJEEEEESt17_Rb_tree_iteratorIS2_ESt23_Rb_tree_const_iteratorIS2_EDpOT_
                0x0000000000453744       0x14 C:\orangec\src\..\src\lib\mingw64/libocpplib.a(ppPragma.o)
 .xdata$_ZNSt5dequeIiSaIiEE17_M_reallocate_mapEyb
                0x0000000000453758       0x18 C:\orangec\src\..\src\lib\mingw64/libocpplib.a(ppPragma.o)
 .xdata$_ZNSt5dequeIbSaIbEE17_M_reallocate_mapEyb
                0x0000000000453770       0x18 C:\orangec\src\..\src\lib\mingw64/libocpplib.a(ppPragma.o)
 .xdata$_ZNSt5dequeIbSaIbEE16_M_push_back_auxIJRKbEEEvDpOT_
                0x0000000000453788        0xc C:\orangec\src\..\src\lib\mingw64/libocpplib.a(ppPragma.o)
 .xdata$_ZNSt8_Rb_treeIiSt4pairIKiiESt10_Select1stIS2_ESt4lessIiESaIS2_EE7_M_copyINS8_11_Alloc_nodeEEEPSt13_Rb_tree_nodeIS2_EPKSC_PSt18_Rb_tree_node_baseRT_
                0x0000000000453794       0x38 C:\orangec\src\..\src\lib\mingw64/libocpplib.a(ppPragma.o)
 .xdata$_ZNSt5dequeISt3mapIiiSt4lessIiESaISt4pairIKiiEEESaIS7_EE16_M_push_back_auxIJRKS7_EEEvDpOT_
                0x00000000004537cc       0x40 C:\orangec\src\..\src\lib\mingw64/libocpplib.a(ppPragma.o)
 .xdata.startup
                0x000000000045380c       0x28 C:\orangec\src\..\src\lib\mingw64/libocpplib.a(ppPragma.o)
 .xdata$_ZNSt10_HashtableINSt7__cxx1112basic_stringIcSt11char_traitsIcESaIcEEESt4pairIKS5_2kwESaIS9_ENSt8__detail10_Select1stESt8equal_toIS5_ESt4hashIS5_ENSB_18_Mod_range_hashingENSB_20_Default_ranged_hashENSB_20_Prime_rehash_policyENSB_17_Hashtable_traitsILb1ELb0ELb1EEEE21_M_insert_unique_nodeEyyPNSB_10_Hash_nodeIS9_Lb1EEEy
                0x0000000000453834       0x40 C:\orangec\src\..\src\lib\mingw64/libocpplib.a(PreProcessor.o)
 .xdata$_ZNSt8__detail9_Map_baseINSt7__cxx1112basic_stringIcSt11char_traitsIcESaIcEEESt4pairIKS6_2kwESaISA_ENS_10_Select1stESt8equal_toIS6_ESt4hashIS6_ENS_18_Mod_range_hashingENS_20_Default_ranged_hashENS_20_Prime_rehash_policyENS_17_Hashtable_traitsILb1ELb0ELb1EEELb1EEixEOS6_
                0x0000000000453874       0x20 C:\orangec\src\..\src\lib\mingw64/libocpplib.a(PreProcessor.o)
 .xdata         0x0000000000453894      0x388 C:\orangec\src\..\src\lib\mingw64/libocpplib.a(PreProcessor.o)
 .xdata         0x0000000000453c1c       0x64 C:\orangec\src\..\src\lib\mingw64/libocpplib.a(SymbolTable.o)
 .xdata$_ZNSt10_HashtableINSt7__cxx1112basic_stringIcSt11char_traitsIcESaIcEEESt4pairIKS5_P6SymbolESaISA_ENSt8__detail10_Select1stESt8equal_toIS5_ESt4hashIS5_ENSC_18_Mod_range_hashingENSC_20_Default_ranged_hashENSC_20_Prime_rehash_policyENSC_17_Hashtable_traitsILb1ELb0ELb1EEEED1Ev
                0x0000000000453c80        0xc C:\orangec\src\..\src\lib\mingw64/libocpplib.a(SymbolTable.o)
 .xdata$_ZNSt11_Deque_baseISt10unique_ptrI6SymbolSt14default_deleteIS1_EESaIS4_EED2Ev
                0x0000000000453c8c        0xc C:\orangec\src\..\src\lib\mingw64/libocpplib.a(SymbolTable.o)
 .xdata$_ZNSt5dequeISt10unique_ptrI6SymbolSt14default_deleteIS1_EESaIS4_EE8_M_eraseESt15_Deque_iteratorIS4_RS4_PS4_E
                0x0000000000453c98       0x18 C:\orangec\src\..\src\lib\mingw64/libocpplib.a(SymbolTable.o)
 .xdata$_ZNSt5dequeISt10unique_ptrI6SymbolSt14default_deleteIS1_EESaIS4_EE19_M_destroy_data_auxESt15_Deque_iteratorIS4_RS4_PS4_ESA_
                0x0000000000453cb0       0x18 C:\orangec\src\..\src\lib\mingw64/libocpplib.a(SymbolTable.o)
 .xdata$_ZNSt8__detail16_Hashtable_allocISaINS_10_Hash_nodeISt4pairIKNSt7__cxx1112basic_stringIcSt11char_traitsIcESaIcEEEP6SymbolELb1EEEEE16_M_allocate_nodeIJRKSt21piecewise_construct_tSt5tupleIJRS9_EESK_IJEEEEEPSD_DpOT_
                0x0000000000453cc8       0x30 C:\orangec\src\..\src\lib\mingw64/libocpplib.a(SymbolTable.o)
 .xdata$_ZNSt10_HashtableINSt7__cxx1112basic_stringIcSt11char_traitsIcESaIcEEESt4pairIKS5_P6SymbolESaISA_ENSt8__detail10_Select1stESt8equal_toIS5_ESt4hashIS5_ENSC_18_Mod_range_hashingENSC_20_Default_ranged_hashENSC_20_Prime_rehash_policyENSC_17_Hashtable_traitsILb1ELb0ELb1EEEE21_M_insert_unique_nodeEyyPNSC_10_Hash_nodeISA_Lb1EEEy
                0x0000000000453cf8       0x40 C:\orangec\src\..\src\lib\mingw64/libocpplib.a(SymbolTable.o)
 .xdata$_ZNSt5dequeISt10unique_ptrI6SymbolSt14default_deleteIS1_EESaIS4_EE16_M_push_back_auxIJS4_EEEvDpOT_
                0x0000000000453d38       0x14 C:\orangec\src\..\src\lib\mingw64/libocpplib.a(SymbolTable.o)
 .xdata$_ZNKSt10_HashtableINSt7__cxx1112basic_stringIcSt11char_traitsIcESaIcEEESt4pairIKS5_P6SymbolESaISA_ENSt8__detail10_Select1stESt8equal_toIS5_ESt4hashIS5_ENSC_18_Mod_range_hashingENSC_20_Default_ranged_hashENSC_20_Prime_rehash_policyENSC_17_Hashtable_traitsILb1ELb0ELb1EEEE19_M_find_before_nodeEyRS7_y
                0x0000000000453d4c       0x10 C:\orangec\src\..\src\lib\mingw64/libocpplib.a(SymbolTable.o)
 .xdata$_ZNK5Token9IsNumericEv
                0x0000000000453d5c        0x4 C:\orangec\src\..\src\lib\mingw64/libocpplib.a(Token.o)
 .xdata$_ZNK5Token10IsFloatingEv
                0x0000000000453d60        0x4 C:\orangec\src\..\src\lib\mingw64/libocpplib.a(Token.o)
 .xdata$_ZNK5Token9IsKeywordEv
                0x0000000000453d64        0x4 C:\orangec\src\..\src\lib\mingw64/libocpplib.a(Token.o)
 .xdata$_ZNK5Token11IsCharacterEv
                0x0000000000453d68        0x4 C:\orangec\src\..\src\lib\mingw64/libocpplib.a(Token.o)
 .xdata$_ZNK5Token8IsStringEv
                0x0000000000453d6c        0x4 C:\orangec\src\..\src\lib\mingw64/libocpplib.a(Token.o)
 .xdata$_ZNK5Token12IsIdentifierEv
                0x0000000000453d70        0x4 C:\orangec\src\..\src\lib\mingw64/libocpplib.a(Token.o)
 .xdata$_ZNK5Token5IsEndEv
                0x0000000000453d74        0x4 C:\orangec\src\..\src\lib\mingw64/libocpplib.a(Token.o)
 .xdata$_ZNK5Token7IsErrorEv
                0x0000000000453d78        0x4 C:\orangec\src\..\src\lib\mingw64/libocpplib.a(Token.o)
 .xdata$_ZNK5Token6IsWideEv
                0x0000000000453d7c        0x4 C:\orangec\src\..\src\lib\mingw64/libocpplib.a(Token.o)
 .xdata$_ZNK5Token10GetIntegerEv
                0x0000000000453d80        0x4 C:\orangec\src\..\src\lib\mingw64/libocpplib.a(Token.o)
 .xdata$_ZNK5Token14GetNumericTypeEv
                0x0000000000453d84        0x4 C:\orangec\src\..\src\lib\mingw64/libocpplib.a(Token.o)
 .xdata$_ZNK5Token8GetFloatEv
                0x0000000000453d88        0x4 C:\orangec\src\..\src\lib\mingw64/libocpplib.a(Token.o)
 .xdata$_ZNK5Token10GetKeywordEv
                0x0000000000453d8c        0x4 C:\orangec\src\..\src\lib\mingw64/libocpplib.a(Token.o)
 .xdata$_ZN5Token5ParseERNSt7__cxx1112basic_stringIcSt11char_traitsIcESaIcEEE
                0x0000000000453d90        0x4 C:\orangec\src\..\src\lib\mingw64/libocpplib.a(Token.o)
 .xdata$_ZNK11StringToken8IsStringEv
                0x0000000000453d94        0x4 C:\orangec\src\..\src\lib\mingw64/libocpplib.a(Token.o)
 .xdata$_ZNK11StringToken6IsWideEv
                0x0000000000453d98        0x4 C:\orangec\src\..\src\lib\mingw64/libocpplib.a(Token.o)
 .xdata$_ZNK14CharacterToken11IsCharacterEv
                0x0000000000453d9c        0x4 C:\orangec\src\..\src\lib\mingw64/libocpplib.a(Token.o)
 .xdata$_ZNK14CharacterToken10GetIntegerEv
                0x0000000000453da0        0x4 C:\orangec\src\..\src\lib\mingw64/libocpplib.a(Token.o)
 .xdata$_ZNK12NumericToken9IsNumericEv
                0x0000000000453da4        0x4 C:\orangec\src\..\src\lib\mingw64/libocpplib.a(Token.o)
 .xdata$_ZNK12NumericToken10IsFloatingEv
                0x0000000000453da8        0x4 C:\orangec\src\..\src\lib\mingw64/libocpplib.a(Token.o)
 .xdata$_ZNK12NumericToken14GetNumericTypeEv
                0x0000000000453dac        0x4 C:\orangec\src\..\src\lib\mingw64/libocpplib.a(Token.o)
 .xdata$_ZNK12KeywordToken9IsKeywordEv
                0x0000000000453db0        0x4 C:\orangec\src\..\src\lib\mingw64/libocpplib.a(Token.o)
 .xdata$_ZNK12KeywordToken10GetKeywordEv
                0x0000000000453db4        0x4 C:\orangec\src\..\src\lib\mingw64/libocpplib.a(Token.o)
 .xdata$_ZNK12KeywordToken7IsErrorEv
                0x0000000000453db8        0x4 C:\orangec\src\..\src\lib\mingw64/libocpplib.a(Token.o)
 .xdata$_ZNK15IdentifierToken12IsIdentifierEv
                0x0000000000453dbc        0x4 C:\orangec\src\..\src\lib\mingw64/libocpplib.a(Token.o)
 .xdata$_ZNK15IdentifierToken9IsKeywordEv
                0x0000000000453dc0        0x4 C:\orangec\src\..\src\lib\mingw64/libocpplib.a(Token.o)
 .xdata$_ZNK15IdentifierToken10GetKeywordEv
                0x0000000000453dc4        0x4 C:\orangec\src\..\src\lib\mingw64/libocpplib.a(Token.o)
 .xdata$_ZNK15IdentifierToken5GetIdB5cxx11Ev
                0x0000000000453dc8        0x4 C:\orangec\src\..\src\lib\mingw64/libocpplib.a(Token.o)
 .xdata$_ZNK8EndToken5IsEndEv
                0x0000000000453dcc        0x4 C:\orangec\src\..\src\lib\mingw64/libocpplib.a(Token.o)
 .xdata$_ZNK10ErrorToken7IsErrorEv
                0x0000000000453dd0        0x4 C:\orangec\src\..\src\lib\mingw64/libocpplib.a(Token.o)
 .xdata$_ZN8EndTokenD1Ev
                0x0000000000453dd4        0x4 C:\orangec\src\..\src\lib\mingw64/libocpplib.a(Token.o)
 .xdata$_ZN10ErrorTokenD1Ev
                0x0000000000453dd8        0x4 C:\orangec\src\..\src\lib\mingw64/libocpplib.a(Token.o)
 .xdata$_ZN12KeywordTokenD1Ev
                0x0000000000453ddc        0x4 C:\orangec\src\..\src\lib\mingw64/libocpplib.a(Token.o)
 .xdata$_ZN12NumericTokenD1Ev
                0x0000000000453de0        0x4 C:\orangec\src\..\src\lib\mingw64/libocpplib.a(Token.o)
 .xdata$_ZN14CharacterTokenD1Ev
                0x0000000000453de4        0x4 C:\orangec\src\..\src\lib\mingw64/libocpplib.a(Token.o)
 .xdata$_ZN5TokenD1Ev
                0x0000000000453de8        0x4 C:\orangec\src\..\src\lib\mingw64/libocpplib.a(Token.o)
 .xdata         0x0000000000453dec      0x2bc C:\orangec\src\..\src\lib\mingw64/libocpplib.a(Token.o)
 .xdata$_ZN15IdentifierTokenD1Ev
                0x00000000004540a8        0x8 C:\orangec\src\..\src\lib\mingw64/libocpplib.a(Token.o)
 .xdata$_ZN11StringTokenD1Ev
                0x00000000004540b0        0x8 C:\orangec\src\..\src\lib\mingw64/libocpplib.a(Token.o)
 .xdata$_ZN8EndTokenD0Ev
                0x00000000004540b8        0x8 C:\orangec\src\..\src\lib\mingw64/libocpplib.a(Token.o)
 .xdata$_ZN10ErrorTokenD0Ev
                0x00000000004540c0        0x8 C:\orangec\src\..\src\lib\mingw64/libocpplib.a(Token.o)
 .xdata$_ZN12KeywordTokenD0Ev
                0x00000000004540c8        0x8 C:\orangec\src\..\src\lib\mingw64/libocpplib.a(Token.o)
 .xdata$_ZN12NumericTokenD0Ev
                0x00000000004540d0        0x8 C:\orangec\src\..\src\lib\mingw64/libocpplib.a(Token.o)
 .xdata$_ZN14CharacterTokenD0Ev
                0x00000000004540d8        0x8 C:\orangec\src\..\src\lib\mingw64/libocpplib.a(Token.o)
 .xdata$_ZN5TokenD0Ev
                0x00000000004540e0        0x8 C:\orangec\src\..\src\lib\mingw64/libocpplib.a(Token.o)
 .xdata$_ZNK5Token5GetIdB5cxx11Ev
                0x00000000004540e8        0x8 C:\orangec\src\..\src\lib\mingw64/libocpplib.a(Token.o)
 .xdata$_ZN15IdentifierTokenD0Ev
                0x00000000004540f0        0x8 C:\orangec\src\..\src\lib\mingw64/libocpplib.a(Token.o)
 .xdata$_ZN11StringTokenD0Ev
                0x00000000004540f8        0x8 C:\orangec\src\..\src\lib\mingw64/libocpplib.a(Token.o)
 .xdata$_ZNSt10_HashtableINSt7__cxx1112basic_stringIcSt11char_traitsIcESaIcEEESt4pairIKS5_2kwESaIS9_ENSt8__detail10_Select1stESt8equal_toIS5_ESt4hashIS5_ENSB_18_Mod_range_hashingENSB_20_Default_ranged_hashENSB_20_Prime_rehash_policyENSB_17_Hashtable_traitsILb1ELb0ELb1EEEE4findERS7_
                0x0000000000454100       0x1c C:\orangec\src\..\src\lib\mingw64/libocpplib.a(Token.o)
 .xdata$_ZNSt7__cxx1112basic_stringIwSt11char_traitsIwESaIwEE12_M_constructIPKwEEvT_S8_St20forward_iterator_tag
                0x000000000045411c        0xc C:\orangec\src\..\src\lib\mingw64/libocpplib.a(Token.o)
 .xdata$_ZNK5Token9GetStringB5cxx11Ev
                0x0000000000454128        0x8 C:\orangec\src\..\src\lib\mingw64/libocpplib.a(Token.o)
 .xdata$_ZNK5Token12GetRawStringB5cxx11Ev
                0x0000000000454130        0x8 C:\orangec\src\..\src\lib\mingw64/libocpplib.a(Token.o)
 .xdata$_ZNSt7__cxx1112basic_stringIwSt11char_traitsIwESaIwEE12_M_constructIPwEEvT_S7_St20forward_iterator_tag
                0x0000000000454138        0xc C:\orangec\src\..\src\lib\mingw64/libocpplib.a(Token.o)
 .xdata$_ZNK11StringToken12GetRawStringB5cxx11Ev
                0x0000000000454144        0x8 C:\orangec\src\..\src\lib\mingw64/libocpplib.a(Token.o)
 .xdata$_ZNK11StringToken9GetStringB5cxx11Ev
                0x000000000045414c        0x8 C:\orangec\src\..\src\lib\mingw64/libocpplib.a(Token.o)
 .xdata         0x0000000000454154      0x178 C:\orangec\src\..\src\lib\mingw64/libocpplib.a(Floating.o)
 .xdata.startup
                0x00000000004542cc        0x8 C:\orangec\src\..\src\lib\mingw64/libocpplib.a(Floating.o)
 .xdata$_ZN9InputFile12StripCommentEPc
                0x00000000004542d4        0x8 C:\orangec\src\..\src\lib\mingw64/libocpplib.a(InputFile.o)
 .xdata         0x00000000004542dc       0xb4 C:\orangec\src\..\src\lib\mingw64/libocpplib.a(InputFile.o)
 .xdata.startup
                0x0000000000454390        0x4 C:\orangec\src\..\src\lib\mingw64/libocpplib.a(InputFile.o)
 .xdata         0x0000000000454394      0x318 C:\orangec\src\..\src\lib\mingw64/libocpplib.a(ppCond.o)
 .xdata$_ZNSt5dequeISt10unique_ptrIN6ppCond4skipESt14default_deleteIS2_EESaIS5_EE17_M_push_front_auxIJS5_EEEvDpOT_
                0x00000000004546ac       0x14 C:\orangec\src\..\src\lib\mingw64/libocpplib.a(ppCond.o)
 .xdata$_ZStplIcSt11char_traitsIcESaIcEENSt7__cxx1112basic_stringIT_T0_T1_EEPKS5_RKS8_
                0x00000000004546c0       0x24 C:\orangec\src\..\src\lib\mingw64/libocpplib.a(ppError.o)
 .xdata         0x00000000004546e4       0x2c C:\orangec\src\..\src\lib\mingw64/libocpplib.a(ppError.o)
 .xdata         0x0000000000454710       0x80 C:\orangec\src\..\src\lib\mingw64/libocpplib.a(ppFile.o)
 .xdata$_ZN6ppFileD1Ev
                0x0000000000454790        0x8 C:\orangec\src\..\src\lib\mingw64/libocpplib.a(ppFile.o)
 .xdata         0x0000000000454798      0x138 C:\orangec\src\..\src\lib\mingw64/libutil.a(CmdFiles.o)
 .xdata$_ZN12CmdSwitchInt16RequiresArgumentEv
                0x00000000004548d0        0x4 C:\orangec\src\..\src\lib\mingw64/libutil.a(CmdSwitch.o)
 .xdata$_ZN15CmdSwitchDefine9SetArgNumEi
                0x00000000004548d4        0x4 C:\orangec\src\..\src\lib\mingw64/libutil.a(CmdSwitch.o)
 .xdata         0x00000000004548d8      0x284 C:\orangec\src\..\src\lib\mingw64/libutil.a(CmdSwitch.o)
 .xdata$_ZNSt6vectorISt10unique_ptrIN15CmdSwitchDefine6defineESt14default_deleteIS2_EESaIS5_EE17_M_realloc_insertIJS5_EEEvN9__gnu_cxx17__normal_iteratorIPS5_S7_EEDpOT_
                0x0000000000454b5c       0x18 C:\orangec\src\..\src\lib\mingw64/libutil.a(CmdSwitch.o)
 .xdata.startup
                0x0000000000454b74        0x8 C:\orangec\src\..\src\lib\mingw64/libutil.a(CmdSwitch.o)
 .xdata         0x0000000000454b7c        0x4 C:\orangec\src\..\src\lib\mingw64/libutil.a(crc.o)
 .xdata         0x0000000000454b80       0x4c C:\orangec\src\..\src\lib\mingw64/libutil.a(NamedPipe.o)
 .xdata         0x0000000000454bcc       0x3c C:\orangec\src\..\src\lib\mingw64/libutil.a(UTF8.o)
 .xdata         0x0000000000454c08       0x20 C:\orangec\src\..\src\lib\mingw64/libutil.a(UTF8Table.o)
 .xdata         0x0000000000454c28        0x4 C:\orangec\src\..\src\lib\mingw64/libutil.a(UTF8Upper.o)
 .xdata$_Z9vsnprintfPcyPKcS_
                0x0000000000454c2c        0x4 C:\orangec\src\..\src\lib\mingw64/libutil.a(Utils.o)
 .xdata         0x0000000000454c30      0x358 C:\orangec\src\..\src\lib\mingw64/libutil.a(Utils.o)
 .xdata$_Z7fprintfP6_iobufPKcz
                0x0000000000454f88        0x8 C:\orangec\src\..\src\lib\mingw64/libutil.a(Utils.o)
 .xdata$_Z6printfPKcz
                0x0000000000454f90        0xc C:\orangec\src\..\src\lib\mingw64/libutil.a(Utils.o)
 .xdata$_ZN9__gnu_cxx6__stoaIlicJiEEET0_PFT_PKT1_PPS3_DpT2_EPKcS5_PyS9_
                0x0000000000454f9c       0x30 C:\orangec\src\..\src\lib\mingw64/libutil.a(Utils.o)
 .xdata$_ZNSt7__cxx1115basic_stringbufIcSt11char_traitsIcESaIcEED1Ev
                0x0000000000454fcc        0x8 C:\orangec\src\..\src\lib\mingw64/libutil.a(Utils.o)
 .xdata$_ZN9__gnu_cxx12__to_xstringINSt7__cxx1112basic_stringIcSt11char_traitsIcESaIcEEEcEET_PFiPT0_yPKS8_PcEySB_z
                0x0000000000454fd4       0x10 C:\orangec\src\..\src\lib\mingw64/libutil.a(Utils.o)
 .xdata.startup
                0x0000000000454fe4        0x8 C:\orangec\src\..\src\lib\mingw64/libutil.a(Utils.o)
 .xdata         0x0000000000454fec       0x18 C:/mingw64/w64/bin/../lib/gcc/x86_64-w64-mingw32/8.1.0/../../../../x86_64-w64-mingw32/lib/../lib/libmingw32.a(lib64_libmingw32_a-gccmain.o)
 .xdata         0x0000000000455004        0x4 C:/mingw64/w64/bin/../lib/gcc/x86_64-w64-mingw32/8.1.0/../../../../x86_64-w64-mingw32/lib/../lib/libmingw32.a(lib64_libmingw32_a-charmax.o)
 .xdata         0x0000000000455008        0x4 C:/mingw64/w64/bin/../lib/gcc/x86_64-w64-mingw32/8.1.0/../../../../x86_64-w64-mingw32/lib/../lib/libmingw32.a(lib64_libmingw32_a-dllargv.o)
 .xdata         0x000000000045500c       0x20 C:/mingw64/w64/bin/../lib/gcc/x86_64-w64-mingw32/8.1.0/../../../../x86_64-w64-mingw32/lib/../lib/libmingw32.a(lib64_libmingw32_a-gs_support.o)
 .xdata         0x000000000045502c       0x18 C:/mingw64/w64/bin/../lib/gcc/x86_64-w64-mingw32/8.1.0/../../../../x86_64-w64-mingw32/lib/../lib/libmingw32.a(lib64_libmingw32_a-tlssup.o)
 .xdata         0x0000000000455044       0x24 C:/mingw64/w64/bin/../lib/gcc/x86_64-w64-mingw32/8.1.0/../../../../x86_64-w64-mingw32/lib/../lib/libmingw32.a(lib64_libmingw32_a-merr.o)
 .xdata         0x0000000000455068        0x4 C:/mingw64/w64/bin/../lib/gcc/x86_64-w64-mingw32/8.1.0/../../../../x86_64-w64-mingw32/lib/../lib/libmingw32.a(lib64_libmingw32_a-CRT_fp10.o)
 .xdata         0x000000000045506c        0x8 C:/mingw64/w64/bin/../lib/gcc/x86_64-w64-mingw32/8.1.0/../../../../x86_64-w64-mingw32/lib/../lib/libmingw32.a(lib64_libmingw32_a-mingw_helpers.o)
 .xdata.unlikely
                0x0000000000455074        0xc C:/mingw64/w64/bin/../lib/gcc/x86_64-w64-mingw32/8.1.0/../../../../x86_64-w64-mingw32/lib/../lib/libmingw32.a(lib64_libmingw32_a-pseudo-reloc.o)
 .xdata         0x0000000000455080       0x28 C:/mingw64/w64/bin/../lib/gcc/x86_64-w64-mingw32/8.1.0/../../../../x86_64-w64-mingw32/lib/../lib/libmingw32.a(lib64_libmingw32_a-pseudo-reloc.o)
 .xdata         0x00000000004550a8       0x20 C:/mingw64/w64/bin/../lib/gcc/x86_64-w64-mingw32/8.1.0/../../../../x86_64-w64-mingw32/lib/../lib/libmingw32.a(lib64_libmingw32_a-crt_handler.o)
 .xdata         0x00000000004550c8       0x30 C:/mingw64/w64/bin/../lib/gcc/x86_64-w64-mingw32/8.1.0/../../../../x86_64-w64-mingw32/lib/../lib/libmingw32.a(lib64_libmingw32_a-tlsthrd.o)
 .xdata         0x00000000004550f8       0x48 C:/mingw64/w64/bin/../lib/gcc/x86_64-w64-mingw32/8.1.0/../../../../x86_64-w64-mingw32/lib/../lib/libmingw32.a(lib64_libmingw32_a-pesect.o)
 .xdata         0x0000000000455140       0x94 C:/mingw64/w64/bin/../lib/gcc/x86_64-w64-mingw32/8.1.0/libgcc_eh.a(unwind-seh.o)
 .xdata         0x00000000004551d4       0x10 C:/mingw64/w64/bin/../lib/gcc/x86_64-w64-mingw32/8.1.0/../../../../x86_64-w64-mingw32/lib/../lib/libmingwex.a(lib64_libmingwex_a-_stat.o)
 .xdata         0x00000000004551e4        0xc C:/mingw64/w64/bin/../lib/gcc/x86_64-w64-mingw32/8.1.0/../../../../x86_64-w64-mingw32/lib/../lib/libmingwex.a(lib64_libmingwex_a-mingw_vfprintf.o)
 .xdata         0x00000000004551f0        0xc C:/mingw64/w64/bin/../lib/gcc/x86_64-w64-mingw32/8.1.0/../../../../x86_64-w64-mingw32/lib/../lib/libmingwex.a(lib64_libmingwex_a-mingw_vsnprintf.o)
 .xdata         0x00000000004551fc        0x8 C:/mingw64/w64/bin/../lib/gcc/x86_64-w64-mingw32/8.1.0/../../../../x86_64-w64-mingw32/lib/../lib/libmingwex.a(lib64_libmingwex_a-mingw_vsprintf.o)
 .xdata         0x0000000000455204       0xf0 C:/mingw64/w64/bin/../lib/gcc/x86_64-w64-mingw32/8.1.0/../../../../x86_64-w64-mingw32/lib/../lib/libmingwex.a(lib64_libmingwex_a-mingw_pformat.o)
 .xdata         0x00000000004552f4       0x30 C:/mingw64/w64/bin/../lib/gcc/x86_64-w64-mingw32/8.1.0/../../../../x86_64-w64-mingw32/lib/../lib/libmingwex.a(lib64_libmingwex_a-dmisc.o)
 .xdata         0x0000000000455324       0x1c C:/mingw64/w64/bin/../lib/gcc/x86_64-w64-mingw32/8.1.0/../../../../x86_64-w64-mingw32/lib/../lib/libmingwex.a(lib64_libmingwex_a-gdtoa.o)
 .xdata         0x0000000000455340       0x14 C:/mingw64/w64/bin/../lib/gcc/x86_64-w64-mingw32/8.1.0/../../../../x86_64-w64-mingw32/lib/../lib/libmingwex.a(lib64_libmingwex_a-gmisc.o)
 .xdata         0x0000000000455354       0xa4 C:/mingw64/w64/bin/../lib/gcc/x86_64-w64-mingw32/8.1.0/../../../../x86_64-w64-mingw32/lib/../lib/libmingwex.a(lib64_libmingwex_a-misc.o)
 .xdata         0x00000000004553f8       0x40 C:/mingw64/w64/bin/../lib/gcc/x86_64-w64-mingw32/8.1.0/../../../../x86_64-w64-mingw32/lib/../lib/libmingwex.a(lib64_libmingwex_a-mbrtowc.o)
 .xdata         0x0000000000455438        0x4 C:/mingw64/w64/bin/../lib/gcc/x86_64-w64-mingw32/8.1.0/../../../../x86_64-w64-mingw32/lib/../lib/libmingwex.a(lib64_libmingwex_a-strnlen.o)
 .xdata         0x000000000045543c       0x28 C:/mingw64/w64/bin/../lib/gcc/x86_64-w64-mingw32/8.1.0/../../../../x86_64-w64-mingw32/lib/../lib/libmingwex.a(lib64_libmingwex_a-wcrtomb.o)
 .xdata         0x0000000000455464        0x4 C:/mingw64/w64/bin/../lib/gcc/x86_64-w64-mingw32/8.1.0/../../../../x86_64-w64-mingw32/lib/../lib/libmingwex.a(lib64_libmingwex_a-wcsnlen.o)
 .xdata         0x0000000000455468        0x8 C:/mingw64/w64/bin/../lib/gcc/x86_64-w64-mingw32/8.1.0/../../../../x86_64-w64-mingw32/lib/../lib/libmsvcrt.a(lib64_libmsvcrt_os_a-acrt_iob_func.o)
 .xdata         0x0000000000455470        0x8 C:/mingw64/w64/bin/../lib/gcc/x86_64-w64-mingw32/8.1.0/../../../../x86_64-w64-mingw32/lib/../lib/libmsvcrt.a(lib64_libmsvcrt_os_a-invalid_parameter_handler.o)
 .xdata         0x0000000000455478       0x10 C:/mingw64/w64/bin/../lib/gcc/x86_64-w64-mingw32/8.1.0/../../../../x86_64-w64-mingw32/lib/../lib/libmsvcrt.a(lib64_libmsvcrt_os_a-mingw_lock.o)
 .xdata         0x0000000000455488        0x4 C:/mingw64/w64/bin/../lib/gcc/x86_64-w64-mingw32/8.1.0/../../../../x86_64-w64-mingw32/lib/../lib/libmsvcrt.a(lib64_libmsvcrt_os_a-__p___argv.o)
 .xdata         0x000000000045548c        0x4 C:/mingw64/w64/bin/../lib/gcc/x86_64-w64-mingw32/8.1.0/../../../../x86_64-w64-mingw32/lib/../lib/libmsvcrt.a(lib64_libmsvcrt_os_a-__p__acmdln.o)
 .xdata         0x0000000000455490        0x4 C:/mingw64/w64/bin/../lib/gcc/x86_64-w64-mingw32/8.1.0/../../../../x86_64-w64-mingw32/lib/../lib/libmsvcrt.a(lib64_libmsvcrt_os_a-__p__fmode.o)
 .xdata.startup
                0x0000000000455494        0x4 C:/mingw64/w64/bin/../lib/gcc/x86_64-w64-mingw32/8.1.0/crtend.o

.bss            0x0000000000456000     0x2720
                0x0000000000456000                __bss_start__ = .
 *(.bss)
 .bss           0x0000000000456000       0x30 C:/mingw64/w64/bin/../lib/gcc/x86_64-w64-mingw32/8.1.0/../../../../x86_64-w64-mingw32/lib/../lib/crt2.o
 .bss           0x0000000000456030        0x0 C:/mingw64/w64/bin/../lib/gcc/x86_64-w64-mingw32/8.1.0/crtbegin.o
 *fill*         0x0000000000456030       0x10 
 .bss           0x0000000000456040      0xce0 C:\orangec\src\ocpp\obj\mingw64\ppMain.o
                0x0000000000456040                ppMain::MakeStubsContinueUser
                0x00000000004560c0                ppMain::MakeStubsContinue
                0x0000000000456140                ppMain::MakeStubsQuotedTargets
                0x00000000004561e0                ppMain::MakeStubsTargets
                0x0000000000456280                ppMain::MakeStubsPhonyTargets
                0x0000000000456300                ppMain::MakeStubsMissingHeaders
                0x0000000000456380                ppMain::MakeStubsOutputFile
                0x0000000000456420                ppMain::MakeStubsUser
                0x00000000004564a0                ppMain::MakeStubs
                0x0000000000456520                ppMain::outputPath
                0x00000000004565c0                ppMain::File
                0x0000000000456660                ppMain::errorMax
                0x0000000000456700                ppMain::CPPsysIncludePath
                0x00000000004567a0                ppMain::CsysIncludePath
                0x0000000000456840                ppMain::includePath
                0x00000000004568e0                ppMain::undefines
                0x0000000000456960                ppMain::defines
                0x00000000004569e0                ppMain::trigraphs
                0x0000000000456a60                ppMain::c11Mode
                0x0000000000456ae0                ppMain::c99Mode
                0x0000000000456b60                ppMain::disableExtensions
                0x0000000000456be0                ppMain::assembly
                0x0000000000456c60                ppMain::SwitchParser
 .bss           0x0000000000456d20       0x20 C:\orangec\src\..\src\lib\mingw64/libocpplib.a(Errors.o)
                0x0000000000456d20                Errors::warningsAsErrors
                0x0000000000456d21                Errors::showTrivialWarnings
                0x0000000000456d28                Errors::include
                0x0000000000456d30                Errors::warningCount
                0x0000000000456d34                Errors::errorCount
 .bss           0x0000000000456d40       0x10 C:\orangec\src\..\src\lib\mingw64/libocpplib.a(MakeStubs.o)
 .bss           0x0000000000456d50        0x0 C:\orangec\src\..\src\lib\mingw64/libocpplib.a(PipeArbitrator.o)
 .bss           0x0000000000456d50        0x0 C:\orangec\src\..\src\lib\mingw64/libocpplib.a(ppCtx.o)
 *fill*         0x0000000000456d50       0x10 
 .bss           0x0000000000456d60       0x40 C:\orangec\src\..\src\lib\mingw64/libocpplib.a(ppDefine.o)
                0x0000000000456d60                ppDefine::defTokens[abi:cxx11]
 .bss           0x0000000000456da0       0x60 C:\orangec\src\..\src\lib\mingw64/libocpplib.a(ppExpr.o)
                0x0000000000456da0                ppExpr::include
                0x0000000000456da8                ppExpr::expressionHandler[abi:cxx11]
                0x0000000000456dc0                ppExpr::hash[abi:cxx11]
 .bss           0x0000000000456e00       0x60 C:\orangec\src\..\src\lib\mingw64/libocpplib.a(ppInclude.o)
                0x0000000000456e00                ppInclude::sysSrchPath[abi:cxx11]
                0x0000000000456e20                ppInclude::srchPath[abi:cxx11]
                0x0000000000456e40                ppInclude::system
 .bss           0x0000000000456e60        0x0 C:\orangec\src\..\src\lib\mingw64/libocpplib.a(ppMacro.o)
 .bss           0x0000000000456e60       0xa0 C:\orangec\src\..\src\lib\mingw64/libocpplib.a(ppPragma.o)
                0x0000000000456e60                ppPragma::hash[abi:cxx11]
                0x0000000000456e98                Warning::instance
                0x0000000000456ea0                Once::instance
                0x0000000000456ea8                Startups::instance
                0x0000000000456eb0                Aliases::instance
                0x0000000000456eb8                Libraries::instance
                0x0000000000456ec0                FPContract::instance
                0x0000000000456ec8                CXLimitedRange::instance
                0x0000000000456ed0                FenvAccess::instance
                0x0000000000456ed8                Packing::instance
 .bss           0x0000000000456f00       0x10 C:\orangec\src\..\src\lib\mingw64/libocpplib.a(PreProcessor.o)
 .bss           0x0000000000456f10        0x0 C:\orangec\src\..\src\lib\mingw64/libocpplib.a(SymbolTable.o)
 .bss           0x0000000000456f10       0x10 C:\orangec\src\..\src\lib\mingw64/libocpplib.a(Token.o)
                0x0000000000456f10                NumericToken::c99
                0x0000000000456f11                NumericToken::ansi
                0x0000000000456f12                CharacterToken::unsignedchar
 .bss           0x0000000000456f20       0xe0 C:\orangec\src\..\src\lib\mingw64/libocpplib.a(Floating.o)
                0x0000000000456f20                FPF::bigEndian
                0x0000000000456f21                FPF::initted
                0x0000000000456f40                FPF::tensTab
 .bss           0x0000000000457000       0x40 C:\orangec\src\..\src\lib\mingw64/libocpplib.a(InputFile.o)
                0x0000000000457000                InputFile::fileNameCache[abi:cxx11]
 .bss           0x0000000000457040        0x0 C:\orangec\src\..\src\lib\mingw64/libocpplib.a(ppCond.o)
 .bss           0x0000000000457040        0x0 C:\orangec\src\..\src\lib\mingw64/libocpplib.a(ppError.o)
 .bss           0x0000000000457040        0x0 C:\orangec\src\..\src\lib\mingw64/libocpplib.a(ppFile.o)
 .bss           0x0000000000457040        0x0 C:\orangec\src\..\src\lib\mingw64/libutil.a(CmdFiles.o)
 .bss           0x0000000000457040       0x10 C:\orangec\src\..\src\lib\mingw64/libutil.a(CmdSwitch.o)
 .bss           0x0000000000457050        0x0 C:\orangec\src\..\src\lib\mingw64/libutil.a(crc.o)
 .bss           0x0000000000457050        0x0 C:\orangec\src\..\src\lib\mingw64/libutil.a(NamedPipe.o)
 .bss           0x0000000000457050        0x0 C:\orangec\src\..\src\lib\mingw64/libutil.a(UTF8.o)
 .bss           0x0000000000457050        0x0 C:\orangec\src\..\src\lib\mingw64/libutil.a(UTF8Table.o)
 .bss           0x0000000000457050        0x0 C:\orangec\src\..\src\lib\mingw64/libutil.a(UTF8Upper.o)
 *fill*         0x0000000000457050       0x10 
 .bss           0x0000000000457060      0x380 C:\orangec\src\..\src\lib\mingw64/libutil.a(Utils.o)
                0x0000000000457060                Utils::cleanup
 .bss           0x00000000004573e0        0x0 C:/mingw64/w64/bin/../lib/gcc/x86_64-w64-mingw32/8.1.0/../../../../x86_64-w64-mingw32/lib/../lib/libkernel32.a(dqifs01527.o)
 .bss           0x00000000004573e0        0x0 C:/mingw64/w64/bin/../lib/gcc/x86_64-w64-mingw32/8.1.0/../../../../x86_64-w64-mingw32/lib/../lib/libkernel32.a(dqifs01510.o)
 .bss           0x00000000004573e0        0x0 C:/mingw64/w64/bin/../lib/gcc/x86_64-w64-mingw32/8.1.0/../../../../x86_64-w64-mingw32/lib/../lib/libkernel32.a(dqifs01360.o)
 .bss           0x00000000004573e0        0x0 C:/mingw64/w64/bin/../lib/gcc/x86_64-w64-mingw32/8.1.0/../../../../x86_64-w64-mingw32/lib/../lib/libkernel32.a(dqifs01346.o)
 .bss           0x00000000004573e0        0x0 C:/mingw64/w64/bin/../lib/gcc/x86_64-w64-mingw32/8.1.0/../../../../x86_64-w64-mingw32/lib/../lib/libkernel32.a(dqifs01128.o)
 .bss           0x00000000004573e0        0x0 C:/mingw64/w64/bin/../lib/gcc/x86_64-w64-mingw32/8.1.0/../../../../x86_64-w64-mingw32/lib/../lib/libkernel32.a(dqifs01051.o)
 .bss           0x00000000004573e0        0x0 C:/mingw64/w64/bin/../lib/gcc/x86_64-w64-mingw32/8.1.0/../../../../x86_64-w64-mingw32/lib/../lib/libkernel32.a(dqifs00774.o)
 .bss           0x00000000004573e0        0x0 C:/mingw64/w64/bin/../lib/gcc/x86_64-w64-mingw32/8.1.0/../../../../x86_64-w64-mingw32/lib/../lib/libkernel32.a(dqifs00724.o)
 .bss           0x00000000004573e0        0x0 C:/mingw64/w64/bin/../lib/gcc/x86_64-w64-mingw32/8.1.0/../../../../x86_64-w64-mingw32/lib/../lib/libkernel32.a(dqifs00721.o)
 .bss           0x00000000004573e0        0x0 C:/mingw64/w64/bin/../lib/gcc/x86_64-w64-mingw32/8.1.0/../../../../x86_64-w64-mingw32/lib/../lib/libkernel32.a(dqifs00628.o)
 .bss           0x00000000004573e0        0x0 C:/mingw64/w64/bin/../lib/gcc/x86_64-w64-mingw32/8.1.0/../../../../x86_64-w64-mingw32/lib/../lib/libkernel32.a(dqifs00609.o)
 .bss           0x00000000004573e0        0x0 C:/mingw64/w64/bin/../lib/gcc/x86_64-w64-mingw32/8.1.0/../../../../x86_64-w64-mingw32/lib/../lib/libkernel32.a(dqifs00578.o)
 .bss           0x00000000004573e0        0x0 C:/mingw64/w64/bin/../lib/gcc/x86_64-w64-mingw32/8.1.0/../../../../x86_64-w64-mingw32/lib/../lib/libkernel32.a(dqifs00528.o)
 .bss           0x00000000004573e0        0x0 C:/mingw64/w64/bin/../lib/gcc/x86_64-w64-mingw32/8.1.0/../../../../x86_64-w64-mingw32/lib/../lib/libkernel32.a(dqifs00514.o)
 .bss           0x00000000004573e0        0x0 C:/mingw64/w64/bin/../lib/gcc/x86_64-w64-mingw32/8.1.0/../../../../x86_64-w64-mingw32/lib/../lib/libkernel32.a(dqifs00191.o)
 .bss           0x00000000004573e0        0x0 C:/mingw64/w64/bin/../lib/gcc/x86_64-w64-mingw32/8.1.0/../../../../x86_64-w64-mingw32/lib/../lib/libkernel32.a(dqifh.o)
 .bss           0x00000000004573e0        0x0 C:/mingw64/w64/bin/../lib/gcc/x86_64-w64-mingw32/8.1.0/../../../../x86_64-w64-mingw32/lib/../lib/libkernel32.a(dqift.o)
 .bss           0x00000000004573e0       0x10 C:/mingw64/w64/bin/../lib/gcc/x86_64-w64-mingw32/8.1.0/../../../../x86_64-w64-mingw32/lib/../lib/libmingw32.a(lib64_libmingw32_a-gccmain.o)
 .bss           0x00000000004573f0        0x0 C:/mingw64/w64/bin/../lib/gcc/x86_64-w64-mingw32/8.1.0/../../../../x86_64-w64-mingw32/lib/../lib/libmingw32.a(lib64_libmingw32_a-natstart.o)
 .bss           0x00000000004573f0        0x0 C:/mingw64/w64/bin/../lib/gcc/x86_64-w64-mingw32/8.1.0/../../../../x86_64-w64-mingw32/lib/../lib/libmingw32.a(lib64_libmingw32_a-wildcard.o)
 .bss           0x00000000004573f0       0x10 C:/mingw64/w64/bin/../lib/gcc/x86_64-w64-mingw32/8.1.0/../../../../x86_64-w64-mingw32/lib/../lib/libmingw32.a(lib64_libmingw32_a-charmax.o)
                0x00000000004573f0                mingw_initcharmax
 .bss           0x0000000000457400        0x0 C:/mingw64/w64/bin/../lib/gcc/x86_64-w64-mingw32/8.1.0/../../../../x86_64-w64-mingw32/lib/../lib/libmingw32.a(lib64_libmingw32_a-dllargv.o)
 .bss           0x0000000000457400      0x580 C:/mingw64/w64/bin/../lib/gcc/x86_64-w64-mingw32/8.1.0/../../../../x86_64-w64-mingw32/lib/../lib/libmingw32.a(lib64_libmingw32_a-gs_support.o)
 .bss           0x0000000000457980       0x10 C:/mingw64/w64/bin/../lib/gcc/x86_64-w64-mingw32/8.1.0/../../../../x86_64-w64-mingw32/lib/../lib/libmingw32.a(lib64_libmingw32_a-_newmode.o)
                0x0000000000457980                _newmode
 .bss           0x0000000000457990       0x10 C:/mingw64/w64/bin/../lib/gcc/x86_64-w64-mingw32/8.1.0/../../../../x86_64-w64-mingw32/lib/../lib/libmingw32.a(lib64_libmingw32_a-tlssup.o)
                0x0000000000457990                mingw_initltssuo_force
                0x0000000000457994                mingw_initltsdyn_force
                0x0000000000457998                mingw_initltsdrot_force
                0x000000000045799c                _tls_index
 .bss           0x00000000004579a0        0x0 C:/mingw64/w64/bin/../lib/gcc/x86_64-w64-mingw32/8.1.0/../../../../x86_64-w64-mingw32/lib/../lib/libmingw32.a(lib64_libmingw32_a-cinitexe.o)
 .bss           0x00000000004579a0       0x10 C:/mingw64/w64/bin/../lib/gcc/x86_64-w64-mingw32/8.1.0/../../../../x86_64-w64-mingw32/lib/../lib/libmingw32.a(lib64_libmingw32_a-merr.o)
 .bss           0x00000000004579b0        0x0 C:/mingw64/w64/bin/../lib/gcc/x86_64-w64-mingw32/8.1.0/../../../../x86_64-w64-mingw32/lib/../lib/libmingw32.a(lib64_libmingw32_a-CRT_fp10.o)
 .bss           0x00000000004579b0       0x10 C:/mingw64/w64/bin/../lib/gcc/x86_64-w64-mingw32/8.1.0/../../../../x86_64-w64-mingw32/lib/../lib/libmingw32.a(lib64_libmingw32_a-mingw_helpers.o)
                0x00000000004579b0                mingw_app_type
 .bss           0x00000000004579c0       0x10 C:/mingw64/w64/bin/../lib/gcc/x86_64-w64-mingw32/8.1.0/../../../../x86_64-w64-mingw32/lib/../lib/libmingw32.a(lib64_libmingw32_a-pseudo-reloc.o)
 .bss           0x00000000004579d0       0x10 C:/mingw64/w64/bin/../lib/gcc/x86_64-w64-mingw32/8.1.0/../../../../x86_64-w64-mingw32/lib/../lib/libmingw32.a(lib64_libmingw32_a-xtxtmode.o)
                0x00000000004579d0                _fmode
 .bss           0x00000000004579e0      0x2a0 C:/mingw64/w64/bin/../lib/gcc/x86_64-w64-mingw32/8.1.0/../../../../x86_64-w64-mingw32/lib/../lib/libmingw32.a(lib64_libmingw32_a-crt_handler.o)
                0x00000000004579e0                __mingw_oldexcpt_handler
 .bss           0x0000000000457c80       0x60 C:/mingw64/w64/bin/../lib/gcc/x86_64-w64-mingw32/8.1.0/../../../../x86_64-w64-mingw32/lib/../lib/libmingw32.a(lib64_libmingw32_a-tlsthrd.o)
 .bss           0x0000000000457ce0        0x0 C:/mingw64/w64/bin/../lib/gcc/x86_64-w64-mingw32/8.1.0/../../../../x86_64-w64-mingw32/lib/../lib/libmingw32.a(lib64_libmingw32_a-tlsmcrt.o)
 .bss           0x0000000000457ce0       0x10 C:/mingw64/w64/bin/../lib/gcc/x86_64-w64-mingw32/8.1.0/../../../../x86_64-w64-mingw32/lib/../lib/libmingw32.a(lib64_libmingw32_a-pseudo-reloc-list.o)
 .bss           0x0000000000457cf0        0x0 C:/mingw64/w64/bin/../lib/gcc/x86_64-w64-mingw32/8.1.0/../../../../x86_64-w64-mingw32/lib/../lib/libmingw32.a(lib64_libmingw32_a-pesect.o)
 .bss           0x0000000000457cf0        0x0 C:/mingw64/w64/bin/../lib/gcc/x86_64-w64-mingw32/8.1.0/libgcc.a(_chkstk_ms.o)
 .bss           0x0000000000457cf0        0x0 C:/mingw64/w64/bin/../lib/gcc/x86_64-w64-mingw32/8.1.0/libgcc.a(_ctors.o)
 .bss           0x0000000000457cf0        0x0 C:/mingw64/w64/bin/../lib/gcc/x86_64-w64-mingw32/8.1.0/libgcc_eh.a(unwind-seh.o)
 .bss           0x0000000000457cf0        0x0 C:/mingw64/w64/bin/../lib/gcc/x86_64-w64-mingw32/8.1.0/../../../../x86_64-w64-mingw32/lib/../lib/libmingwex.a(lib64_libmingwex_a-mingw_matherr.o)
 .bss           0x0000000000457cf0        0x0 C:/mingw64/w64/bin/../lib/gcc/x86_64-w64-mingw32/8.1.0/../../../../x86_64-w64-mingw32/lib/../lib/libmingwex.a(lib64_libmingwex_a-_stat.o)
 .bss           0x0000000000457cf0        0x0 C:/mingw64/w64/bin/../lib/gcc/x86_64-w64-mingw32/8.1.0/../../../../x86_64-w64-mingw32/lib/../lib/libmingwex.a(lib64_libmingwex_a-mingw_vfprintf.o)
 .bss           0x0000000000457cf0        0x0 C:/mingw64/w64/bin/../lib/gcc/x86_64-w64-mingw32/8.1.0/../../../../x86_64-w64-mingw32/lib/../lib/libmingwex.a(lib64_libmingwex_a-mingw_vsnprintf.o)
 .bss           0x0000000000457cf0        0x0 C:/mingw64/w64/bin/../lib/gcc/x86_64-w64-mingw32/8.1.0/../../../../x86_64-w64-mingw32/lib/../lib/libmingwex.a(lib64_libmingwex_a-mingw_vsprintf.o)
 .bss           0x0000000000457cf0        0x0 C:/mingw64/w64/bin/../lib/gcc/x86_64-w64-mingw32/8.1.0/../../../../x86_64-w64-mingw32/lib/../lib/libmingwex.a(lib64_libmingwex_a-mingw_pformat.o)
 .bss           0x0000000000457cf0        0x0 C:/mingw64/w64/bin/../lib/gcc/x86_64-w64-mingw32/8.1.0/../../../../x86_64-w64-mingw32/lib/../lib/libmingwex.a(lib64_libmingwex_a-dmisc.o)
 .bss           0x0000000000457cf0        0x0 C:/mingw64/w64/bin/../lib/gcc/x86_64-w64-mingw32/8.1.0/../../../../x86_64-w64-mingw32/lib/../lib/libmingwex.a(lib64_libmingwex_a-gdtoa.o)
 .bss           0x0000000000457cf0        0x0 C:/mingw64/w64/bin/../lib/gcc/x86_64-w64-mingw32/8.1.0/../../../../x86_64-w64-mingw32/lib/../lib/libmingwex.a(lib64_libmingwex_a-gmisc.o)
 *fill*         0x0000000000457cf0       0x10 
 .bss           0x0000000000457d00      0x9e0 C:/mingw64/w64/bin/../lib/gcc/x86_64-w64-mingw32/8.1.0/../../../../x86_64-w64-mingw32/lib/../lib/libmingwex.a(lib64_libmingwex_a-misc.o)
 .bss           0x00000000004586e0       0x10 C:/mingw64/w64/bin/../lib/gcc/x86_64-w64-mingw32/8.1.0/../../../../x86_64-w64-mingw32/lib/../lib/libmingwex.a(lib64_libmingwex_a-mbrtowc.o)
 .bss           0x00000000004586f0        0x0 C:/mingw64/w64/bin/../lib/gcc/x86_64-w64-mingw32/8.1.0/../../../../x86_64-w64-mingw32/lib/../lib/libmingwex.a(lib64_libmingwex_a-strnlen.o)
 .bss           0x00000000004586f0        0x0 C:/mingw64/w64/bin/../lib/gcc/x86_64-w64-mingw32/8.1.0/../../../../x86_64-w64-mingw32/lib/../lib/libmingwex.a(lib64_libmingwex_a-wcrtomb.o)
 .bss           0x00000000004586f0        0x0 C:/mingw64/w64/bin/../lib/gcc/x86_64-w64-mingw32/8.1.0/../../../../x86_64-w64-mingw32/lib/../lib/libmingwex.a(lib64_libmingwex_a-wcsnlen.o)
 .bss           0x00000000004586f0        0x0 C:/mingw64/w64/bin/../lib/gcc/x86_64-w64-mingw32/8.1.0/../../../../x86_64-w64-mingw32/lib/../lib/libmsvcrt.a(duags01264.o)
 .bss           0x00000000004586f0        0x0 C:/mingw64/w64/bin/../lib/gcc/x86_64-w64-mingw32/8.1.0/../../../../x86_64-w64-mingw32/lib/../lib/libmsvcrt.a(duags01243.o)
 .bss           0x00000000004586f0        0x0 C:/mingw64/w64/bin/../lib/gcc/x86_64-w64-mingw32/8.1.0/../../../../x86_64-w64-mingw32/lib/../lib/libmsvcrt.a(duags01238.o)
 .bss           0x00000000004586f0        0x0 C:/mingw64/w64/bin/../lib/gcc/x86_64-w64-mingw32/8.1.0/../../../../x86_64-w64-mingw32/lib/../lib/libmsvcrt.a(duags01237.o)
 .bss           0x00000000004586f0        0x0 C:/mingw64/w64/bin/../lib/gcc/x86_64-w64-mingw32/8.1.0/../../../../x86_64-w64-mingw32/lib/../lib/libmsvcrt.a(duags01235.o)
 .bss           0x00000000004586f0        0x0 C:/mingw64/w64/bin/../lib/gcc/x86_64-w64-mingw32/8.1.0/../../../../x86_64-w64-mingw32/lib/../lib/libmsvcrt.a(duags01223.o)
 .bss           0x00000000004586f0        0x0 C:/mingw64/w64/bin/../lib/gcc/x86_64-w64-mingw32/8.1.0/../../../../x86_64-w64-mingw32/lib/../lib/libmsvcrt.a(duags01222.o)
 .bss           0x00000000004586f0        0x0 C:/mingw64/w64/bin/../lib/gcc/x86_64-w64-mingw32/8.1.0/../../../../x86_64-w64-mingw32/lib/../lib/libmsvcrt.a(duags01215.o)
 .bss           0x00000000004586f0        0x0 C:/mingw64/w64/bin/../lib/gcc/x86_64-w64-mingw32/8.1.0/../../../../x86_64-w64-mingw32/lib/../lib/libmsvcrt.a(duags01212.o)
 .bss           0x00000000004586f0        0x0 C:/mingw64/w64/bin/../lib/gcc/x86_64-w64-mingw32/8.1.0/../../../../x86_64-w64-mingw32/lib/../lib/libmsvcrt.a(duags01211.o)
 .bss           0x00000000004586f0        0x0 C:/mingw64/w64/bin/../lib/gcc/x86_64-w64-mingw32/8.1.0/../../../../x86_64-w64-mingw32/lib/../lib/libmsvcrt.a(duags01209.o)
 .bss           0x00000000004586f0        0x0 C:/mingw64/w64/bin/../lib/gcc/x86_64-w64-mingw32/8.1.0/../../../../x86_64-w64-mingw32/lib/../lib/libmsvcrt.a(duags01208.o)
 .bss           0x00000000004586f0        0x0 C:/mingw64/w64/bin/../lib/gcc/x86_64-w64-mingw32/8.1.0/../../../../x86_64-w64-mingw32/lib/../lib/libmsvcrt.a(duags01207.o)
 .bss           0x00000000004586f0        0x0 C:/mingw64/w64/bin/../lib/gcc/x86_64-w64-mingw32/8.1.0/../../../../x86_64-w64-mingw32/lib/../lib/libmsvcrt.a(duags01206.o)
 .bss           0x00000000004586f0        0x0 C:/mingw64/w64/bin/../lib/gcc/x86_64-w64-mingw32/8.1.0/../../../../x86_64-w64-mingw32/lib/../lib/libmsvcrt.a(duags01203.o)
 .bss           0x00000000004586f0        0x0 C:/mingw64/w64/bin/../lib/gcc/x86_64-w64-mingw32/8.1.0/../../../../x86_64-w64-mingw32/lib/../lib/libmsvcrt.a(duags01200.o)
 .bss           0x00000000004586f0        0x0 C:/mingw64/w64/bin/../lib/gcc/x86_64-w64-mingw32/8.1.0/../../../../x86_64-w64-mingw32/lib/../lib/libmsvcrt.a(duags01198.o)
 .bss           0x00000000004586f0        0x0 C:/mingw64/w64/bin/../lib/gcc/x86_64-w64-mingw32/8.1.0/../../../../x86_64-w64-mingw32/lib/../lib/libmsvcrt.a(duags01187.o)
 .bss           0x00000000004586f0        0x0 C:/mingw64/w64/bin/../lib/gcc/x86_64-w64-mingw32/8.1.0/../../../../x86_64-w64-mingw32/lib/../lib/libmsvcrt.a(duags01159.o)
 .bss           0x00000000004586f0        0x0 C:/mingw64/w64/bin/../lib/gcc/x86_64-w64-mingw32/8.1.0/../../../../x86_64-w64-mingw32/lib/../lib/libmsvcrt.a(duags01158.o)
 .bss           0x00000000004586f0        0x0 C:/mingw64/w64/bin/../lib/gcc/x86_64-w64-mingw32/8.1.0/../../../../x86_64-w64-mingw32/lib/../lib/libmsvcrt.a(duags01157.o)
 .bss           0x00000000004586f0        0x0 C:/mingw64/w64/bin/../lib/gcc/x86_64-w64-mingw32/8.1.0/../../../../x86_64-w64-mingw32/lib/../lib/libmsvcrt.a(duags01156.o)
 .bss           0x00000000004586f0        0x0 C:/mingw64/w64/bin/../lib/gcc/x86_64-w64-mingw32/8.1.0/../../../../x86_64-w64-mingw32/lib/../lib/libmsvcrt.a(duags01149.o)
 .bss           0x00000000004586f0        0x0 C:/mingw64/w64/bin/../lib/gcc/x86_64-w64-mingw32/8.1.0/../../../../x86_64-w64-mingw32/lib/../lib/libmsvcrt.a(duags01142.o)
 .bss           0x00000000004586f0        0x0 C:/mingw64/w64/bin/../lib/gcc/x86_64-w64-mingw32/8.1.0/../../../../x86_64-w64-mingw32/lib/../lib/libmsvcrt.a(duags01138.o)
 .bss           0x00000000004586f0        0x0 C:/mingw64/w64/bin/../lib/gcc/x86_64-w64-mingw32/8.1.0/../../../../x86_64-w64-mingw32/lib/../lib/libmsvcrt.a(duags01122.o)
 .bss           0x00000000004586f0        0x0 C:/mingw64/w64/bin/../lib/gcc/x86_64-w64-mingw32/8.1.0/../../../../x86_64-w64-mingw32/lib/../lib/libmsvcrt.a(duags01121.o)
 .bss           0x00000000004586f0        0x0 C:/mingw64/w64/bin/../lib/gcc/x86_64-w64-mingw32/8.1.0/../../../../x86_64-w64-mingw32/lib/../lib/libmsvcrt.a(duags01114.o)
 .bss           0x00000000004586f0        0x0 C:/mingw64/w64/bin/../lib/gcc/x86_64-w64-mingw32/8.1.0/../../../../x86_64-w64-mingw32/lib/../lib/libmsvcrt.a(duags01113.o)
 .bss           0x00000000004586f0        0x0 C:/mingw64/w64/bin/../lib/gcc/x86_64-w64-mingw32/8.1.0/../../../../x86_64-w64-mingw32/lib/../lib/libmsvcrt.a(duags01106.o)
 .bss           0x00000000004586f0        0x0 C:/mingw64/w64/bin/../lib/gcc/x86_64-w64-mingw32/8.1.0/../../../../x86_64-w64-mingw32/lib/../lib/libmsvcrt.a(duags01101.o)
 .bss           0x00000000004586f0        0x0 C:/mingw64/w64/bin/../lib/gcc/x86_64-w64-mingw32/8.1.0/../../../../x86_64-w64-mingw32/lib/../lib/libmsvcrt.a(duags01089.o)
 .bss           0x00000000004586f0        0x0 C:/mingw64/w64/bin/../lib/gcc/x86_64-w64-mingw32/8.1.0/../../../../x86_64-w64-mingw32/lib/../lib/libmsvcrt.a(duags01088.o)
 .bss           0x00000000004586f0        0x0 C:/mingw64/w64/bin/../lib/gcc/x86_64-w64-mingw32/8.1.0/../../../../x86_64-w64-mingw32/lib/../lib/libmsvcrt.a(duags01085.o)
 .bss           0x00000000004586f0        0x0 C:/mingw64/w64/bin/../lib/gcc/x86_64-w64-mingw32/8.1.0/../../../../x86_64-w64-mingw32/lib/../lib/libmsvcrt.a(duags01084.o)
 .bss           0x00000000004586f0        0x0 C:/mingw64/w64/bin/../lib/gcc/x86_64-w64-mingw32/8.1.0/../../../../x86_64-w64-mingw32/lib/../lib/libmsvcrt.a(duags01082.o)
 .bss           0x00000000004586f0        0x0 C:/mingw64/w64/bin/../lib/gcc/x86_64-w64-mingw32/8.1.0/../../../../x86_64-w64-mingw32/lib/../lib/libmsvcrt.a(duags01080.o)
 .bss           0x00000000004586f0        0x0 C:/mingw64/w64/bin/../lib/gcc/x86_64-w64-mingw32/8.1.0/../../../../x86_64-w64-mingw32/lib/../lib/libmsvcrt.a(duags01073.o)
 .bss           0x00000000004586f0        0x0 C:/mingw64/w64/bin/../lib/gcc/x86_64-w64-mingw32/8.1.0/../../../../x86_64-w64-mingw32/lib/../lib/libmsvcrt.a(duags01067.o)
 .bss           0x00000000004586f0        0x0 C:/mingw64/w64/bin/../lib/gcc/x86_64-w64-mingw32/8.1.0/../../../../x86_64-w64-mingw32/lib/../lib/libmsvcrt.a(duags01063.o)
 .bss           0x00000000004586f0        0x0 C:/mingw64/w64/bin/../lib/gcc/x86_64-w64-mingw32/8.1.0/../../../../x86_64-w64-mingw32/lib/../lib/libmsvcrt.a(duags01050.o)
 .bss           0x00000000004586f0        0x0 C:/mingw64/w64/bin/../lib/gcc/x86_64-w64-mingw32/8.1.0/../../../../x86_64-w64-mingw32/lib/../lib/libmsvcrt.a(duags01032.o)
 .bss           0x00000000004586f0        0x0 C:/mingw64/w64/bin/../lib/gcc/x86_64-w64-mingw32/8.1.0/../../../../x86_64-w64-mingw32/lib/../lib/libmsvcrt.a(duags00791.o)
 .bss           0x00000000004586f0        0x0 C:/mingw64/w64/bin/../lib/gcc/x86_64-w64-mingw32/8.1.0/../../../../x86_64-w64-mingw32/lib/../lib/libmsvcrt.a(duags00749.o)
 .bss           0x00000000004586f0        0x0 C:/mingw64/w64/bin/../lib/gcc/x86_64-w64-mingw32/8.1.0/../../../../x86_64-w64-mingw32/lib/../lib/libmsvcrt.a(duags00730.o)
 .bss           0x00000000004586f0        0x0 C:/mingw64/w64/bin/../lib/gcc/x86_64-w64-mingw32/8.1.0/../../../../x86_64-w64-mingw32/lib/../lib/libmsvcrt.a(duags00723.o)
 .bss           0x00000000004586f0        0x0 C:/mingw64/w64/bin/../lib/gcc/x86_64-w64-mingw32/8.1.0/../../../../x86_64-w64-mingw32/lib/../lib/libmsvcrt.a(duags00647.o)
 .bss           0x00000000004586f0        0x0 C:/mingw64/w64/bin/../lib/gcc/x86_64-w64-mingw32/8.1.0/../../../../x86_64-w64-mingw32/lib/../lib/libmsvcrt.a(duags00634.o)
 .bss           0x00000000004586f0        0x0 C:/mingw64/w64/bin/../lib/gcc/x86_64-w64-mingw32/8.1.0/../../../../x86_64-w64-mingw32/lib/../lib/libmsvcrt.a(duags00617.o)
 .bss           0x00000000004586f0        0x0 C:/mingw64/w64/bin/../lib/gcc/x86_64-w64-mingw32/8.1.0/../../../../x86_64-w64-mingw32/lib/../lib/libmsvcrt.a(duags00616.o)
 .bss           0x00000000004586f0        0x0 C:/mingw64/w64/bin/../lib/gcc/x86_64-w64-mingw32/8.1.0/../../../../x86_64-w64-mingw32/lib/../lib/libmsvcrt.a(duags00614.o)
 .bss           0x00000000004586f0        0x0 C:/mingw64/w64/bin/../lib/gcc/x86_64-w64-mingw32/8.1.0/../../../../x86_64-w64-mingw32/lib/../lib/libmsvcrt.a(duags00440.o)
 .bss           0x00000000004586f0        0x0 C:/mingw64/w64/bin/../lib/gcc/x86_64-w64-mingw32/8.1.0/../../../../x86_64-w64-mingw32/lib/../lib/libmsvcrt.a(duags00337.o)
 .bss           0x00000000004586f0        0x0 C:/mingw64/w64/bin/../lib/gcc/x86_64-w64-mingw32/8.1.0/../../../../x86_64-w64-mingw32/lib/../lib/libmsvcrt.a(duags00332.o)
 .bss           0x00000000004586f0        0x0 C:/mingw64/w64/bin/../lib/gcc/x86_64-w64-mingw32/8.1.0/../../../../x86_64-w64-mingw32/lib/../lib/libmsvcrt.a(duags00301.o)
 .bss           0x00000000004586f0        0x0 C:/mingw64/w64/bin/../lib/gcc/x86_64-w64-mingw32/8.1.0/../../../../x86_64-w64-mingw32/lib/../lib/libmsvcrt.a(duags00291.o)
 .bss           0x00000000004586f0        0x0 C:/mingw64/w64/bin/../lib/gcc/x86_64-w64-mingw32/8.1.0/../../../../x86_64-w64-mingw32/lib/../lib/libmsvcrt.a(duags00245.o)
 .bss           0x00000000004586f0        0x0 C:/mingw64/w64/bin/../lib/gcc/x86_64-w64-mingw32/8.1.0/../../../../x86_64-w64-mingw32/lib/../lib/libmsvcrt.a(duags00243.o)
 .bss           0x00000000004586f0        0x0 C:/mingw64/w64/bin/../lib/gcc/x86_64-w64-mingw32/8.1.0/../../../../x86_64-w64-mingw32/lib/../lib/libmsvcrt.a(duags00240.o)
 .bss           0x00000000004586f0        0x0 C:/mingw64/w64/bin/../lib/gcc/x86_64-w64-mingw32/8.1.0/../../../../x86_64-w64-mingw32/lib/../lib/libmsvcrt.a(duags00237.o)
 .bss           0x00000000004586f0        0x0 C:/mingw64/w64/bin/../lib/gcc/x86_64-w64-mingw32/8.1.0/../../../../x86_64-w64-mingw32/lib/../lib/libmsvcrt.a(duags00203.o)
 .bss           0x00000000004586f0        0x0 C:/mingw64/w64/bin/../lib/gcc/x86_64-w64-mingw32/8.1.0/../../../../x86_64-w64-mingw32/lib/../lib/libmsvcrt.a(duags00166.o)
 .bss           0x00000000004586f0        0x0 C:/mingw64/w64/bin/../lib/gcc/x86_64-w64-mingw32/8.1.0/../../../../x86_64-w64-mingw32/lib/../lib/libmsvcrt.a(duags00141.o)
 .bss           0x00000000004586f0        0x0 C:/mingw64/w64/bin/../lib/gcc/x86_64-w64-mingw32/8.1.0/../../../../x86_64-w64-mingw32/lib/../lib/libmsvcrt.a(duags00122.o)
 .bss           0x00000000004586f0        0x0 C:/mingw64/w64/bin/../lib/gcc/x86_64-w64-mingw32/8.1.0/../../../../x86_64-w64-mingw32/lib/../lib/libmsvcrt.a(duags00114.o)
 .bss           0x00000000004586f0        0x0 C:/mingw64/w64/bin/../lib/gcc/x86_64-w64-mingw32/8.1.0/../../../../x86_64-w64-mingw32/lib/../lib/libmsvcrt.a(duags00098.o)
 .bss           0x00000000004586f0        0x0 C:/mingw64/w64/bin/../lib/gcc/x86_64-w64-mingw32/8.1.0/../../../../x86_64-w64-mingw32/lib/../lib/libmsvcrt.a(duags00096.o)
 .bss           0x00000000004586f0        0x0 C:/mingw64/w64/bin/../lib/gcc/x86_64-w64-mingw32/8.1.0/../../../../x86_64-w64-mingw32/lib/../lib/libmsvcrt.a(duags00090.o)
 .bss           0x00000000004586f0        0x0 C:/mingw64/w64/bin/../lib/gcc/x86_64-w64-mingw32/8.1.0/../../../../x86_64-w64-mingw32/lib/../lib/libmsvcrt.a(duags00082.o)
 .bss           0x00000000004586f0        0x0 C:/mingw64/w64/bin/../lib/gcc/x86_64-w64-mingw32/8.1.0/../../../../x86_64-w64-mingw32/lib/../lib/libmsvcrt.a(duags00081.o)
 .bss           0x00000000004586f0        0x0 C:/mingw64/w64/bin/../lib/gcc/x86_64-w64-mingw32/8.1.0/../../../../x86_64-w64-mingw32/lib/../lib/libmsvcrt.a(duags00069.o)
 .bss           0x00000000004586f0        0x0 C:/mingw64/w64/bin/../lib/gcc/x86_64-w64-mingw32/8.1.0/../../../../x86_64-w64-mingw32/lib/../lib/libmsvcrt.a(duags00066.o)
 .bss           0x00000000004586f0        0x0 C:/mingw64/w64/bin/../lib/gcc/x86_64-w64-mingw32/8.1.0/../../../../x86_64-w64-mingw32/lib/../lib/libmsvcrt.a(duags00063.o)
 .bss           0x00000000004586f0        0x0 C:/mingw64/w64/bin/../lib/gcc/x86_64-w64-mingw32/8.1.0/../../../../x86_64-w64-mingw32/lib/../lib/libmsvcrt.a(lib64_libmsvcrt_os_a-acrt_iob_func.o)
 .bss           0x00000000004586f0       0x10 C:/mingw64/w64/bin/../lib/gcc/x86_64-w64-mingw32/8.1.0/../../../../x86_64-w64-mingw32/lib/../lib/libmsvcrt.a(lib64_libmsvcrt_os_a-invalid_parameter_handler.o)
 .bss           0x0000000000458700        0x0 C:/mingw64/w64/bin/../lib/gcc/x86_64-w64-mingw32/8.1.0/../../../../x86_64-w64-mingw32/lib/../lib/libmsvcrt.a(lib64_libmsvcrt_os_a-mingw_lock.o)
 .bss           0x0000000000458700        0x0 C:/mingw64/w64/bin/../lib/gcc/x86_64-w64-mingw32/8.1.0/../../../../x86_64-w64-mingw32/lib/../lib/libmsvcrt.a(lib64_libmsvcrt_os_a-__p___argv.o)
 .bss           0x0000000000458700        0x0 C:/mingw64/w64/bin/../lib/gcc/x86_64-w64-mingw32/8.1.0/../../../../x86_64-w64-mingw32/lib/../lib/libmsvcrt.a(lib64_libmsvcrt_os_a-__p__acmdln.o)
 .bss           0x0000000000458700        0x0 C:/mingw64/w64/bin/../lib/gcc/x86_64-w64-mingw32/8.1.0/../../../../x86_64-w64-mingw32/lib/../lib/libmsvcrt.a(lib64_libmsvcrt_os_a-__p__fmode.o)
 .bss           0x0000000000458700        0x0 C:/mingw64/w64/bin/../lib/gcc/x86_64-w64-mingw32/8.1.0/../../../../x86_64-w64-mingw32/lib/../lib/libmsvcrt.a(duagh.o)
 .bss           0x0000000000458700        0x0 C:/mingw64/w64/bin/../lib/gcc/x86_64-w64-mingw32/8.1.0/../../../../x86_64-w64-mingw32/lib/../lib/libmsvcrt.a(duags00821.o)
 .bss           0x0000000000458700        0x0 C:/mingw64/w64/bin/../lib/gcc/x86_64-w64-mingw32/8.1.0/../../../../x86_64-w64-mingw32/lib/../lib/libmsvcrt.a(duags00441.o)
 .bss           0x0000000000458700        0x0 C:/mingw64/w64/bin/../lib/gcc/x86_64-w64-mingw32/8.1.0/../../../../x86_64-w64-mingw32/lib/../lib/libmsvcrt.a(duags00115.o)
 .bss           0x0000000000458700        0x0 C:/mingw64/w64/bin/../lib/gcc/x86_64-w64-mingw32/8.1.0/../../../../x86_64-w64-mingw32/lib/../lib/libmsvcrt.a(duags00083.o)
 .bss           0x0000000000458700        0x0 C:/mingw64/w64/bin/../lib/gcc/x86_64-w64-mingw32/8.1.0/../../../../x86_64-w64-mingw32/lib/../lib/libmsvcrt.a(duags00070.o)
 .bss           0x0000000000458700        0x0 C:/mingw64/w64/bin/../lib/gcc/x86_64-w64-mingw32/8.1.0/../../../../x86_64-w64-mingw32/lib/../lib/libmsvcrt.a(duagt.o)
 .bss           0x0000000000458700        0x0 C:/mingw64/w64/bin/../lib/gcc/x86_64-w64-mingw32/8.1.0/../../../../x86_64-w64-mingw32/lib/../lib/libkernel32.a(dqifs01490.o)
 .bss           0x0000000000458700        0x0 C:/mingw64/w64/bin/../lib/gcc/x86_64-w64-mingw32/8.1.0/../../../../x86_64-w64-mingw32/lib/../lib/libkernel32.a(dqifs01445.o)
 .bss           0x0000000000458700        0x0 C:/mingw64/w64/bin/../lib/gcc/x86_64-w64-mingw32/8.1.0/../../../../x86_64-w64-mingw32/lib/../lib/libkernel32.a(dqifs01443.o)
 .bss           0x0000000000458700        0x0 C:/mingw64/w64/bin/../lib/gcc/x86_64-w64-mingw32/8.1.0/../../../../x86_64-w64-mingw32/lib/../lib/libkernel32.a(dqifs01409.o)
 .bss           0x0000000000458700        0x0 C:/mingw64/w64/bin/../lib/gcc/x86_64-w64-mingw32/8.1.0/../../../../x86_64-w64-mingw32/lib/../lib/libkernel32.a(dqifs01395.o)
 .bss           0x0000000000458700        0x0 C:/mingw64/w64/bin/../lib/gcc/x86_64-w64-mingw32/8.1.0/../../../../x86_64-w64-mingw32/lib/../lib/libkernel32.a(dqifs01375.o)
 .bss           0x0000000000458700        0x0 C:/mingw64/w64/bin/../lib/gcc/x86_64-w64-mingw32/8.1.0/../../../../x86_64-w64-mingw32/lib/../lib/libkernel32.a(dqifs01194.o)
 .bss           0x0000000000458700        0x0 C:/mingw64/w64/bin/../lib/gcc/x86_64-w64-mingw32/8.1.0/../../../../x86_64-w64-mingw32/lib/../lib/libkernel32.a(dqifs01193.o)
 .bss           0x0000000000458700        0x0 C:/mingw64/w64/bin/../lib/gcc/x86_64-w64-mingw32/8.1.0/../../../../x86_64-w64-mingw32/lib/../lib/libkernel32.a(dqifs01187.o)
 .bss           0x0000000000458700        0x0 C:/mingw64/w64/bin/../lib/gcc/x86_64-w64-mingw32/8.1.0/../../../../x86_64-w64-mingw32/lib/../lib/libkernel32.a(dqifs01180.o)
 .bss           0x0000000000458700        0x0 C:/mingw64/w64/bin/../lib/gcc/x86_64-w64-mingw32/8.1.0/../../../../x86_64-w64-mingw32/lib/../lib/libkernel32.a(dqifs01179.o)
 .bss           0x0000000000458700        0x0 C:/mingw64/w64/bin/../lib/gcc/x86_64-w64-mingw32/8.1.0/../../../../x86_64-w64-mingw32/lib/../lib/libkernel32.a(dqifs01112.o)
 .bss           0x0000000000458700        0x0 C:/mingw64/w64/bin/../lib/gcc/x86_64-w64-mingw32/8.1.0/../../../../x86_64-w64-mingw32/lib/../lib/libkernel32.a(dqifs01093.o)
 .bss           0x0000000000458700        0x0 C:/mingw64/w64/bin/../lib/gcc/x86_64-w64-mingw32/8.1.0/../../../../x86_64-w64-mingw32/lib/../lib/libkernel32.a(dqifs00999.o)
 .bss           0x0000000000458700        0x0 C:/mingw64/w64/bin/../lib/gcc/x86_64-w64-mingw32/8.1.0/../../../../x86_64-w64-mingw32/lib/../lib/libkernel32.a(dqifs00951.o)
 .bss           0x0000000000458700        0x0 C:/mingw64/w64/bin/../lib/gcc/x86_64-w64-mingw32/8.1.0/../../../../x86_64-w64-mingw32/lib/../lib/libkernel32.a(dqifs00889.o)
 .bss           0x0000000000458700        0x0 C:/mingw64/w64/bin/../lib/gcc/x86_64-w64-mingw32/8.1.0/../../../../x86_64-w64-mingw32/lib/../lib/libkernel32.a(dqifs00863.o)
 .bss           0x0000000000458700        0x0 C:/mingw64/w64/bin/../lib/gcc/x86_64-w64-mingw32/8.1.0/../../../../x86_64-w64-mingw32/lib/../lib/libkernel32.a(dqifs00746.o)
 .bss           0x0000000000458700        0x0 C:/mingw64/w64/bin/../lib/gcc/x86_64-w64-mingw32/8.1.0/../../../../x86_64-w64-mingw32/lib/../lib/libkernel32.a(dqifs00540.o)
 .bss           0x0000000000458700        0x0 C:/mingw64/w64/bin/../lib/gcc/x86_64-w64-mingw32/8.1.0/../../../../x86_64-w64-mingw32/lib/../lib/libkernel32.a(dqifs00536.o)
 .bss           0x0000000000458700        0x0 C:/mingw64/w64/bin/../lib/gcc/x86_64-w64-mingw32/8.1.0/../../../../x86_64-w64-mingw32/lib/../lib/libkernel32.a(dqifs00535.o)
 .bss           0x0000000000458700        0x0 C:/mingw64/w64/bin/../lib/gcc/x86_64-w64-mingw32/8.1.0/../../../../x86_64-w64-mingw32/lib/../lib/libkernel32.a(dqifs00304.o)
 .bss           0x0000000000458700        0x0 C:/mingw64/w64/bin/../lib/gcc/x86_64-w64-mingw32/8.1.0/../../../../x86_64-w64-mingw32/lib/../lib/libkernel32.a(dqifs00268.o)
 .bss           0x0000000000458700        0x0 C:/mingw64/w64/bin/../lib/gcc/x86_64-w64-mingw32/8.1.0/../../../../x86_64-w64-mingw32/lib/../lib/libmsvcrt.a(duags00253.o)
 .bss           0x0000000000458700        0x0 C:/mingw64/w64/bin/../lib/gcc/x86_64-w64-mingw32/8.1.0/crtend.o
 *(COMMON)
 COMMON         0x0000000000458700       0x10 C:/mingw64/w64/bin/../lib/gcc/x86_64-w64-mingw32/8.1.0/../../../../x86_64-w64-mingw32/lib/../lib/crt2.o
                0x0000000000458700                __mingw_winmain_lpCmdLine
                0x0000000000458708                __mingw_winmain_hInstance
 COMMON         0x0000000000458710       0x10 C:/mingw64/w64/bin/../lib/gcc/x86_64-w64-mingw32/8.1.0/../../../../x86_64-w64-mingw32/lib/../lib/libmingw32.a(lib64_libmingw32_a-natstart.o)
                0x0000000000458710                __native_startup_state
                0x0000000000458718                __native_startup_lock
 COMMON         0x0000000000458720        0x0 C:/mingw64/w64/bin/../lib/gcc/x86_64-w64-mingw32/8.1.0/libgcc.a(_ctors.o)
                0x0000000000458720                __bss_end__ = .

.edata
 *(.edata)

/DISCARD/
 *(.debug$S)
 *(.debug$T)
 *(.debug$F)
 *(.drectve)
 *(.note.GNU-stack)
 *(.gnu.lto_*)

.idata          0x0000000000459000     0x2a00
 SORT_BY_NAME(*)(.idata$2)
 .idata$2       0x0000000000459000       0x14 C:/mingw64/w64/bin/../lib/gcc/x86_64-w64-mingw32/8.1.0/../../../../x86_64-w64-mingw32/lib/../lib/libkernel32.a(dqifh.o)
                0x0000000000459000                _head_lib64_libkernel32_a
 .idata$2       0x0000000000459014       0x14 C:/mingw64/w64/bin/../lib/gcc/x86_64-w64-mingw32/8.1.0/../../../../x86_64-w64-mingw32/lib/../lib/libmsvcrt.a(duagh.o)
                0x0000000000459014                _head_lib64_libmsvcrt_os_a
 .idata$2       0x0000000000459028       0x14 C:/mingw64/w64/bin/../lib/gcc/x86_64-w64-mingw32/8.1.0/libstdc++.dll.a(d000000.o)
                0x0000000000459028                _head_libstdc___6_dll
 SORT_BY_NAME(*)(.idata$3)
                0x000000000045903c        0x4 LONG 0x0
                0x0000000000459040        0x4 LONG 0x0
                0x0000000000459044        0x4 LONG 0x0
                0x0000000000459048        0x4 LONG 0x0
                0x000000000045904c        0x4 LONG 0x0
 SORT_BY_NAME(*)(.idata$4)
 .idata$4       0x0000000000459050        0x0 C:/mingw64/w64/bin/../lib/gcc/x86_64-w64-mingw32/8.1.0/../../../../x86_64-w64-mingw32/lib/../lib/libkernel32.a(dqifh.o)
 .idata$4       0x0000000000459050        0x8 C:/mingw64/w64/bin/../lib/gcc/x86_64-w64-mingw32/8.1.0/../../../../x86_64-w64-mingw32/lib/../lib/libkernel32.a(dqifs00191.o)
 .idata$4       0x0000000000459058        0x8 C:/mingw64/w64/bin/../lib/gcc/x86_64-w64-mingw32/8.1.0/../../../../x86_64-w64-mingw32/lib/../lib/libkernel32.a(dqifs00268.o)
 .idata$4       0x0000000000459060        0x8 C:/mingw64/w64/bin/../lib/gcc/x86_64-w64-mingw32/8.1.0/../../../../x86_64-w64-mingw32/lib/../lib/libkernel32.a(dqifs00304.o)
 .idata$4       0x0000000000459068        0x8 C:/mingw64/w64/bin/../lib/gcc/x86_64-w64-mingw32/8.1.0/../../../../x86_64-w64-mingw32/lib/../lib/libkernel32.a(dqifs00514.o)
 .idata$4       0x0000000000459070        0x8 C:/mingw64/w64/bin/../lib/gcc/x86_64-w64-mingw32/8.1.0/../../../../x86_64-w64-mingw32/lib/../lib/libkernel32.a(dqifs00528.o)
 .idata$4       0x0000000000459078        0x8 C:/mingw64/w64/bin/../lib/gcc/x86_64-w64-mingw32/8.1.0/../../../../x86_64-w64-mingw32/lib/../lib/libkernel32.a(dqifs00535.o)
 .idata$4       0x0000000000459080        0x8 C:/mingw64/w64/bin/../lib/gcc/x86_64-w64-mingw32/8.1.0/../../../../x86_64-w64-mingw32/lib/../lib/libkernel32.a(dqifs00536.o)
 .idata$4       0x0000000000459088        0x8 C:/mingw64/w64/bin/../lib/gcc/x86_64-w64-mingw32/8.1.0/../../../../x86_64-w64-mingw32/lib/../lib/libkernel32.a(dqifs00540.o)
 .idata$4       0x0000000000459090        0x8 C:/mingw64/w64/bin/../lib/gcc/x86_64-w64-mingw32/8.1.0/../../../../x86_64-w64-mingw32/lib/../lib/libkernel32.a(dqifs00578.o)
 .idata$4       0x0000000000459098        0x8 C:/mingw64/w64/bin/../lib/gcc/x86_64-w64-mingw32/8.1.0/../../../../x86_64-w64-mingw32/lib/../lib/libkernel32.a(dqifs00609.o)
 .idata$4       0x00000000004590a0        0x8 C:/mingw64/w64/bin/../lib/gcc/x86_64-w64-mingw32/8.1.0/../../../../x86_64-w64-mingw32/lib/../lib/libkernel32.a(dqifs00628.o)
 .idata$4       0x00000000004590a8        0x8 C:/mingw64/w64/bin/../lib/gcc/x86_64-w64-mingw32/8.1.0/../../../../x86_64-w64-mingw32/lib/../lib/libkernel32.a(dqifs00721.o)
 .idata$4       0x00000000004590b0        0x8 C:/mingw64/w64/bin/../lib/gcc/x86_64-w64-mingw32/8.1.0/../../../../x86_64-w64-mingw32/lib/../lib/libkernel32.a(dqifs00724.o)
 .idata$4       0x00000000004590b8        0x8 C:/mingw64/w64/bin/../lib/gcc/x86_64-w64-mingw32/8.1.0/../../../../x86_64-w64-mingw32/lib/../lib/libkernel32.a(dqifs00746.o)
 .idata$4       0x00000000004590c0        0x8 C:/mingw64/w64/bin/../lib/gcc/x86_64-w64-mingw32/8.1.0/../../../../x86_64-w64-mingw32/lib/../lib/libkernel32.a(dqifs00774.o)
 .idata$4       0x00000000004590c8        0x8 C:/mingw64/w64/bin/../lib/gcc/x86_64-w64-mingw32/8.1.0/../../../../x86_64-w64-mingw32/lib/../lib/libkernel32.a(dqifs00863.o)
 .idata$4       0x00000000004590d0        0x8 C:/mingw64/w64/bin/../lib/gcc/x86_64-w64-mingw32/8.1.0/../../../../x86_64-w64-mingw32/lib/../lib/libkernel32.a(dqifs00889.o)
 .idata$4       0x00000000004590d8        0x8 C:/mingw64/w64/bin/../lib/gcc/x86_64-w64-mingw32/8.1.0/../../../../x86_64-w64-mingw32/lib/../lib/libkernel32.a(dqifs00951.o)
 .idata$4       0x00000000004590e0        0x8 C:/mingw64/w64/bin/../lib/gcc/x86_64-w64-mingw32/8.1.0/../../../../x86_64-w64-mingw32/lib/../lib/libkernel32.a(dqifs00999.o)
 .idata$4       0x00000000004590e8        0x8 C:/mingw64/w64/bin/../lib/gcc/x86_64-w64-mingw32/8.1.0/../../../../x86_64-w64-mingw32/lib/../lib/libkernel32.a(dqifs01051.o)
 .idata$4       0x00000000004590f0        0x8 C:/mingw64/w64/bin/../lib/gcc/x86_64-w64-mingw32/8.1.0/../../../../x86_64-w64-mingw32/lib/../lib/libkernel32.a(dqifs01093.o)
 .idata$4       0x00000000004590f8        0x8 C:/mingw64/w64/bin/../lib/gcc/x86_64-w64-mingw32/8.1.0/../../../../x86_64-w64-mingw32/lib/../lib/libkernel32.a(dqifs01112.o)
 .idata$4       0x0000000000459100        0x8 C:/mingw64/w64/bin/../lib/gcc/x86_64-w64-mingw32/8.1.0/../../../../x86_64-w64-mingw32/lib/../lib/libkernel32.a(dqifs01128.o)
 .idata$4       0x0000000000459108        0x8 C:/mingw64/w64/bin/../lib/gcc/x86_64-w64-mingw32/8.1.0/../../../../x86_64-w64-mingw32/lib/../lib/libkernel32.a(dqifs01179.o)
 .idata$4       0x0000000000459110        0x8 C:/mingw64/w64/bin/../lib/gcc/x86_64-w64-mingw32/8.1.0/../../../../x86_64-w64-mingw32/lib/../lib/libkernel32.a(dqifs01180.o)
 .idata$4       0x0000000000459118        0x8 C:/mingw64/w64/bin/../lib/gcc/x86_64-w64-mingw32/8.1.0/../../../../x86_64-w64-mingw32/lib/../lib/libkernel32.a(dqifs01187.o)
 .idata$4       0x0000000000459120        0x8 C:/mingw64/w64/bin/../lib/gcc/x86_64-w64-mingw32/8.1.0/../../../../x86_64-w64-mingw32/lib/../lib/libkernel32.a(dqifs01193.o)
 .idata$4       0x0000000000459128        0x8 C:/mingw64/w64/bin/../lib/gcc/x86_64-w64-mingw32/8.1.0/../../../../x86_64-w64-mingw32/lib/../lib/libkernel32.a(dqifs01194.o)
 .idata$4       0x0000000000459130        0x8 C:/mingw64/w64/bin/../lib/gcc/x86_64-w64-mingw32/8.1.0/../../../../x86_64-w64-mingw32/lib/../lib/libkernel32.a(dqifs01346.o)
 .idata$4       0x0000000000459138        0x8 C:/mingw64/w64/bin/../lib/gcc/x86_64-w64-mingw32/8.1.0/../../../../x86_64-w64-mingw32/lib/../lib/libkernel32.a(dqifs01360.o)
 .idata$4       0x0000000000459140        0x8 C:/mingw64/w64/bin/../lib/gcc/x86_64-w64-mingw32/8.1.0/../../../../x86_64-w64-mingw32/lib/../lib/libkernel32.a(dqifs01375.o)
 .idata$4       0x0000000000459148        0x8 C:/mingw64/w64/bin/../lib/gcc/x86_64-w64-mingw32/8.1.0/../../../../x86_64-w64-mingw32/lib/../lib/libkernel32.a(dqifs01395.o)
 .idata$4       0x0000000000459150        0x8 C:/mingw64/w64/bin/../lib/gcc/x86_64-w64-mingw32/8.1.0/../../../../x86_64-w64-mingw32/lib/../lib/libkernel32.a(dqifs01409.o)
 .idata$4       0x0000000000459158        0x8 C:/mingw64/w64/bin/../lib/gcc/x86_64-w64-mingw32/8.1.0/../../../../x86_64-w64-mingw32/lib/../lib/libkernel32.a(dqifs01443.o)
 .idata$4       0x0000000000459160        0x8 C:/mingw64/w64/bin/../lib/gcc/x86_64-w64-mingw32/8.1.0/../../../../x86_64-w64-mingw32/lib/../lib/libkernel32.a(dqifs01445.o)
 .idata$4       0x0000000000459168        0x8 C:/mingw64/w64/bin/../lib/gcc/x86_64-w64-mingw32/8.1.0/../../../../x86_64-w64-mingw32/lib/../lib/libkernel32.a(dqifs01490.o)
 .idata$4       0x0000000000459170        0x8 C:/mingw64/w64/bin/../lib/gcc/x86_64-w64-mingw32/8.1.0/../../../../x86_64-w64-mingw32/lib/../lib/libkernel32.a(dqifs01510.o)
 .idata$4       0x0000000000459178        0x8 C:/mingw64/w64/bin/../lib/gcc/x86_64-w64-mingw32/8.1.0/../../../../x86_64-w64-mingw32/lib/../lib/libkernel32.a(dqifs01527.o)
 .idata$4       0x0000000000459180        0x8 C:/mingw64/w64/bin/../lib/gcc/x86_64-w64-mingw32/8.1.0/../../../../x86_64-w64-mingw32/lib/../lib/libkernel32.a(dqift.o)
 .idata$4       0x0000000000459188        0x0 C:/mingw64/w64/bin/../lib/gcc/x86_64-w64-mingw32/8.1.0/../../../../x86_64-w64-mingw32/lib/../lib/libmsvcrt.a(duagh.o)
 .idata$4       0x0000000000459188        0x8 C:/mingw64/w64/bin/../lib/gcc/x86_64-w64-mingw32/8.1.0/../../../../x86_64-w64-mingw32/lib/../lib/libmsvcrt.a(duags00063.o)
 .idata$4       0x0000000000459190        0x8 C:/mingw64/w64/bin/../lib/gcc/x86_64-w64-mingw32/8.1.0/../../../../x86_64-w64-mingw32/lib/../lib/libmsvcrt.a(duags00066.o)
 .idata$4       0x0000000000459198        0x8 C:/mingw64/w64/bin/../lib/gcc/x86_64-w64-mingw32/8.1.0/../../../../x86_64-w64-mingw32/lib/../lib/libmsvcrt.a(duags00069.o)
 .idata$4       0x00000000004591a0        0x8 C:/mingw64/w64/bin/../lib/gcc/x86_64-w64-mingw32/8.1.0/../../../../x86_64-w64-mingw32/lib/../lib/libmsvcrt.a(duags00070.o)
 .idata$4       0x00000000004591a8        0x8 C:/mingw64/w64/bin/../lib/gcc/x86_64-w64-mingw32/8.1.0/../../../../x86_64-w64-mingw32/lib/../lib/libmsvcrt.a(duags00081.o)
 .idata$4       0x00000000004591b0        0x8 C:/mingw64/w64/bin/../lib/gcc/x86_64-w64-mingw32/8.1.0/../../../../x86_64-w64-mingw32/lib/../lib/libmsvcrt.a(duags00082.o)
 .idata$4       0x00000000004591b8        0x8 C:/mingw64/w64/bin/../lib/gcc/x86_64-w64-mingw32/8.1.0/../../../../x86_64-w64-mingw32/lib/../lib/libmsvcrt.a(duags00083.o)
 .idata$4       0x00000000004591c0        0x8 C:/mingw64/w64/bin/../lib/gcc/x86_64-w64-mingw32/8.1.0/../../../../x86_64-w64-mingw32/lib/../lib/libmsvcrt.a(duags00090.o)
 .idata$4       0x00000000004591c8        0x8 C:/mingw64/w64/bin/../lib/gcc/x86_64-w64-mingw32/8.1.0/../../../../x86_64-w64-mingw32/lib/../lib/libmsvcrt.a(duags00096.o)
 .idata$4       0x00000000004591d0        0x8 C:/mingw64/w64/bin/../lib/gcc/x86_64-w64-mingw32/8.1.0/../../../../x86_64-w64-mingw32/lib/../lib/libmsvcrt.a(duags00098.o)
 .idata$4       0x00000000004591d8        0x8 C:/mingw64/w64/bin/../lib/gcc/x86_64-w64-mingw32/8.1.0/../../../../x86_64-w64-mingw32/lib/../lib/libmsvcrt.a(duags00114.o)
 .idata$4       0x00000000004591e0        0x8 C:/mingw64/w64/bin/../lib/gcc/x86_64-w64-mingw32/8.1.0/../../../../x86_64-w64-mingw32/lib/../lib/libmsvcrt.a(duags00115.o)
 .idata$4       0x00000000004591e8        0x8 C:/mingw64/w64/bin/../lib/gcc/x86_64-w64-mingw32/8.1.0/../../../../x86_64-w64-mingw32/lib/../lib/libmsvcrt.a(duags00122.o)
 .idata$4       0x00000000004591f0        0x8 C:/mingw64/w64/bin/../lib/gcc/x86_64-w64-mingw32/8.1.0/../../../../x86_64-w64-mingw32/lib/../lib/libmsvcrt.a(duags00141.o)
 .idata$4       0x00000000004591f8        0x8 C:/mingw64/w64/bin/../lib/gcc/x86_64-w64-mingw32/8.1.0/../../../../x86_64-w64-mingw32/lib/../lib/libmsvcrt.a(duags00166.o)
 .idata$4       0x0000000000459200        0x8 C:/mingw64/w64/bin/../lib/gcc/x86_64-w64-mingw32/8.1.0/../../../../x86_64-w64-mingw32/lib/../lib/libmsvcrt.a(duags00203.o)
 .idata$4       0x0000000000459208        0x8 C:/mingw64/w64/bin/../lib/gcc/x86_64-w64-mingw32/8.1.0/../../../../x86_64-w64-mingw32/lib/../lib/libmsvcrt.a(duags00237.o)
 .idata$4       0x0000000000459210        0x8 C:/mingw64/w64/bin/../lib/gcc/x86_64-w64-mingw32/8.1.0/../../../../x86_64-w64-mingw32/lib/../lib/libmsvcrt.a(duags00240.o)
 .idata$4       0x0000000000459218        0x8 C:/mingw64/w64/bin/../lib/gcc/x86_64-w64-mingw32/8.1.0/../../../../x86_64-w64-mingw32/lib/../lib/libmsvcrt.a(duags00243.o)
 .idata$4       0x0000000000459220        0x8 C:/mingw64/w64/bin/../lib/gcc/x86_64-w64-mingw32/8.1.0/../../../../x86_64-w64-mingw32/lib/../lib/libmsvcrt.a(duags00245.o)
 .idata$4       0x0000000000459228        0x8 C:/mingw64/w64/bin/../lib/gcc/x86_64-w64-mingw32/8.1.0/../../../../x86_64-w64-mingw32/lib/../lib/libmsvcrt.a(duags00253.o)
 .idata$4       0x0000000000459230        0x8 C:/mingw64/w64/bin/../lib/gcc/x86_64-w64-mingw32/8.1.0/../../../../x86_64-w64-mingw32/lib/../lib/libmsvcrt.a(duags00291.o)
 .idata$4       0x0000000000459238        0x8 C:/mingw64/w64/bin/../lib/gcc/x86_64-w64-mingw32/8.1.0/../../../../x86_64-w64-mingw32/lib/../lib/libmsvcrt.a(duags00301.o)
 .idata$4       0x0000000000459240        0x8 C:/mingw64/w64/bin/../lib/gcc/x86_64-w64-mingw32/8.1.0/../../../../x86_64-w64-mingw32/lib/../lib/libmsvcrt.a(duags00332.o)
 .idata$4       0x0000000000459248        0x8 C:/mingw64/w64/bin/../lib/gcc/x86_64-w64-mingw32/8.1.0/../../../../x86_64-w64-mingw32/lib/../lib/libmsvcrt.a(duags00337.o)
 .idata$4       0x0000000000459250        0x8 C:/mingw64/w64/bin/../lib/gcc/x86_64-w64-mingw32/8.1.0/../../../../x86_64-w64-mingw32/lib/../lib/libmsvcrt.a(duags00440.o)
 .idata$4       0x0000000000459258        0x8 C:/mingw64/w64/bin/../lib/gcc/x86_64-w64-mingw32/8.1.0/../../../../x86_64-w64-mingw32/lib/../lib/libmsvcrt.a(duags00441.o)
 .idata$4       0x0000000000459260        0x8 C:/mingw64/w64/bin/../lib/gcc/x86_64-w64-mingw32/8.1.0/../../../../x86_64-w64-mingw32/lib/../lib/libmsvcrt.a(duags00614.o)
 .idata$4       0x0000000000459268        0x8 C:/mingw64/w64/bin/../lib/gcc/x86_64-w64-mingw32/8.1.0/../../../../x86_64-w64-mingw32/lib/../lib/libmsvcrt.a(duags00616.o)
 .idata$4       0x0000000000459270        0x8 C:/mingw64/w64/bin/../lib/gcc/x86_64-w64-mingw32/8.1.0/../../../../x86_64-w64-mingw32/lib/../lib/libmsvcrt.a(duags00617.o)
 .idata$4       0x0000000000459278        0x8 C:/mingw64/w64/bin/../lib/gcc/x86_64-w64-mingw32/8.1.0/../../../../x86_64-w64-mingw32/lib/../lib/libmsvcrt.a(duags00634.o)
 .idata$4       0x0000000000459280        0x8 C:/mingw64/w64/bin/../lib/gcc/x86_64-w64-mingw32/8.1.0/../../../../x86_64-w64-mingw32/lib/../lib/libmsvcrt.a(duags00647.o)
 .idata$4       0x0000000000459288        0x8 C:/mingw64/w64/bin/../lib/gcc/x86_64-w64-mingw32/8.1.0/../../../../x86_64-w64-mingw32/lib/../lib/libmsvcrt.a(duags00723.o)
 .idata$4       0x0000000000459290        0x8 C:/mingw64/w64/bin/../lib/gcc/x86_64-w64-mingw32/8.1.0/../../../../x86_64-w64-mingw32/lib/../lib/libmsvcrt.a(duags00730.o)
 .idata$4       0x0000000000459298        0x8 C:/mingw64/w64/bin/../lib/gcc/x86_64-w64-mingw32/8.1.0/../../../../x86_64-w64-mingw32/lib/../lib/libmsvcrt.a(duags00749.o)
 .idata$4       0x00000000004592a0        0x8 C:/mingw64/w64/bin/../lib/gcc/x86_64-w64-mingw32/8.1.0/../../../../x86_64-w64-mingw32/lib/../lib/libmsvcrt.a(duags00791.o)
 .idata$4       0x00000000004592a8        0x8 C:/mingw64/w64/bin/../lib/gcc/x86_64-w64-mingw32/8.1.0/../../../../x86_64-w64-mingw32/lib/../lib/libmsvcrt.a(duags00821.o)
 .idata$4       0x00000000004592b0        0x8 C:/mingw64/w64/bin/../lib/gcc/x86_64-w64-mingw32/8.1.0/../../../../x86_64-w64-mingw32/lib/../lib/libmsvcrt.a(duags01032.o)
 .idata$4       0x00000000004592b8        0x8 C:/mingw64/w64/bin/../lib/gcc/x86_64-w64-mingw32/8.1.0/../../../../x86_64-w64-mingw32/lib/../lib/libmsvcrt.a(duags01050.o)
 .idata$4       0x00000000004592c0        0x8 C:/mingw64/w64/bin/../lib/gcc/x86_64-w64-mingw32/8.1.0/../../../../x86_64-w64-mingw32/lib/../lib/libmsvcrt.a(duags01063.o)
 .idata$4       0x00000000004592c8        0x8 C:/mingw64/w64/bin/../lib/gcc/x86_64-w64-mingw32/8.1.0/../../../../x86_64-w64-mingw32/lib/../lib/libmsvcrt.a(duags01067.o)
 .idata$4       0x00000000004592d0        0x8 C:/mingw64/w64/bin/../lib/gcc/x86_64-w64-mingw32/8.1.0/../../../../x86_64-w64-mingw32/lib/../lib/libmsvcrt.a(duags01073.o)
 .idata$4       0x00000000004592d8        0x8 C:/mingw64/w64/bin/../lib/gcc/x86_64-w64-mingw32/8.1.0/../../../../x86_64-w64-mingw32/lib/../lib/libmsvcrt.a(duags01080.o)
 .idata$4       0x00000000004592e0        0x8 C:/mingw64/w64/bin/../lib/gcc/x86_64-w64-mingw32/8.1.0/../../../../x86_64-w64-mingw32/lib/../lib/libmsvcrt.a(duags01082.o)
 .idata$4       0x00000000004592e8        0x8 C:/mingw64/w64/bin/../lib/gcc/x86_64-w64-mingw32/8.1.0/../../../../x86_64-w64-mingw32/lib/../lib/libmsvcrt.a(duags01084.o)
 .idata$4       0x00000000004592f0        0x8 C:/mingw64/w64/bin/../lib/gcc/x86_64-w64-mingw32/8.1.0/../../../../x86_64-w64-mingw32/lib/../lib/libmsvcrt.a(duags01085.o)
 .idata$4       0x00000000004592f8        0x8 C:/mingw64/w64/bin/../lib/gcc/x86_64-w64-mingw32/8.1.0/../../../../x86_64-w64-mingw32/lib/../lib/libmsvcrt.a(duags01088.o)
 .idata$4       0x0000000000459300        0x8 C:/mingw64/w64/bin/../lib/gcc/x86_64-w64-mingw32/8.1.0/../../../../x86_64-w64-mingw32/lib/../lib/libmsvcrt.a(duags01089.o)
 .idata$4       0x0000000000459308        0x8 C:/mingw64/w64/bin/../lib/gcc/x86_64-w64-mingw32/8.1.0/../../../../x86_64-w64-mingw32/lib/../lib/libmsvcrt.a(duags01101.o)
 .idata$4       0x0000000000459310        0x8 C:/mingw64/w64/bin/../lib/gcc/x86_64-w64-mingw32/8.1.0/../../../../x86_64-w64-mingw32/lib/../lib/libmsvcrt.a(duags01106.o)
 .idata$4       0x0000000000459318        0x8 C:/mingw64/w64/bin/../lib/gcc/x86_64-w64-mingw32/8.1.0/../../../../x86_64-w64-mingw32/lib/../lib/libmsvcrt.a(duags01113.o)
 .idata$4       0x0000000000459320        0x8 C:/mingw64/w64/bin/../lib/gcc/x86_64-w64-mingw32/8.1.0/../../../../x86_64-w64-mingw32/lib/../lib/libmsvcrt.a(duags01114.o)
 .idata$4       0x0000000000459328        0x8 C:/mingw64/w64/bin/../lib/gcc/x86_64-w64-mingw32/8.1.0/../../../../x86_64-w64-mingw32/lib/../lib/libmsvcrt.a(duags01121.o)
 .idata$4       0x0000000000459330        0x8 C:/mingw64/w64/bin/../lib/gcc/x86_64-w64-mingw32/8.1.0/../../../../x86_64-w64-mingw32/lib/../lib/libmsvcrt.a(duags01122.o)
 .idata$4       0x0000000000459338        0x8 C:/mingw64/w64/bin/../lib/gcc/x86_64-w64-mingw32/8.1.0/../../../../x86_64-w64-mingw32/lib/../lib/libmsvcrt.a(duags01138.o)
 .idata$4       0x0000000000459340        0x8 C:/mingw64/w64/bin/../lib/gcc/x86_64-w64-mingw32/8.1.0/../../../../x86_64-w64-mingw32/lib/../lib/libmsvcrt.a(duags01142.o)
 .idata$4       0x0000000000459348        0x8 C:/mingw64/w64/bin/../lib/gcc/x86_64-w64-mingw32/8.1.0/../../../../x86_64-w64-mingw32/lib/../lib/libmsvcrt.a(duags01149.o)
 .idata$4       0x0000000000459350        0x8 C:/mingw64/w64/bin/../lib/gcc/x86_64-w64-mingw32/8.1.0/../../../../x86_64-w64-mingw32/lib/../lib/libmsvcrt.a(duags01156.o)
 .idata$4       0x0000000000459358        0x8 C:/mingw64/w64/bin/../lib/gcc/x86_64-w64-mingw32/8.1.0/../../../../x86_64-w64-mingw32/lib/../lib/libmsvcrt.a(duags01157.o)
 .idata$4       0x0000000000459360        0x8 C:/mingw64/w64/bin/../lib/gcc/x86_64-w64-mingw32/8.1.0/../../../../x86_64-w64-mingw32/lib/../lib/libmsvcrt.a(duags01158.o)
 .idata$4       0x0000000000459368        0x8 C:/mingw64/w64/bin/../lib/gcc/x86_64-w64-mingw32/8.1.0/../../../../x86_64-w64-mingw32/lib/../lib/libmsvcrt.a(duags01159.o)
 .idata$4       0x0000000000459370        0x8 C:/mingw64/w64/bin/../lib/gcc/x86_64-w64-mingw32/8.1.0/../../../../x86_64-w64-mingw32/lib/../lib/libmsvcrt.a(duags01187.o)
 .idata$4       0x0000000000459378        0x8 C:/mingw64/w64/bin/../lib/gcc/x86_64-w64-mingw32/8.1.0/../../../../x86_64-w64-mingw32/lib/../lib/libmsvcrt.a(duags01198.o)
 .idata$4       0x0000000000459380        0x8 C:/mingw64/w64/bin/../lib/gcc/x86_64-w64-mingw32/8.1.0/../../../../x86_64-w64-mingw32/lib/../lib/libmsvcrt.a(duags01200.o)
 .idata$4       0x0000000000459388        0x8 C:/mingw64/w64/bin/../lib/gcc/x86_64-w64-mingw32/8.1.0/../../../../x86_64-w64-mingw32/lib/../lib/libmsvcrt.a(duags01203.o)
 .idata$4       0x0000000000459390        0x8 C:/mingw64/w64/bin/../lib/gcc/x86_64-w64-mingw32/8.1.0/../../../../x86_64-w64-mingw32/lib/../lib/libmsvcrt.a(duags01206.o)
 .idata$4       0x0000000000459398        0x8 C:/mingw64/w64/bin/../lib/gcc/x86_64-w64-mingw32/8.1.0/../../../../x86_64-w64-mingw32/lib/../lib/libmsvcrt.a(duags01207.o)
 .idata$4       0x00000000004593a0        0x8 C:/mingw64/w64/bin/../lib/gcc/x86_64-w64-mingw32/8.1.0/../../../../x86_64-w64-mingw32/lib/../lib/libmsvcrt.a(duags01208.o)
 .idata$4       0x00000000004593a8        0x8 C:/mingw64/w64/bin/../lib/gcc/x86_64-w64-mingw32/8.1.0/../../../../x86_64-w64-mingw32/lib/../lib/libmsvcrt.a(duags01209.o)
 .idata$4       0x00000000004593b0        0x8 C:/mingw64/w64/bin/../lib/gcc/x86_64-w64-mingw32/8.1.0/../../../../x86_64-w64-mingw32/lib/../lib/libmsvcrt.a(duags01211.o)
 .idata$4       0x00000000004593b8        0x8 C:/mingw64/w64/bin/../lib/gcc/x86_64-w64-mingw32/8.1.0/../../../../x86_64-w64-mingw32/lib/../lib/libmsvcrt.a(duags01212.o)
 .idata$4       0x00000000004593c0        0x8 C:/mingw64/w64/bin/../lib/gcc/x86_64-w64-mingw32/8.1.0/../../../../x86_64-w64-mingw32/lib/../lib/libmsvcrt.a(duags01215.o)
 .idata$4       0x00000000004593c8        0x8 C:/mingw64/w64/bin/../lib/gcc/x86_64-w64-mingw32/8.1.0/../../../../x86_64-w64-mingw32/lib/../lib/libmsvcrt.a(duags01222.o)
 .idata$4       0x00000000004593d0        0x8 C:/mingw64/w64/bin/../lib/gcc/x86_64-w64-mingw32/8.1.0/../../../../x86_64-w64-mingw32/lib/../lib/libmsvcrt.a(duags01223.o)
 .idata$4       0x00000000004593d8        0x8 C:/mingw64/w64/bin/../lib/gcc/x86_64-w64-mingw32/8.1.0/../../../../x86_64-w64-mingw32/lib/../lib/libmsvcrt.a(duags01235.o)
 .idata$4       0x00000000004593e0        0x8 C:/mingw64/w64/bin/../lib/gcc/x86_64-w64-mingw32/8.1.0/../../../../x86_64-w64-mingw32/lib/../lib/libmsvcrt.a(duags01237.o)
 .idata$4       0x00000000004593e8        0x8 C:/mingw64/w64/bin/../lib/gcc/x86_64-w64-mingw32/8.1.0/../../../../x86_64-w64-mingw32/lib/../lib/libmsvcrt.a(duags01238.o)
 .idata$4       0x00000000004593f0        0x8 C:/mingw64/w64/bin/../lib/gcc/x86_64-w64-mingw32/8.1.0/../../../../x86_64-w64-mingw32/lib/../lib/libmsvcrt.a(duags01243.o)
 .idata$4       0x00000000004593f8        0x8 C:/mingw64/w64/bin/../lib/gcc/x86_64-w64-mingw32/8.1.0/../../../../x86_64-w64-mingw32/lib/../lib/libmsvcrt.a(duags01264.o)
 .idata$4       0x0000000000459400        0x8 C:/mingw64/w64/bin/../lib/gcc/x86_64-w64-mingw32/8.1.0/../../../../x86_64-w64-mingw32/lib/../lib/libmsvcrt.a(duagt.o)
 .idata$4       0x0000000000459408        0x0 C:/mingw64/w64/bin/../lib/gcc/x86_64-w64-mingw32/8.1.0/libstdc++.dll.a(d000000.o)
 .idata$4       0x0000000000459408        0x8 C:/mingw64/w64/bin/../lib/gcc/x86_64-w64-mingw32/8.1.0/libstdc++.dll.a(d000678.o)
 .idata$4       0x0000000000459410        0x8 C:/mingw64/w64/bin/../lib/gcc/x86_64-w64-mingw32/8.1.0/libstdc++.dll.a(d000693.o)
 .idata$4       0x0000000000459418        0x8 C:/mingw64/w64/bin/../lib/gcc/x86_64-w64-mingw32/8.1.0/libstdc++.dll.a(d000830.o)
 .idata$4       0x0000000000459420        0x8 C:/mingw64/w64/bin/../lib/gcc/x86_64-w64-mingw32/8.1.0/libstdc++.dll.a(d000937.o)
 .idata$4       0x0000000000459428        0x8 C:/mingw64/w64/bin/../lib/gcc/x86_64-w64-mingw32/8.1.0/libstdc++.dll.a(d000944.o)
 .idata$4       0x0000000000459430        0x8 C:/mingw64/w64/bin/../lib/gcc/x86_64-w64-mingw32/8.1.0/libstdc++.dll.a(d000948.o)
 .idata$4       0x0000000000459438        0x8 C:/mingw64/w64/bin/../lib/gcc/x86_64-w64-mingw32/8.1.0/libstdc++.dll.a(d000950.o)
 .idata$4       0x0000000000459440        0x8 C:/mingw64/w64/bin/../lib/gcc/x86_64-w64-mingw32/8.1.0/libstdc++.dll.a(d000958.o)
 .idata$4       0x0000000000459448        0x8 C:/mingw64/w64/bin/../lib/gcc/x86_64-w64-mingw32/8.1.0/libstdc++.dll.a(d000960.o)
 .idata$4       0x0000000000459450        0x8 C:/mingw64/w64/bin/../lib/gcc/x86_64-w64-mingw32/8.1.0/libstdc++.dll.a(d000971.o)
 .idata$4       0x0000000000459458        0x8 C:/mingw64/w64/bin/../lib/gcc/x86_64-w64-mingw32/8.1.0/libstdc++.dll.a(d000975.o)
 .idata$4       0x0000000000459460        0x8 C:/mingw64/w64/bin/../lib/gcc/x86_64-w64-mingw32/8.1.0/libstdc++.dll.a(d000977.o)
 .idata$4       0x0000000000459468        0x8 C:/mingw64/w64/bin/../lib/gcc/x86_64-w64-mingw32/8.1.0/libstdc++.dll.a(d001343.o)
 .idata$4       0x0000000000459470        0x8 C:/mingw64/w64/bin/../lib/gcc/x86_64-w64-mingw32/8.1.0/libstdc++.dll.a(d001344.o)
 .idata$4       0x0000000000459478        0x8 C:/mingw64/w64/bin/../lib/gcc/x86_64-w64-mingw32/8.1.0/libstdc++.dll.a(d001664.o)
 .idata$4       0x0000000000459480        0x8 C:/mingw64/w64/bin/../lib/gcc/x86_64-w64-mingw32/8.1.0/libstdc++.dll.a(d001668.o)
 .idata$4       0x0000000000459488        0x8 C:/mingw64/w64/bin/../lib/gcc/x86_64-w64-mingw32/8.1.0/libstdc++.dll.a(d001669.o)
 .idata$4       0x0000000000459490        0x8 C:/mingw64/w64/bin/../lib/gcc/x86_64-w64-mingw32/8.1.0/libstdc++.dll.a(d001707.o)
 .idata$4       0x0000000000459498        0x8 C:/mingw64/w64/bin/../lib/gcc/x86_64-w64-mingw32/8.1.0/libstdc++.dll.a(d001709.o)
 .idata$4       0x00000000004594a0        0x8 C:/mingw64/w64/bin/../lib/gcc/x86_64-w64-mingw32/8.1.0/libstdc++.dll.a(d001748.o)
 .idata$4       0x00000000004594a8        0x8 C:/mingw64/w64/bin/../lib/gcc/x86_64-w64-mingw32/8.1.0/libstdc++.dll.a(d002047.o)
 .idata$4       0x00000000004594b0        0x8 C:/mingw64/w64/bin/../lib/gcc/x86_64-w64-mingw32/8.1.0/libstdc++.dll.a(d002272.o)
 .idata$4       0x00000000004594b8        0x8 C:/mingw64/w64/bin/../lib/gcc/x86_64-w64-mingw32/8.1.0/libstdc++.dll.a(d002277.o)
 .idata$4       0x00000000004594c0        0x8 C:/mingw64/w64/bin/../lib/gcc/x86_64-w64-mingw32/8.1.0/libstdc++.dll.a(d002290.o)
 .idata$4       0x00000000004594c8        0x8 C:/mingw64/w64/bin/../lib/gcc/x86_64-w64-mingw32/8.1.0/libstdc++.dll.a(d002294.o)
 .idata$4       0x00000000004594d0        0x8 C:/mingw64/w64/bin/../lib/gcc/x86_64-w64-mingw32/8.1.0/libstdc++.dll.a(d002347.o)
 .idata$4       0x00000000004594d8        0x8 C:/mingw64/w64/bin/../lib/gcc/x86_64-w64-mingw32/8.1.0/libstdc++.dll.a(d002489.o)
 .idata$4       0x00000000004594e0        0x8 C:/mingw64/w64/bin/../lib/gcc/x86_64-w64-mingw32/8.1.0/libstdc++.dll.a(d002496.o)
 .idata$4       0x00000000004594e8        0x8 C:/mingw64/w64/bin/../lib/gcc/x86_64-w64-mingw32/8.1.0/libstdc++.dll.a(d003694.o)
 .idata$4       0x00000000004594f0        0x8 C:/mingw64/w64/bin/../lib/gcc/x86_64-w64-mingw32/8.1.0/libstdc++.dll.a(d003701.o)
 .idata$4       0x00000000004594f8        0x8 C:/mingw64/w64/bin/../lib/gcc/x86_64-w64-mingw32/8.1.0/libstdc++.dll.a(d003763.o)
 .idata$4       0x0000000000459500        0x8 C:/mingw64/w64/bin/../lib/gcc/x86_64-w64-mingw32/8.1.0/libstdc++.dll.a(d003782.o)
 .idata$4       0x0000000000459508        0x8 C:/mingw64/w64/bin/../lib/gcc/x86_64-w64-mingw32/8.1.0/libstdc++.dll.a(d003790.o)
 .idata$4       0x0000000000459510        0x8 C:/mingw64/w64/bin/../lib/gcc/x86_64-w64-mingw32/8.1.0/libstdc++.dll.a(d003797.o)
 .idata$4       0x0000000000459518        0x8 C:/mingw64/w64/bin/../lib/gcc/x86_64-w64-mingw32/8.1.0/libstdc++.dll.a(d003851.o)
 .idata$4       0x0000000000459520        0x8 C:/mingw64/w64/bin/../lib/gcc/x86_64-w64-mingw32/8.1.0/libstdc++.dll.a(d003852.o)
 .idata$4       0x0000000000459528        0x8 C:/mingw64/w64/bin/../lib/gcc/x86_64-w64-mingw32/8.1.0/libstdc++.dll.a(d003854.o)
 .idata$4       0x0000000000459530        0x8 C:/mingw64/w64/bin/../lib/gcc/x86_64-w64-mingw32/8.1.0/libstdc++.dll.a(d003855.o)
 .idata$4       0x0000000000459538        0x8 C:/mingw64/w64/bin/../lib/gcc/x86_64-w64-mingw32/8.1.0/libstdc++.dll.a(d003856.o)
 .idata$4       0x0000000000459540        0x8 C:/mingw64/w64/bin/../lib/gcc/x86_64-w64-mingw32/8.1.0/libstdc++.dll.a(d003858.o)
 .idata$4       0x0000000000459548        0x8 C:/mingw64/w64/bin/../lib/gcc/x86_64-w64-mingw32/8.1.0/libstdc++.dll.a(d003895.o)
 .idata$4       0x0000000000459550        0x8 C:/mingw64/w64/bin/../lib/gcc/x86_64-w64-mingw32/8.1.0/libstdc++.dll.a(d003998.o)
 .idata$4       0x0000000000459558        0x8 C:/mingw64/w64/bin/../lib/gcc/x86_64-w64-mingw32/8.1.0/libstdc++.dll.a(d004000.o)
 .idata$4       0x0000000000459560        0x8 C:/mingw64/w64/bin/../lib/gcc/x86_64-w64-mingw32/8.1.0/libstdc++.dll.a(d004072.o)
 .idata$4       0x0000000000459568        0x8 C:/mingw64/w64/bin/../lib/gcc/x86_64-w64-mingw32/8.1.0/libstdc++.dll.a(d004202.o)
 .idata$4       0x0000000000459570        0x8 C:/mingw64/w64/bin/../lib/gcc/x86_64-w64-mingw32/8.1.0/libstdc++.dll.a(d004423.o)
 .idata$4       0x0000000000459578        0x8 C:/mingw64/w64/bin/../lib/gcc/x86_64-w64-mingw32/8.1.0/libstdc++.dll.a(d004424.o)
 .idata$4       0x0000000000459580        0x8 C:/mingw64/w64/bin/../lib/gcc/x86_64-w64-mingw32/8.1.0/libstdc++.dll.a(d004448.o)
 .idata$4       0x0000000000459588        0x8 C:/mingw64/w64/bin/../lib/gcc/x86_64-w64-mingw32/8.1.0/libstdc++.dll.a(d004450.o)
 .idata$4       0x0000000000459590        0x8 C:/mingw64/w64/bin/../lib/gcc/x86_64-w64-mingw32/8.1.0/libstdc++.dll.a(d004490.o)
 .idata$4       0x0000000000459598        0x8 C:/mingw64/w64/bin/../lib/gcc/x86_64-w64-mingw32/8.1.0/libstdc++.dll.a(d004493.o)
 .idata$4       0x00000000004595a0        0x8 C:/mingw64/w64/bin/../lib/gcc/x86_64-w64-mingw32/8.1.0/libstdc++.dll.a(d004582.o)
 .idata$4       0x00000000004595a8        0x8 C:/mingw64/w64/bin/../lib/gcc/x86_64-w64-mingw32/8.1.0/libstdc++.dll.a(d004586.o)
 .idata$4       0x00000000004595b0        0x8 C:/mingw64/w64/bin/../lib/gcc/x86_64-w64-mingw32/8.1.0/libstdc++.dll.a(d004661.o)
 .idata$4       0x00000000004595b8        0x8 C:/mingw64/w64/bin/../lib/gcc/x86_64-w64-mingw32/8.1.0/libstdc++.dll.a(d004685.o)
 .idata$4       0x00000000004595c0        0x8 C:/mingw64/w64/bin/../lib/gcc/x86_64-w64-mingw32/8.1.0/libstdc++.dll.a(d004687.o)
 .idata$4       0x00000000004595c8        0x8 C:/mingw64/w64/bin/../lib/gcc/x86_64-w64-mingw32/8.1.0/libstdc++.dll.a(d004692.o)
 .idata$4       0x00000000004595d0        0x8 C:/mingw64/w64/bin/../lib/gcc/x86_64-w64-mingw32/8.1.0/libstdc++.dll.a(d004699.o)
 .idata$4       0x00000000004595d8        0x8 C:/mingw64/w64/bin/../lib/gcc/x86_64-w64-mingw32/8.1.0/libstdc++.dll.a(d004700.o)
 .idata$4       0x00000000004595e0        0x8 C:/mingw64/w64/bin/../lib/gcc/x86_64-w64-mingw32/8.1.0/libstdc++.dll.a(d004701.o)
 .idata$4       0x00000000004595e8        0x8 C:/mingw64/w64/bin/../lib/gcc/x86_64-w64-mingw32/8.1.0/libstdc++.dll.a(d004705.o)
 .idata$4       0x00000000004595f0        0x8 C:/mingw64/w64/bin/../lib/gcc/x86_64-w64-mingw32/8.1.0/libstdc++.dll.a(d004713.o)
 .idata$4       0x00000000004595f8        0x8 C:/mingw64/w64/bin/../lib/gcc/x86_64-w64-mingw32/8.1.0/libstdc++.dll.a(d004714.o)
 .idata$4       0x0000000000459600        0x8 C:/mingw64/w64/bin/../lib/gcc/x86_64-w64-mingw32/8.1.0/libstdc++.dll.a(d004727.o)
 .idata$4       0x0000000000459608        0x8 C:/mingw64/w64/bin/../lib/gcc/x86_64-w64-mingw32/8.1.0/libstdc++.dll.a(d004728.o)
 .idata$4       0x0000000000459610        0x8 C:/mingw64/w64/bin/../lib/gcc/x86_64-w64-mingw32/8.1.0/libstdc++.dll.a(d004729.o)
 .idata$4       0x0000000000459618        0x8 C:/mingw64/w64/bin/../lib/gcc/x86_64-w64-mingw32/8.1.0/libstdc++.dll.a(d004732.o)
 .idata$4       0x0000000000459620        0x8 C:/mingw64/w64/bin/../lib/gcc/x86_64-w64-mingw32/8.1.0/libstdc++.dll.a(d004736.o)
 .idata$4       0x0000000000459628        0x8 C:/mingw64/w64/bin/../lib/gcc/x86_64-w64-mingw32/8.1.0/libstdc++.dll.a(d004738.o)
 .idata$4       0x0000000000459630        0x8 C:/mingw64/w64/bin/../lib/gcc/x86_64-w64-mingw32/8.1.0/libstdc++.dll.a(d004739.o)
 .idata$4       0x0000000000459638        0x8 C:/mingw64/w64/bin/../lib/gcc/x86_64-w64-mingw32/8.1.0/libstdc++.dll.a(d004750.o)
 .idata$4       0x0000000000459640        0x8 C:/mingw64/w64/bin/../lib/gcc/x86_64-w64-mingw32/8.1.0/libstdc++.dll.a(d004847.o)
 .idata$4       0x0000000000459648        0x8 C:/mingw64/w64/bin/../lib/gcc/x86_64-w64-mingw32/8.1.0/libstdc++.dll.a(d005515.o)
 .idata$4       0x0000000000459650        0x8 C:/mingw64/w64/bin/../lib/gcc/x86_64-w64-mingw32/8.1.0/libstdc++.dll.a(d005526.o)
 .idata$4       0x0000000000459658        0x8 C:/mingw64/w64/bin/../lib/gcc/x86_64-w64-mingw32/8.1.0/libstdc++.dll.a(d005545.o)
 .idata$4       0x0000000000459660        0x8 C:/mingw64/w64/bin/../lib/gcc/x86_64-w64-mingw32/8.1.0/libstdc++.dll.a(d005550.o)
 .idata$4       0x0000000000459668        0x8 C:/mingw64/w64/bin/../lib/gcc/x86_64-w64-mingw32/8.1.0/libstdc++.dll.a(d005575.o)
 .idata$4       0x0000000000459670        0x8 C:/mingw64/w64/bin/../lib/gcc/x86_64-w64-mingw32/8.1.0/libstdc++.dll.a(d005587.o)
 .idata$4       0x0000000000459678        0x8 C:/mingw64/w64/bin/../lib/gcc/x86_64-w64-mingw32/8.1.0/libstdc++.dll.a(d005634.o)
 .idata$4       0x0000000000459680        0x8 C:/mingw64/w64/bin/../lib/gcc/x86_64-w64-mingw32/8.1.0/libstdc++.dll.a(d005636.o)
 .idata$4       0x0000000000459688        0x8 C:/mingw64/w64/bin/../lib/gcc/x86_64-w64-mingw32/8.1.0/libstdc++.dll.a(d005652.o)
 .idata$4       0x0000000000459690        0x8 C:/mingw64/w64/bin/../lib/gcc/x86_64-w64-mingw32/8.1.0/libstdc++.dll.a(d005727.o)
 .idata$4       0x0000000000459698        0x8 C:/mingw64/w64/bin/../lib/gcc/x86_64-w64-mingw32/8.1.0/libstdc++.dll.a(d005817.o)
 .idata$4       0x00000000004596a0        0x8 C:/mingw64/w64/bin/../lib/gcc/x86_64-w64-mingw32/8.1.0/libstdc++.dll.a(d005823.o)
 .idata$4       0x00000000004596a8        0x8 C:/mingw64/w64/bin/../lib/gcc/x86_64-w64-mingw32/8.1.0/libstdc++.dll.a(d005827.o)
 .idata$4       0x00000000004596b0        0x8 C:/mingw64/w64/bin/../lib/gcc/x86_64-w64-mingw32/8.1.0/libstdc++.dll.a(d005829.o)
 .idata$4       0x00000000004596b8        0x8 C:/mingw64/w64/bin/../lib/gcc/x86_64-w64-mingw32/8.1.0/libstdc++.dll.a(d005833.o)
 .idata$4       0x00000000004596c0        0x8 C:/mingw64/w64/bin/../lib/gcc/x86_64-w64-mingw32/8.1.0/libstdc++.dll.a(d005843.o)
 .idata$4       0x00000000004596c8        0x8 C:/mingw64/w64/bin/../lib/gcc/x86_64-w64-mingw32/8.1.0/libstdc++.dll.a(d005849.o)
 .idata$4       0x00000000004596d0        0x8 C:/mingw64/w64/bin/../lib/gcc/x86_64-w64-mingw32/8.1.0/libstdc++.dll.a(d005852.o)
 .idata$4       0x00000000004596d8        0x8 C:/mingw64/w64/bin/../lib/gcc/x86_64-w64-mingw32/8.1.0/libstdc++.dll.a(d005855.o)
 .idata$4       0x00000000004596e0        0x8 C:/mingw64/w64/bin/../lib/gcc/x86_64-w64-mingw32/8.1.0/libstdc++.dll.a(d005856.o)
 .idata$4       0x00000000004596e8        0x8 C:/mingw64/w64/bin/../lib/gcc/x86_64-w64-mingw32/8.1.0/libstdc++.dll.a(d005857.o)
 .idata$4       0x00000000004596f0        0x8 C:/mingw64/w64/bin/../lib/gcc/x86_64-w64-mingw32/8.1.0/libstdc++.dll.a(d005860.o)
 .idata$4       0x00000000004596f8        0x8 C:/mingw64/w64/bin/../lib/gcc/x86_64-w64-mingw32/8.1.0/libstdc++.dll.a(d005864.o)
 .idata$4       0x0000000000459700        0x8 C:/mingw64/w64/bin/../lib/gcc/x86_64-w64-mingw32/8.1.0/libstdc++.dll.a(d005880.o)
 .idata$4       0x0000000000459708        0x8 C:/mingw64/w64/bin/../lib/gcc/x86_64-w64-mingw32/8.1.0/libstdc++.dll.a(d005884.o)
                0x0000000000459710                __IAT_start__ = .
 SORT_BY_NAME(*)(.idata$5)
 .idata$5       0x0000000000459710        0x0 C:/mingw64/w64/bin/../lib/gcc/x86_64-w64-mingw32/8.1.0/../../../../x86_64-w64-mingw32/lib/../lib/libkernel32.a(dqifh.o)
 .idata$5       0x0000000000459710        0x8 C:/mingw64/w64/bin/../lib/gcc/x86_64-w64-mingw32/8.1.0/../../../../x86_64-w64-mingw32/lib/../lib/libkernel32.a(dqifs00191.o)
                0x0000000000459710                __imp_CreateFileA
 .idata$5       0x0000000000459718        0x8 C:/mingw64/w64/bin/../lib/gcc/x86_64-w64-mingw32/8.1.0/../../../../x86_64-w64-mingw32/lib/../lib/libkernel32.a(dqifs00268.o)
                0x0000000000459718                __imp_DeleteCriticalSection
 .idata$5       0x0000000000459720        0x8 C:/mingw64/w64/bin/../lib/gcc/x86_64-w64-mingw32/8.1.0/../../../../x86_64-w64-mingw32/lib/../lib/libkernel32.a(dqifs00304.o)
                0x0000000000459720                __imp_EnterCriticalSection
 .idata$5       0x0000000000459728        0x8 C:/mingw64/w64/bin/../lib/gcc/x86_64-w64-mingw32/8.1.0/../../../../x86_64-w64-mingw32/lib/../lib/libkernel32.a(dqifs00514.o)
                0x0000000000459728                __imp_GetConsoleScreenBufferInfo
 .idata$5       0x0000000000459730        0x8 C:/mingw64/w64/bin/../lib/gcc/x86_64-w64-mingw32/8.1.0/../../../../x86_64-w64-mingw32/lib/../lib/libkernel32.a(dqifs00528.o)
                0x0000000000459730                __imp_GetCurrentDirectoryA
 .idata$5       0x0000000000459738        0x8 C:/mingw64/w64/bin/../lib/gcc/x86_64-w64-mingw32/8.1.0/../../../../x86_64-w64-mingw32/lib/../lib/libkernel32.a(dqifs00535.o)
                0x0000000000459738                __imp_GetCurrentProcess
 .idata$5       0x0000000000459740        0x8 C:/mingw64/w64/bin/../lib/gcc/x86_64-w64-mingw32/8.1.0/../../../../x86_64-w64-mingw32/lib/../lib/libkernel32.a(dqifs00536.o)
                0x0000000000459740                __imp_GetCurrentProcessId
 .idata$5       0x0000000000459748        0x8 C:/mingw64/w64/bin/../lib/gcc/x86_64-w64-mingw32/8.1.0/../../../../x86_64-w64-mingw32/lib/../lib/libkernel32.a(dqifs00540.o)
                0x0000000000459748                __imp_GetCurrentThreadId
 .idata$5       0x0000000000459750        0x8 C:/mingw64/w64/bin/../lib/gcc/x86_64-w64-mingw32/8.1.0/../../../../x86_64-w64-mingw32/lib/../lib/libkernel32.a(dqifs00578.o)
                0x0000000000459750                __imp_GetFileAttributesA
 .idata$5       0x0000000000459758        0x8 C:/mingw64/w64/bin/../lib/gcc/x86_64-w64-mingw32/8.1.0/../../../../x86_64-w64-mingw32/lib/../lib/libkernel32.a(dqifs00609.o)
                0x0000000000459758                __imp_GetLastError
 .idata$5       0x0000000000459760        0x8 C:/mingw64/w64/bin/../lib/gcc/x86_64-w64-mingw32/8.1.0/../../../../x86_64-w64-mingw32/lib/../lib/libkernel32.a(dqifs00628.o)
                0x0000000000459760                __imp_GetModuleFileNameA
 .idata$5       0x0000000000459768        0x8 C:/mingw64/w64/bin/../lib/gcc/x86_64-w64-mingw32/8.1.0/../../../../x86_64-w64-mingw32/lib/../lib/libkernel32.a(dqifs00721.o)
                0x0000000000459768                __imp_GetStartupInfoA
 .idata$5       0x0000000000459770        0x8 C:/mingw64/w64/bin/../lib/gcc/x86_64-w64-mingw32/8.1.0/../../../../x86_64-w64-mingw32/lib/../lib/libkernel32.a(dqifs00724.o)
                0x0000000000459770                __imp_GetStdHandle
 .idata$5       0x0000000000459778        0x8 C:/mingw64/w64/bin/../lib/gcc/x86_64-w64-mingw32/8.1.0/../../../../x86_64-w64-mingw32/lib/../lib/libkernel32.a(dqifs00746.o)
                0x0000000000459778                __imp_GetSystemTimeAsFileTime
 .idata$5       0x0000000000459780        0x8 C:/mingw64/w64/bin/../lib/gcc/x86_64-w64-mingw32/8.1.0/../../../../x86_64-w64-mingw32/lib/../lib/libkernel32.a(dqifs00774.o)
                0x0000000000459780                __imp_GetTickCount
 .idata$5       0x0000000000459788        0x8 C:/mingw64/w64/bin/../lib/gcc/x86_64-w64-mingw32/8.1.0/../../../../x86_64-w64-mingw32/lib/../lib/libkernel32.a(dqifs00863.o)
                0x0000000000459788                __imp_InitializeCriticalSection
 .idata$5       0x0000000000459790        0x8 C:/mingw64/w64/bin/../lib/gcc/x86_64-w64-mingw32/8.1.0/../../../../x86_64-w64-mingw32/lib/../lib/libkernel32.a(dqifs00889.o)
                0x0000000000459790                __imp_IsDBCSLeadByteEx
 .idata$5       0x0000000000459798        0x8 C:/mingw64/w64/bin/../lib/gcc/x86_64-w64-mingw32/8.1.0/../../../../x86_64-w64-mingw32/lib/../lib/libkernel32.a(dqifs00951.o)
                0x0000000000459798                __imp_LeaveCriticalSection
 .idata$5       0x00000000004597a0        0x8 C:/mingw64/w64/bin/../lib/gcc/x86_64-w64-mingw32/8.1.0/../../../../x86_64-w64-mingw32/lib/../lib/libkernel32.a(dqifs00999.o)
                0x00000000004597a0                __imp_MultiByteToWideChar
 .idata$5       0x00000000004597a8        0x8 C:/mingw64/w64/bin/../lib/gcc/x86_64-w64-mingw32/8.1.0/../../../../x86_64-w64-mingw32/lib/../lib/libkernel32.a(dqifs01051.o)
                0x00000000004597a8                __imp_PeekNamedPipe
 .idata$5       0x00000000004597b0        0x8 C:/mingw64/w64/bin/../lib/gcc/x86_64-w64-mingw32/8.1.0/../../../../x86_64-w64-mingw32/lib/../lib/libkernel32.a(dqifs01093.o)
                0x00000000004597b0                __imp_QueryPerformanceCounter
 .idata$5       0x00000000004597b8        0x8 C:/mingw64/w64/bin/../lib/gcc/x86_64-w64-mingw32/8.1.0/../../../../x86_64-w64-mingw32/lib/../lib/libkernel32.a(dqifs01112.o)
                0x00000000004597b8                __imp_RaiseException
 .idata$5       0x00000000004597c0        0x8 C:/mingw64/w64/bin/../lib/gcc/x86_64-w64-mingw32/8.1.0/../../../../x86_64-w64-mingw32/lib/../lib/libkernel32.a(dqifs01128.o)
                0x00000000004597c0                __imp_ReadFile
 .idata$5       0x00000000004597c8        0x8 C:/mingw64/w64/bin/../lib/gcc/x86_64-w64-mingw32/8.1.0/../../../../x86_64-w64-mingw32/lib/../lib/libkernel32.a(dqifs01179.o)
                0x00000000004597c8                __imp_RtlAddFunctionTable
 .idata$5       0x00000000004597d0        0x8 C:/mingw64/w64/bin/../lib/gcc/x86_64-w64-mingw32/8.1.0/../../../../x86_64-w64-mingw32/lib/../lib/libkernel32.a(dqifs01180.o)
                0x00000000004597d0                __imp_RtlCaptureContext
 .idata$5       0x00000000004597d8        0x8 C:/mingw64/w64/bin/../lib/gcc/x86_64-w64-mingw32/8.1.0/../../../../x86_64-w64-mingw32/lib/../lib/libkernel32.a(dqifs01187.o)
                0x00000000004597d8                __imp_RtlLookupFunctionEntry
 .idata$5       0x00000000004597e0        0x8 C:/mingw64/w64/bin/../lib/gcc/x86_64-w64-mingw32/8.1.0/../../../../x86_64-w64-mingw32/lib/../lib/libkernel32.a(dqifs01193.o)
                0x00000000004597e0                __imp_RtlUnwindEx
 .idata$5       0x00000000004597e8        0x8 C:/mingw64/w64/bin/../lib/gcc/x86_64-w64-mingw32/8.1.0/../../../../x86_64-w64-mingw32/lib/../lib/libkernel32.a(dqifs01194.o)
                0x00000000004597e8                __imp_RtlVirtualUnwind
 .idata$5       0x00000000004597f0        0x8 C:/mingw64/w64/bin/../lib/gcc/x86_64-w64-mingw32/8.1.0/../../../../x86_64-w64-mingw32/lib/../lib/libkernel32.a(dqifs01346.o)
                0x00000000004597f0                __imp_SetUnhandledExceptionFilter
 .idata$5       0x00000000004597f8        0x8 C:/mingw64/w64/bin/../lib/gcc/x86_64-w64-mingw32/8.1.0/../../../../x86_64-w64-mingw32/lib/../lib/libkernel32.a(dqifs01360.o)
                0x00000000004597f8                __imp_Sleep
 .idata$5       0x0000000000459800        0x8 C:/mingw64/w64/bin/../lib/gcc/x86_64-w64-mingw32/8.1.0/../../../../x86_64-w64-mingw32/lib/../lib/libkernel32.a(dqifs01375.o)
                0x0000000000459800                __imp_TerminateProcess
 .idata$5       0x0000000000459808        0x8 C:/mingw64/w64/bin/../lib/gcc/x86_64-w64-mingw32/8.1.0/../../../../x86_64-w64-mingw32/lib/../lib/libkernel32.a(dqifs01395.o)
                0x0000000000459808                __imp_TlsGetValue
 .idata$5       0x0000000000459810        0x8 C:/mingw64/w64/bin/../lib/gcc/x86_64-w64-mingw32/8.1.0/../../../../x86_64-w64-mingw32/lib/../lib/libkernel32.a(dqifs01409.o)
                0x0000000000459810                __imp_UnhandledExceptionFilter
 .idata$5       0x0000000000459818        0x8 C:/mingw64/w64/bin/../lib/gcc/x86_64-w64-mingw32/8.1.0/../../../../x86_64-w64-mingw32/lib/../lib/libkernel32.a(dqifs01443.o)
                0x0000000000459818                __imp_VirtualProtect
 .idata$5       0x0000000000459820        0x8 C:/mingw64/w64/bin/../lib/gcc/x86_64-w64-mingw32/8.1.0/../../../../x86_64-w64-mingw32/lib/../lib/libkernel32.a(dqifs01445.o)
                0x0000000000459820                __imp_VirtualQuery
 .idata$5       0x0000000000459828        0x8 C:/mingw64/w64/bin/../lib/gcc/x86_64-w64-mingw32/8.1.0/../../../../x86_64-w64-mingw32/lib/../lib/libkernel32.a(dqifs01490.o)
                0x0000000000459828                __imp_WideCharToMultiByte
 .idata$5       0x0000000000459830        0x8 C:/mingw64/w64/bin/../lib/gcc/x86_64-w64-mingw32/8.1.0/../../../../x86_64-w64-mingw32/lib/../lib/libkernel32.a(dqifs01510.o)
                0x0000000000459830                __imp_WriteFile
 .idata$5       0x0000000000459838        0x8 C:/mingw64/w64/bin/../lib/gcc/x86_64-w64-mingw32/8.1.0/../../../../x86_64-w64-mingw32/lib/../lib/libkernel32.a(dqifs01527.o)
                0x0000000000459838                __imp___C_specific_handler
 .idata$5       0x0000000000459840        0x8 C:/mingw64/w64/bin/../lib/gcc/x86_64-w64-mingw32/8.1.0/../../../../x86_64-w64-mingw32/lib/../lib/libkernel32.a(dqift.o)
 .idata$5       0x0000000000459848        0x0 C:/mingw64/w64/bin/../lib/gcc/x86_64-w64-mingw32/8.1.0/../../../../x86_64-w64-mingw32/lib/../lib/libmsvcrt.a(duagh.o)
 .idata$5       0x0000000000459848        0x8 C:/mingw64/w64/bin/../lib/gcc/x86_64-w64-mingw32/8.1.0/../../../../x86_64-w64-mingw32/lib/../lib/libmsvcrt.a(duags00063.o)
                0x0000000000459848                __imp____lc_codepage_func
 .idata$5       0x0000000000459850        0x8 C:/mingw64/w64/bin/../lib/gcc/x86_64-w64-mingw32/8.1.0/../../../../x86_64-w64-mingw32/lib/../lib/libmsvcrt.a(duags00066.o)
                0x0000000000459850                __imp____mb_cur_max_func
 .idata$5       0x0000000000459858        0x8 C:/mingw64/w64/bin/../lib/gcc/x86_64-w64-mingw32/8.1.0/../../../../x86_64-w64-mingw32/lib/../lib/libmsvcrt.a(duags00069.o)
                0x0000000000459858                __imp___argc
 .idata$5       0x0000000000459860        0x8 C:/mingw64/w64/bin/../lib/gcc/x86_64-w64-mingw32/8.1.0/../../../../x86_64-w64-mingw32/lib/../lib/libmsvcrt.a(duags00070.o)
                0x0000000000459860                __imp___argv
 .idata$5       0x0000000000459868        0x8 C:/mingw64/w64/bin/../lib/gcc/x86_64-w64-mingw32/8.1.0/../../../../x86_64-w64-mingw32/lib/../lib/libmsvcrt.a(duags00081.o)
                0x0000000000459868                __imp___getmainargs
 .idata$5       0x0000000000459870        0x8 C:/mingw64/w64/bin/../lib/gcc/x86_64-w64-mingw32/8.1.0/../../../../x86_64-w64-mingw32/lib/../lib/libmsvcrt.a(duags00082.o)
                0x0000000000459870                __imp___initenv
 .idata$5       0x0000000000459878        0x8 C:/mingw64/w64/bin/../lib/gcc/x86_64-w64-mingw32/8.1.0/../../../../x86_64-w64-mingw32/lib/../lib/libmsvcrt.a(duags00083.o)
                0x0000000000459878                __imp___iob_func
 .idata$5       0x0000000000459880        0x8 C:/mingw64/w64/bin/../lib/gcc/x86_64-w64-mingw32/8.1.0/../../../../x86_64-w64-mingw32/lib/../lib/libmsvcrt.a(duags00090.o)
                0x0000000000459880                __imp___lconv_init
 .idata$5       0x0000000000459888        0x8 C:/mingw64/w64/bin/../lib/gcc/x86_64-w64-mingw32/8.1.0/../../../../x86_64-w64-mingw32/lib/../lib/libmsvcrt.a(duags00096.o)
                0x0000000000459888                __imp___set_app_type
 .idata$5       0x0000000000459890        0x8 C:/mingw64/w64/bin/../lib/gcc/x86_64-w64-mingw32/8.1.0/../../../../x86_64-w64-mingw32/lib/../lib/libmsvcrt.a(duags00098.o)
                0x0000000000459890                __imp___setusermatherr
 .idata$5       0x0000000000459898        0x8 C:/mingw64/w64/bin/../lib/gcc/x86_64-w64-mingw32/8.1.0/../../../../x86_64-w64-mingw32/lib/../lib/libmsvcrt.a(duags00114.o)
                0x0000000000459898                __imp__access
 .idata$5       0x00000000004598a0        0x8 C:/mingw64/w64/bin/../lib/gcc/x86_64-w64-mingw32/8.1.0/../../../../x86_64-w64-mingw32/lib/../lib/libmsvcrt.a(duags00115.o)
                0x00000000004598a0                __imp__acmdln
 .idata$5       0x00000000004598a8        0x8 C:/mingw64/w64/bin/../lib/gcc/x86_64-w64-mingw32/8.1.0/../../../../x86_64-w64-mingw32/lib/../lib/libmsvcrt.a(duags00122.o)
                0x00000000004598a8                __imp__amsg_exit
 .idata$5       0x00000000004598b0        0x8 C:/mingw64/w64/bin/../lib/gcc/x86_64-w64-mingw32/8.1.0/../../../../x86_64-w64-mingw32/lib/../lib/libmsvcrt.a(duags00141.o)
                0x00000000004598b0                __imp__cexit
 .idata$5       0x00000000004598b8        0x8 C:/mingw64/w64/bin/../lib/gcc/x86_64-w64-mingw32/8.1.0/../../../../x86_64-w64-mingw32/lib/../lib/libmsvcrt.a(duags00166.o)
                0x00000000004598b8                __imp_close
 .idata$5       0x00000000004598c0        0x8 C:/mingw64/w64/bin/../lib/gcc/x86_64-w64-mingw32/8.1.0/../../../../x86_64-w64-mingw32/lib/../lib/libmsvcrt.a(duags00203.o)
                0x00000000004598c0                __imp__errno
 .idata$5       0x00000000004598c8        0x8 C:/mingw64/w64/bin/../lib/gcc/x86_64-w64-mingw32/8.1.0/../../../../x86_64-w64-mingw32/lib/../lib/libmsvcrt.a(duags00237.o)
                0x00000000004598c8                __imp__findclose
 .idata$5       0x00000000004598d0        0x8 C:/mingw64/w64/bin/../lib/gcc/x86_64-w64-mingw32/8.1.0/../../../../x86_64-w64-mingw32/lib/../lib/libmsvcrt.a(duags00240.o)
                0x00000000004598d0                __imp__findfirst64
 .idata$5       0x00000000004598d8        0x8 C:/mingw64/w64/bin/../lib/gcc/x86_64-w64-mingw32/8.1.0/../../../../x86_64-w64-mingw32/lib/../lib/libmsvcrt.a(duags00243.o)
                0x00000000004598d8                __imp_fileno
 .idata$5       0x00000000004598e0        0x8 C:/mingw64/w64/bin/../lib/gcc/x86_64-w64-mingw32/8.1.0/../../../../x86_64-w64-mingw32/lib/../lib/libmsvcrt.a(duags00245.o)
                0x00000000004598e0                __imp__findnext64
 .idata$5       0x00000000004598e8        0x8 C:/mingw64/w64/bin/../lib/gcc/x86_64-w64-mingw32/8.1.0/../../../../x86_64-w64-mingw32/lib/../lib/libmsvcrt.a(duags00253.o)
                0x00000000004598e8                __imp__fmode
 .idata$5       0x00000000004598f0        0x8 C:/mingw64/w64/bin/../lib/gcc/x86_64-w64-mingw32/8.1.0/../../../../x86_64-w64-mingw32/lib/../lib/libmsvcrt.a(duags00291.o)
                0x00000000004598f0                __imp__get_osfhandle
 .idata$5       0x00000000004598f8        0x8 C:/mingw64/w64/bin/../lib/gcc/x86_64-w64-mingw32/8.1.0/../../../../x86_64-w64-mingw32/lib/../lib/libmsvcrt.a(duags00301.o)
                0x00000000004598f8                __imp_getcwd
 .idata$5       0x0000000000459900        0x8 C:/mingw64/w64/bin/../lib/gcc/x86_64-w64-mingw32/8.1.0/../../../../x86_64-w64-mingw32/lib/../lib/libmsvcrt.a(duags00332.o)
                0x0000000000459900                __imp__initterm
 .idata$5       0x0000000000459908        0x8 C:/mingw64/w64/bin/../lib/gcc/x86_64-w64-mingw32/8.1.0/../../../../x86_64-w64-mingw32/lib/../lib/libmsvcrt.a(duags00337.o)
                0x0000000000459908                __imp__isatty
 .idata$5       0x0000000000459910        0x8 C:/mingw64/w64/bin/../lib/gcc/x86_64-w64-mingw32/8.1.0/../../../../x86_64-w64-mingw32/lib/../lib/libmsvcrt.a(duags00440.o)
                0x0000000000459910                __imp__localtime64
 .idata$5       0x0000000000459918        0x8 C:/mingw64/w64/bin/../lib/gcc/x86_64-w64-mingw32/8.1.0/../../../../x86_64-w64-mingw32/lib/../lib/libmsvcrt.a(duags00441.o)
                0x0000000000459918                __imp__lock
 .idata$5       0x0000000000459920        0x8 C:/mingw64/w64/bin/../lib/gcc/x86_64-w64-mingw32/8.1.0/../../../../x86_64-w64-mingw32/lib/../lib/libmsvcrt.a(duags00614.o)
                0x0000000000459920                __imp__onexit
 .idata$5       0x0000000000459928        0x8 C:/mingw64/w64/bin/../lib/gcc/x86_64-w64-mingw32/8.1.0/../../../../x86_64-w64-mingw32/lib/../lib/libmsvcrt.a(duags00616.o)
                0x0000000000459928                __imp_open
 .idata$5       0x0000000000459930        0x8 C:/mingw64/w64/bin/../lib/gcc/x86_64-w64-mingw32/8.1.0/../../../../x86_64-w64-mingw32/lib/../lib/libmsvcrt.a(duags00617.o)
                0x0000000000459930                __imp__open_osfhandle
 .idata$5       0x0000000000459938        0x8 C:/mingw64/w64/bin/../lib/gcc/x86_64-w64-mingw32/8.1.0/../../../../x86_64-w64-mingw32/lib/../lib/libmsvcrt.a(duags00634.o)
                0x0000000000459938                __imp_putenv
 .idata$5       0x0000000000459940        0x8 C:/mingw64/w64/bin/../lib/gcc/x86_64-w64-mingw32/8.1.0/../../../../x86_64-w64-mingw32/lib/../lib/libmsvcrt.a(duags00647.o)
                0x0000000000459940                __imp_read
 .idata$5       0x0000000000459948        0x8 C:/mingw64/w64/bin/../lib/gcc/x86_64-w64-mingw32/8.1.0/../../../../x86_64-w64-mingw32/lib/../lib/libmsvcrt.a(duags00723.o)
                0x0000000000459948                __imp__stat64
 .idata$5       0x0000000000459950        0x8 C:/mingw64/w64/bin/../lib/gcc/x86_64-w64-mingw32/8.1.0/../../../../x86_64-w64-mingw32/lib/../lib/libmsvcrt.a(duags00730.o)
                0x0000000000459950                __imp_strdup
 .idata$5       0x0000000000459958        0x8 C:/mingw64/w64/bin/../lib/gcc/x86_64-w64-mingw32/8.1.0/../../../../x86_64-w64-mingw32/lib/../lib/libmsvcrt.a(duags00749.o)
                0x0000000000459958                __imp_strnicmp
 .idata$5       0x0000000000459960        0x8 C:/mingw64/w64/bin/../lib/gcc/x86_64-w64-mingw32/8.1.0/../../../../x86_64-w64-mingw32/lib/../lib/libmsvcrt.a(duags00791.o)
                0x0000000000459960                __imp__time64
 .idata$5       0x0000000000459968        0x8 C:/mingw64/w64/bin/../lib/gcc/x86_64-w64-mingw32/8.1.0/../../../../x86_64-w64-mingw32/lib/../lib/libmsvcrt.a(duags00821.o)
                0x0000000000459968                __imp__unlock
 .idata$5       0x0000000000459970        0x8 C:/mingw64/w64/bin/../lib/gcc/x86_64-w64-mingw32/8.1.0/../../../../x86_64-w64-mingw32/lib/../lib/libmsvcrt.a(duags01032.o)
                0x0000000000459970                __imp_abort
 .idata$5       0x0000000000459978        0x8 C:/mingw64/w64/bin/../lib/gcc/x86_64-w64-mingw32/8.1.0/../../../../x86_64-w64-mingw32/lib/../lib/libmsvcrt.a(duags01050.o)
                0x0000000000459978                __imp_calloc
 .idata$5       0x0000000000459980        0x8 C:/mingw64/w64/bin/../lib/gcc/x86_64-w64-mingw32/8.1.0/../../../../x86_64-w64-mingw32/lib/../lib/libmsvcrt.a(duags01063.o)
                0x0000000000459980                __imp_exit
 .idata$5       0x0000000000459988        0x8 C:/mingw64/w64/bin/../lib/gcc/x86_64-w64-mingw32/8.1.0/../../../../x86_64-w64-mingw32/lib/../lib/libmsvcrt.a(duags01067.o)
                0x0000000000459988                __imp_fclose
 .idata$5       0x0000000000459990        0x8 C:/mingw64/w64/bin/../lib/gcc/x86_64-w64-mingw32/8.1.0/../../../../x86_64-w64-mingw32/lib/../lib/libmsvcrt.a(duags01073.o)
                0x0000000000459990                __imp_fgets
 .idata$5       0x0000000000459998        0x8 C:/mingw64/w64/bin/../lib/gcc/x86_64-w64-mingw32/8.1.0/../../../../x86_64-w64-mingw32/lib/../lib/libmsvcrt.a(duags01080.o)
                0x0000000000459998                __imp_fopen
 .idata$5       0x00000000004599a0        0x8 C:/mingw64/w64/bin/../lib/gcc/x86_64-w64-mingw32/8.1.0/../../../../x86_64-w64-mingw32/lib/../lib/libmsvcrt.a(duags01082.o)
                0x00000000004599a0                __imp_fprintf
 .idata$5       0x00000000004599a8        0x8 C:/mingw64/w64/bin/../lib/gcc/x86_64-w64-mingw32/8.1.0/../../../../x86_64-w64-mingw32/lib/../lib/libmsvcrt.a(duags01084.o)
                0x00000000004599a8                __imp_fputc
 .idata$5       0x00000000004599b0        0x8 C:/mingw64/w64/bin/../lib/gcc/x86_64-w64-mingw32/8.1.0/../../../../x86_64-w64-mingw32/lib/../lib/libmsvcrt.a(duags01085.o)
                0x00000000004599b0                __imp_fputs
 .idata$5       0x00000000004599b8        0x8 C:/mingw64/w64/bin/../lib/gcc/x86_64-w64-mingw32/8.1.0/../../../../x86_64-w64-mingw32/lib/../lib/libmsvcrt.a(duags01088.o)
                0x00000000004599b8                __imp_fread
 .idata$5       0x00000000004599c0        0x8 C:/mingw64/w64/bin/../lib/gcc/x86_64-w64-mingw32/8.1.0/../../../../x86_64-w64-mingw32/lib/../lib/libmsvcrt.a(duags01089.o)
                0x00000000004599c0                __imp_free
 .idata$5       0x00000000004599c8        0x8 C:/mingw64/w64/bin/../lib/gcc/x86_64-w64-mingw32/8.1.0/../../../../x86_64-w64-mingw32/lib/../lib/libmsvcrt.a(duags01101.o)
                0x00000000004599c8                __imp_fwrite
 .idata$5       0x00000000004599d0        0x8 C:/mingw64/w64/bin/../lib/gcc/x86_64-w64-mingw32/8.1.0/../../../../x86_64-w64-mingw32/lib/../lib/libmsvcrt.a(duags01106.o)
                0x00000000004599d0                __imp_getenv
 .idata$5       0x00000000004599d8        0x8 C:/mingw64/w64/bin/../lib/gcc/x86_64-w64-mingw32/8.1.0/../../../../x86_64-w64-mingw32/lib/../lib/libmsvcrt.a(duags01113.o)
                0x00000000004599d8                __imp_isalnum
 .idata$5       0x00000000004599e0        0x8 C:/mingw64/w64/bin/../lib/gcc/x86_64-w64-mingw32/8.1.0/../../../../x86_64-w64-mingw32/lib/../lib/libmsvcrt.a(duags01114.o)
                0x00000000004599e0                __imp_isalpha
 .idata$5       0x00000000004599e8        0x8 C:/mingw64/w64/bin/../lib/gcc/x86_64-w64-mingw32/8.1.0/../../../../x86_64-w64-mingw32/lib/../lib/libmsvcrt.a(duags01121.o)
                0x00000000004599e8                __imp_ispunct
 .idata$5       0x00000000004599f0        0x8 C:/mingw64/w64/bin/../lib/gcc/x86_64-w64-mingw32/8.1.0/../../../../x86_64-w64-mingw32/lib/../lib/libmsvcrt.a(duags01122.o)
                0x00000000004599f0                __imp_isspace
 .idata$5       0x00000000004599f8        0x8 C:/mingw64/w64/bin/../lib/gcc/x86_64-w64-mingw32/8.1.0/../../../../x86_64-w64-mingw32/lib/../lib/libmsvcrt.a(duags01138.o)
                0x00000000004599f8                __imp_isxdigit
 .idata$5       0x0000000000459a00        0x8 C:/mingw64/w64/bin/../lib/gcc/x86_64-w64-mingw32/8.1.0/../../../../x86_64-w64-mingw32/lib/../lib/libmsvcrt.a(duags01142.o)
                0x0000000000459a00                __imp_localeconv
 .idata$5       0x0000000000459a08        0x8 C:/mingw64/w64/bin/../lib/gcc/x86_64-w64-mingw32/8.1.0/../../../../x86_64-w64-mingw32/lib/../lib/libmsvcrt.a(duags01149.o)
                0x0000000000459a08                __imp_malloc
 .idata$5       0x0000000000459a10        0x8 C:/mingw64/w64/bin/../lib/gcc/x86_64-w64-mingw32/8.1.0/../../../../x86_64-w64-mingw32/lib/../lib/libmsvcrt.a(duags01156.o)
                0x0000000000459a10                __imp_memcmp
 .idata$5       0x0000000000459a18        0x8 C:/mingw64/w64/bin/../lib/gcc/x86_64-w64-mingw32/8.1.0/../../../../x86_64-w64-mingw32/lib/../lib/libmsvcrt.a(duags01157.o)
                0x0000000000459a18                __imp_memcpy
 .idata$5       0x0000000000459a20        0x8 C:/mingw64/w64/bin/../lib/gcc/x86_64-w64-mingw32/8.1.0/../../../../x86_64-w64-mingw32/lib/../lib/libmsvcrt.a(duags01158.o)
                0x0000000000459a20                __imp_memmove
 .idata$5       0x0000000000459a28        0x8 C:/mingw64/w64/bin/../lib/gcc/x86_64-w64-mingw32/8.1.0/../../../../x86_64-w64-mingw32/lib/../lib/libmsvcrt.a(duags01159.o)
                0x0000000000459a28                __imp_memset
 .idata$5       0x0000000000459a30        0x8 C:/mingw64/w64/bin/../lib/gcc/x86_64-w64-mingw32/8.1.0/../../../../x86_64-w64-mingw32/lib/../lib/libmsvcrt.a(duags01187.o)
                0x0000000000459a30                __imp_signal
 .idata$5       0x0000000000459a38        0x8 C:/mingw64/w64/bin/../lib/gcc/x86_64-w64-mingw32/8.1.0/../../../../x86_64-w64-mingw32/lib/../lib/libmsvcrt.a(duags01198.o)
                0x0000000000459a38                __imp_strcat
 .idata$5       0x0000000000459a40        0x8 C:/mingw64/w64/bin/../lib/gcc/x86_64-w64-mingw32/8.1.0/../../../../x86_64-w64-mingw32/lib/../lib/libmsvcrt.a(duags01200.o)
                0x0000000000459a40                __imp_strchr
 .idata$5       0x0000000000459a48        0x8 C:/mingw64/w64/bin/../lib/gcc/x86_64-w64-mingw32/8.1.0/../../../../x86_64-w64-mingw32/lib/../lib/libmsvcrt.a(duags01203.o)
                0x0000000000459a48                __imp_strcpy
 .idata$5       0x0000000000459a50        0x8 C:/mingw64/w64/bin/../lib/gcc/x86_64-w64-mingw32/8.1.0/../../../../x86_64-w64-mingw32/lib/../lib/libmsvcrt.a(duags01206.o)
                0x0000000000459a50                __imp_strerror
 .idata$5       0x0000000000459a58        0x8 C:/mingw64/w64/bin/../lib/gcc/x86_64-w64-mingw32/8.1.0/../../../../x86_64-w64-mingw32/lib/../lib/libmsvcrt.a(duags01207.o)
                0x0000000000459a58                __imp_strftime
 .idata$5       0x0000000000459a60        0x8 C:/mingw64/w64/bin/../lib/gcc/x86_64-w64-mingw32/8.1.0/../../../../x86_64-w64-mingw32/lib/../lib/libmsvcrt.a(duags01208.o)
                0x0000000000459a60                __imp_strlen
 .idata$5       0x0000000000459a68        0x8 C:/mingw64/w64/bin/../lib/gcc/x86_64-w64-mingw32/8.1.0/../../../../x86_64-w64-mingw32/lib/../lib/libmsvcrt.a(duags01209.o)
                0x0000000000459a68                __imp_strncat
 .idata$5       0x0000000000459a70        0x8 C:/mingw64/w64/bin/../lib/gcc/x86_64-w64-mingw32/8.1.0/../../../../x86_64-w64-mingw32/lib/../lib/libmsvcrt.a(duags01211.o)
                0x0000000000459a70                __imp_strncmp
 .idata$5       0x0000000000459a78        0x8 C:/mingw64/w64/bin/../lib/gcc/x86_64-w64-mingw32/8.1.0/../../../../x86_64-w64-mingw32/lib/../lib/libmsvcrt.a(duags01212.o)
                0x0000000000459a78                __imp_strncpy
 .idata$5       0x0000000000459a80        0x8 C:/mingw64/w64/bin/../lib/gcc/x86_64-w64-mingw32/8.1.0/../../../../x86_64-w64-mingw32/lib/../lib/libmsvcrt.a(duags01215.o)
                0x0000000000459a80                __imp_strrchr
 .idata$5       0x0000000000459a88        0x8 C:/mingw64/w64/bin/../lib/gcc/x86_64-w64-mingw32/8.1.0/../../../../x86_64-w64-mingw32/lib/../lib/libmsvcrt.a(duags01222.o)
                0x0000000000459a88                __imp_strtol
 .idata$5       0x0000000000459a90        0x8 C:/mingw64/w64/bin/../lib/gcc/x86_64-w64-mingw32/8.1.0/../../../../x86_64-w64-mingw32/lib/../lib/libmsvcrt.a(duags01223.o)
                0x0000000000459a90                __imp_strtoul
 .idata$5       0x0000000000459a98        0x8 C:/mingw64/w64/bin/../lib/gcc/x86_64-w64-mingw32/8.1.0/../../../../x86_64-w64-mingw32/lib/../lib/libmsvcrt.a(duags01235.o)
                0x0000000000459a98                __imp_tmpnam
 .idata$5       0x0000000000459aa0        0x8 C:/mingw64/w64/bin/../lib/gcc/x86_64-w64-mingw32/8.1.0/../../../../x86_64-w64-mingw32/lib/../lib/libmsvcrt.a(duags01237.o)
                0x0000000000459aa0                __imp_tolower
 .idata$5       0x0000000000459aa8        0x8 C:/mingw64/w64/bin/../lib/gcc/x86_64-w64-mingw32/8.1.0/../../../../x86_64-w64-mingw32/lib/../lib/libmsvcrt.a(duags01238.o)
                0x0000000000459aa8                __imp_toupper
 .idata$5       0x0000000000459ab0        0x8 C:/mingw64/w64/bin/../lib/gcc/x86_64-w64-mingw32/8.1.0/../../../../x86_64-w64-mingw32/lib/../lib/libmsvcrt.a(duags01243.o)
                0x0000000000459ab0                __imp_vfprintf
 .idata$5       0x0000000000459ab8        0x8 C:/mingw64/w64/bin/../lib/gcc/x86_64-w64-mingw32/8.1.0/../../../../x86_64-w64-mingw32/lib/../lib/libmsvcrt.a(duags01264.o)
                0x0000000000459ab8                __imp_wcslen
 .idata$5       0x0000000000459ac0        0x8 C:/mingw64/w64/bin/../lib/gcc/x86_64-w64-mingw32/8.1.0/../../../../x86_64-w64-mingw32/lib/../lib/libmsvcrt.a(duagt.o)
 .idata$5       0x0000000000459ac8        0x0 C:/mingw64/w64/bin/../lib/gcc/x86_64-w64-mingw32/8.1.0/libstdc++.dll.a(d000000.o)
 .idata$5       0x0000000000459ac8        0x8 C:/mingw64/w64/bin/../lib/gcc/x86_64-w64-mingw32/8.1.0/libstdc++.dll.a(d000678.o)
                0x0000000000459ac8                __imp__ZNKSt12__basic_fileIcE7is_openEv
 .idata$5       0x0000000000459ad0        0x8 C:/mingw64/w64/bin/../lib/gcc/x86_64-w64-mingw32/8.1.0/libstdc++.dll.a(d000693.o)
                0x0000000000459ad0                __imp__ZNKSt13runtime_error4whatEv
 .idata$5       0x0000000000459ad8        0x8 C:/mingw64/w64/bin/../lib/gcc/x86_64-w64-mingw32/8.1.0/libstdc++.dll.a(d000830.o)
                0x0000000000459ad8                __imp__ZNKSt5ctypeIcE13_M_widen_initEv
 .idata$5       0x0000000000459ae0        0x8 C:/mingw64/w64/bin/../lib/gcc/x86_64-w64-mingw32/8.1.0/libstdc++.dll.a(d000937.o)
                0x0000000000459ae0                __imp__ZNKSt7__cxx1112basic_stringIcSt11char_traitsIcESaIcEE13find_first_ofEPKcyy
 .idata$5       0x0000000000459ae8        0x8 C:/mingw64/w64/bin/../lib/gcc/x86_64-w64-mingw32/8.1.0/libstdc++.dll.a(d000944.o)
                0x0000000000459ae8                __imp__ZNKSt7__cxx1112basic_stringIcSt11char_traitsIcESaIcEE16find_last_not_ofEPKcyy
 .idata$5       0x0000000000459af0        0x8 C:/mingw64/w64/bin/../lib/gcc/x86_64-w64-mingw32/8.1.0/libstdc++.dll.a(d000948.o)
                0x0000000000459af0                __imp__ZNKSt7__cxx1112basic_stringIcSt11char_traitsIcESaIcEE17find_first_not_ofEPKcyy
 .idata$5       0x0000000000459af8        0x8 C:/mingw64/w64/bin/../lib/gcc/x86_64-w64-mingw32/8.1.0/libstdc++.dll.a(d000950.o)
                0x0000000000459af8                __imp__ZNKSt7__cxx1112basic_stringIcSt11char_traitsIcESaIcEE17find_first_not_ofEcy
 .idata$5       0x0000000000459b00        0x8 C:/mingw64/w64/bin/../lib/gcc/x86_64-w64-mingw32/8.1.0/libstdc++.dll.a(d000958.o)
                0x0000000000459b00                __imp__ZNKSt7__cxx1112basic_stringIcSt11char_traitsIcESaIcEE4findEPKcyy
 .idata$5       0x0000000000459b08        0x8 C:/mingw64/w64/bin/../lib/gcc/x86_64-w64-mingw32/8.1.0/libstdc++.dll.a(d000960.o)
                0x0000000000459b08                __imp__ZNKSt7__cxx1112basic_stringIcSt11char_traitsIcESaIcEE4findEcy
 .idata$5       0x0000000000459b10        0x8 C:/mingw64/w64/bin/../lib/gcc/x86_64-w64-mingw32/8.1.0/libstdc++.dll.a(d000971.o)
                0x0000000000459b10                __imp__ZNKSt7__cxx1112basic_stringIcSt11char_traitsIcESaIcEE5rfindEcy
 .idata$5       0x0000000000459b18        0x8 C:/mingw64/w64/bin/../lib/gcc/x86_64-w64-mingw32/8.1.0/libstdc++.dll.a(d000975.o)
                0x0000000000459b18                __imp__ZNKSt7__cxx1112basic_stringIcSt11char_traitsIcESaIcEE6substrEyy
 .idata$5       0x0000000000459b20        0x8 C:/mingw64/w64/bin/../lib/gcc/x86_64-w64-mingw32/8.1.0/libstdc++.dll.a(d000977.o)
                0x0000000000459b20                __imp__ZNKSt7__cxx1112basic_stringIcSt11char_traitsIcESaIcEE7compareEPKc
 .idata$5       0x0000000000459b28        0x8 C:/mingw64/w64/bin/../lib/gcc/x86_64-w64-mingw32/8.1.0/libstdc++.dll.a(d001343.o)
                0x0000000000459b28                __imp__ZNKSt8__detail20_Prime_rehash_policy11_M_next_bktEy
 .idata$5       0x0000000000459b30        0x8 C:/mingw64/w64/bin/../lib/gcc/x86_64-w64-mingw32/8.1.0/libstdc++.dll.a(d001344.o)
                0x0000000000459b30                __imp__ZNKSt8__detail20_Prime_rehash_policy14_M_need_rehashEyyy
 .idata$5       0x0000000000459b38        0x8 C:/mingw64/w64/bin/../lib/gcc/x86_64-w64-mingw32/8.1.0/libstdc++.dll.a(d001664.o)
                0x0000000000459b38                __imp__ZNSi4readEPcx
 .idata$5       0x0000000000459b40        0x8 C:/mingw64/w64/bin/../lib/gcc/x86_64-w64-mingw32/8.1.0/libstdc++.dll.a(d001668.o)
                0x0000000000459b40                __imp__ZNSi5seekgExSt12_Ios_Seekdir
 .idata$5       0x0000000000459b48        0x8 C:/mingw64/w64/bin/../lib/gcc/x86_64-w64-mingw32/8.1.0/libstdc++.dll.a(d001669.o)
                0x0000000000459b48                __imp__ZNSi5tellgEv
 .idata$5       0x0000000000459b50        0x8 C:/mingw64/w64/bin/../lib/gcc/x86_64-w64-mingw32/8.1.0/libstdc++.dll.a(d001707.o)
                0x0000000000459b50                __imp__ZNSo3putEc
 .idata$5       0x0000000000459b58        0x8 C:/mingw64/w64/bin/../lib/gcc/x86_64-w64-mingw32/8.1.0/libstdc++.dll.a(d001709.o)
                0x0000000000459b58                __imp__ZNSo5flushEv
 .idata$5       0x0000000000459b60        0x8 C:/mingw64/w64/bin/../lib/gcc/x86_64-w64-mingw32/8.1.0/libstdc++.dll.a(d001748.o)
                0x0000000000459b60                __imp__ZNSolsEi
 .idata$5       0x0000000000459b68        0x8 C:/mingw64/w64/bin/../lib/gcc/x86_64-w64-mingw32/8.1.0/libstdc++.dll.a(d002047.o)
                0x0000000000459b68                __imp__ZNSt12__basic_fileIcED1Ev
 .idata$5       0x0000000000459b70        0x8 C:/mingw64/w64/bin/../lib/gcc/x86_64-w64-mingw32/8.1.0/libstdc++.dll.a(d002272.o)
                0x0000000000459b70                __imp__ZNSt13basic_filebufIcSt11char_traitsIcEE4openEPKcSt13_Ios_Openmode
 .idata$5       0x0000000000459b78        0x8 C:/mingw64/w64/bin/../lib/gcc/x86_64-w64-mingw32/8.1.0/libstdc++.dll.a(d002277.o)
                0x0000000000459b78                __imp__ZNSt13basic_filebufIcSt11char_traitsIcEE5closeEv
 .idata$5       0x0000000000459b80        0x8 C:/mingw64/w64/bin/../lib/gcc/x86_64-w64-mingw32/8.1.0/libstdc++.dll.a(d002290.o)
                0x0000000000459b80                __imp__ZNSt13basic_filebufIcSt11char_traitsIcEEC1Ev
 .idata$5       0x0000000000459b88        0x8 C:/mingw64/w64/bin/../lib/gcc/x86_64-w64-mingw32/8.1.0/libstdc++.dll.a(d002294.o)
                0x0000000000459b88                __imp__ZNSt13basic_filebufIcSt11char_traitsIcEED1Ev
 .idata$5       0x0000000000459b90        0x8 C:/mingw64/w64/bin/../lib/gcc/x86_64-w64-mingw32/8.1.0/libstdc++.dll.a(d002347.o)
                0x0000000000459b90                __imp__ZNSt13basic_fstreamIcSt11char_traitsIcEED1Ev
 .idata$5       0x0000000000459b98        0x8 C:/mingw64/w64/bin/../lib/gcc/x86_64-w64-mingw32/8.1.0/libstdc++.dll.a(d002489.o)
                0x0000000000459b98                __imp__ZNSt13runtime_errorC1ERKS_
 .idata$5       0x0000000000459ba0        0x8 C:/mingw64/w64/bin/../lib/gcc/x86_64-w64-mingw32/8.1.0/libstdc++.dll.a(d002496.o)
                0x0000000000459ba0                __imp__ZNSt13runtime_errorD1Ev
 .idata$5       0x0000000000459ba8        0x8 C:/mingw64/w64/bin/../lib/gcc/x86_64-w64-mingw32/8.1.0/libstdc++.dll.a(d003694.o)
                0x0000000000459ba8                __imp__ZNSt6localeC1Ev
 .idata$5       0x0000000000459bb0        0x8 C:/mingw64/w64/bin/../lib/gcc/x86_64-w64-mingw32/8.1.0/libstdc++.dll.a(d003701.o)
                0x0000000000459bb0                __imp__ZNSt6localeD1Ev
 .idata$5       0x0000000000459bb8        0x8 C:/mingw64/w64/bin/../lib/gcc/x86_64-w64-mingw32/8.1.0/libstdc++.dll.a(d003763.o)
                0x0000000000459bb8                __imp__ZNSt7__cxx1112basic_stringIcSt11char_traitsIcESaIcEE10_M_replaceEyyPKcy
 .idata$5       0x0000000000459bc0        0x8 C:/mingw64/w64/bin/../lib/gcc/x86_64-w64-mingw32/8.1.0/libstdc++.dll.a(d003782.o)
                0x0000000000459bc0                __imp__ZNSt7__cxx1112basic_stringIcSt11char_traitsIcESaIcEE14_M_replace_auxEyyyc
 .idata$5       0x0000000000459bc8        0x8 C:/mingw64/w64/bin/../lib/gcc/x86_64-w64-mingw32/8.1.0/libstdc++.dll.a(d003790.o)
                0x0000000000459bc8                __imp__ZNSt7__cxx1112basic_stringIcSt11char_traitsIcESaIcEE4swapERS4_
 .idata$5       0x0000000000459bd0        0x8 C:/mingw64/w64/bin/../lib/gcc/x86_64-w64-mingw32/8.1.0/libstdc++.dll.a(d003797.o)
                0x0000000000459bd0                __imp__ZNSt7__cxx1112basic_stringIcSt11char_traitsIcESaIcEE5eraseEyy
 .idata$5       0x0000000000459bd8        0x8 C:/mingw64/w64/bin/../lib/gcc/x86_64-w64-mingw32/8.1.0/libstdc++.dll.a(d003851.o)
                0x0000000000459bd8                __imp__ZNSt7__cxx1112basic_stringIcSt11char_traitsIcESaIcEE7reserveEy
 .idata$5       0x0000000000459be0        0x8 C:/mingw64/w64/bin/../lib/gcc/x86_64-w64-mingw32/8.1.0/libstdc++.dll.a(d003852.o)
                0x0000000000459be0                __imp__ZNSt7__cxx1112basic_stringIcSt11char_traitsIcESaIcEE8_M_eraseEyy
 .idata$5       0x0000000000459be8        0x8 C:/mingw64/w64/bin/../lib/gcc/x86_64-w64-mingw32/8.1.0/libstdc++.dll.a(d003854.o)
                0x0000000000459be8                __imp__ZNSt7__cxx1112basic_stringIcSt11char_traitsIcESaIcEE9_M_appendEPKcy
 .idata$5       0x0000000000459bf0        0x8 C:/mingw64/w64/bin/../lib/gcc/x86_64-w64-mingw32/8.1.0/libstdc++.dll.a(d003855.o)
                0x0000000000459bf0                __imp__ZNSt7__cxx1112basic_stringIcSt11char_traitsIcESaIcEE9_M_assignERKS4_
 .idata$5       0x0000000000459bf8        0x8 C:/mingw64/w64/bin/../lib/gcc/x86_64-w64-mingw32/8.1.0/libstdc++.dll.a(d003856.o)
                0x0000000000459bf8                __imp__ZNSt7__cxx1112basic_stringIcSt11char_traitsIcESaIcEE9_M_createERyy
 .idata$5       0x0000000000459c00        0x8 C:/mingw64/w64/bin/../lib/gcc/x86_64-w64-mingw32/8.1.0/libstdc++.dll.a(d003858.o)
                0x0000000000459c00                __imp__ZNSt7__cxx1112basic_stringIcSt11char_traitsIcESaIcEE9_M_mutateEyyPKcy
 .idata$5       0x0000000000459c08        0x8 C:/mingw64/w64/bin/../lib/gcc/x86_64-w64-mingw32/8.1.0/libstdc++.dll.a(d003895.o)
                0x0000000000459c08                __imp__ZNSt7__cxx1112basic_stringIcSt11char_traitsIcESaIcEEaSEOS4_
 .idata$5       0x0000000000459c10        0x8 C:/mingw64/w64/bin/../lib/gcc/x86_64-w64-mingw32/8.1.0/libstdc++.dll.a(d003998.o)
                0x0000000000459c10                __imp__ZNSt7__cxx1112basic_stringIwSt11char_traitsIwESaIwEE9_M_appendEPKwy
 .idata$5       0x0000000000459c18        0x8 C:/mingw64/w64/bin/../lib/gcc/x86_64-w64-mingw32/8.1.0/libstdc++.dll.a(d004000.o)
                0x0000000000459c18                __imp__ZNSt7__cxx1112basic_stringIwSt11char_traitsIwESaIwEE9_M_createERyy
 .idata$5       0x0000000000459c20        0x8 C:/mingw64/w64/bin/../lib/gcc/x86_64-w64-mingw32/8.1.0/libstdc++.dll.a(d004072.o)
                0x0000000000459c20                __imp__ZNSt7__cxx1115basic_stringbufIcSt11char_traitsIcESaIcEE7_M_syncEPcyy
 .idata$5       0x0000000000459c28        0x8 C:/mingw64/w64/bin/../lib/gcc/x86_64-w64-mingw32/8.1.0/libstdc++.dll.a(d004202.o)
                0x0000000000459c28                __imp__ZNSt7__cxx1118basic_stringstreamIcSt11char_traitsIcESaIcEED1Ev
 .idata$5       0x0000000000459c30        0x8 C:/mingw64/w64/bin/../lib/gcc/x86_64-w64-mingw32/8.1.0/libstdc++.dll.a(d004423.o)
                0x0000000000459c30                __imp__ZNSt8__detail15_List_node_base7_M_hookEPS0_
 .idata$5       0x0000000000459c38        0x8 C:/mingw64/w64/bin/../lib/gcc/x86_64-w64-mingw32/8.1.0/libstdc++.dll.a(d004424.o)
                0x0000000000459c38                __imp__ZNSt8__detail15_List_node_base9_M_unhookEv
 .idata$5       0x0000000000459c40        0x8 C:/mingw64/w64/bin/../lib/gcc/x86_64-w64-mingw32/8.1.0/libstdc++.dll.a(d004448.o)
                0x0000000000459c40                __imp__ZNSt8ios_base4InitC1Ev
 .idata$5       0x0000000000459c48        0x8 C:/mingw64/w64/bin/../lib/gcc/x86_64-w64-mingw32/8.1.0/libstdc++.dll.a(d004450.o)
                0x0000000000459c48                __imp__ZNSt8ios_base4InitD1Ev
 .idata$5       0x0000000000459c50        0x8 C:/mingw64/w64/bin/../lib/gcc/x86_64-w64-mingw32/8.1.0/libstdc++.dll.a(d004490.o)
                0x0000000000459c50                __imp__ZNSt8ios_baseC2Ev
 .idata$5       0x0000000000459c58        0x8 C:/mingw64/w64/bin/../lib/gcc/x86_64-w64-mingw32/8.1.0/libstdc++.dll.a(d004493.o)
                0x0000000000459c58                __imp__ZNSt8ios_baseD2Ev
 .idata$5       0x0000000000459c60        0x8 C:/mingw64/w64/bin/../lib/gcc/x86_64-w64-mingw32/8.1.0/libstdc++.dll.a(d004582.o)
                0x0000000000459c60                __imp__ZNSt9basic_iosIcSt11char_traitsIcEE4initEPSt15basic_streambufIcS1_E
 .idata$5       0x0000000000459c68        0x8 C:/mingw64/w64/bin/../lib/gcc/x86_64-w64-mingw32/8.1.0/libstdc++.dll.a(d004586.o)
                0x0000000000459c68                __imp__ZNSt9basic_iosIcSt11char_traitsIcEE5clearESt12_Ios_Iostate
 .idata$5       0x0000000000459c70        0x8 C:/mingw64/w64/bin/../lib/gcc/x86_64-w64-mingw32/8.1.0/libstdc++.dll.a(d004661.o)
                0x0000000000459c70                __imp__ZSt11_Hash_bytesPKvyy
 .idata$5       0x0000000000459c78        0x8 C:/mingw64/w64/bin/../lib/gcc/x86_64-w64-mingw32/8.1.0/libstdc++.dll.a(d004685.o)
                0x0000000000459c78                __imp__ZSt16__ostream_insertIcSt11char_traitsIcEERSt13basic_ostreamIT_T0_ES6_PKS3_x
 .idata$5       0x0000000000459c80        0x8 C:/mingw64/w64/bin/../lib/gcc/x86_64-w64-mingw32/8.1.0/libstdc++.dll.a(d004687.o)
                0x0000000000459c80                __imp__ZSt16__throw_bad_castv
 .idata$5       0x0000000000459c88        0x8 C:/mingw64/w64/bin/../lib/gcc/x86_64-w64-mingw32/8.1.0/libstdc++.dll.a(d004692.o)
                0x0000000000459c88                __imp__ZSt17__throw_bad_allocv
 .idata$5       0x0000000000459c90        0x8 C:/mingw64/w64/bin/../lib/gcc/x86_64-w64-mingw32/8.1.0/libstdc++.dll.a(d004699.o)
                0x0000000000459c90                __imp__ZSt18_Rb_tree_decrementPSt18_Rb_tree_node_base
 .idata$5       0x0000000000459c98        0x8 C:/mingw64/w64/bin/../lib/gcc/x86_64-w64-mingw32/8.1.0/libstdc++.dll.a(d004700.o)
                0x0000000000459c98                __imp__ZSt18_Rb_tree_incrementPKSt18_Rb_tree_node_base
 .idata$5       0x0000000000459ca0        0x8 C:/mingw64/w64/bin/../lib/gcc/x86_64-w64-mingw32/8.1.0/libstdc++.dll.a(d004701.o)
                0x0000000000459ca0                __imp__ZSt18_Rb_tree_incrementPSt18_Rb_tree_node_base
 .idata$5       0x0000000000459ca8        0x8 C:/mingw64/w64/bin/../lib/gcc/x86_64-w64-mingw32/8.1.0/libstdc++.dll.a(d004705.o)
                0x0000000000459ca8                __imp__ZSt19__throw_logic_errorPKc
 .idata$5       0x0000000000459cb0        0x8 C:/mingw64/w64/bin/../lib/gcc/x86_64-w64-mingw32/8.1.0/libstdc++.dll.a(d004713.o)
                0x0000000000459cb0                __imp__ZSt20__throw_length_errorPKc
 .idata$5       0x0000000000459cb8        0x8 C:/mingw64/w64/bin/../lib/gcc/x86_64-w64-mingw32/8.1.0/libstdc++.dll.a(d004714.o)
                0x0000000000459cb8                __imp__ZSt20__throw_out_of_rangePKc
 .idata$5       0x0000000000459cc0        0x8 C:/mingw64/w64/bin/../lib/gcc/x86_64-w64-mingw32/8.1.0/libstdc++.dll.a(d004727.o)
                0x0000000000459cc0                __imp__ZSt24__throw_invalid_argumentPKc
 .idata$5       0x0000000000459cc8        0x8 C:/mingw64/w64/bin/../lib/gcc/x86_64-w64-mingw32/8.1.0/libstdc++.dll.a(d004728.o)
                0x0000000000459cc8                __imp__ZSt24__throw_out_of_range_fmtPKcz
 .idata$5       0x0000000000459cd0        0x8 C:/mingw64/w64/bin/../lib/gcc/x86_64-w64-mingw32/8.1.0/libstdc++.dll.a(d004729.o)
                0x0000000000459cd0                __imp__ZSt25__throw_bad_function_callv
 .idata$5       0x0000000000459cd8        0x8 C:/mingw64/w64/bin/../lib/gcc/x86_64-w64-mingw32/8.1.0/libstdc++.dll.a(d004732.o)
                0x0000000000459cd8                __imp__ZSt29_Rb_tree_insert_and_rebalancebPSt18_Rb_tree_node_baseS0_RS_
 .idata$5       0x0000000000459ce0        0x8 C:/mingw64/w64/bin/../lib/gcc/x86_64-w64-mingw32/8.1.0/libstdc++.dll.a(d004736.o)
                0x0000000000459ce0                __imp__ZSt4cerr
                0x0000000000459ce0                __imp__ZSt4cerr
 .idata$5       0x0000000000459ce8        0x8 C:/mingw64/w64/bin/../lib/gcc/x86_64-w64-mingw32/8.1.0/libstdc++.dll.a(d004738.o)
                0x0000000000459ce8                __imp__ZSt4cout
                0x0000000000459ce8                __imp__ZSt4cout
 .idata$5       0x0000000000459cf0        0x8 C:/mingw64/w64/bin/../lib/gcc/x86_64-w64-mingw32/8.1.0/libstdc++.dll.a(d004739.o)
                0x0000000000459cf0                __imp__ZSt4endlIcSt11char_traitsIcEERSt13basic_ostreamIT_T0_ES6_
 .idata$5       0x0000000000459cf8        0x8 C:/mingw64/w64/bin/../lib/gcc/x86_64-w64-mingw32/8.1.0/libstdc++.dll.a(d004750.o)
                0x0000000000459cf8                __imp__ZSt7getlineIcSt11char_traitsIcESaIcEERSt13basic_istreamIT_T0_ES7_RNSt7__cxx1112basic_stringIS4_S5_T1_EES4_
 .idata$5       0x0000000000459d00        0x8 C:/mingw64/w64/bin/../lib/gcc/x86_64-w64-mingw32/8.1.0/libstdc++.dll.a(d004847.o)
                0x0000000000459d00                __imp__ZStlsISt11char_traitsIcEERSt13basic_ostreamIcT_ES5_PKc
 .idata$5       0x0000000000459d08        0x8 C:/mingw64/w64/bin/../lib/gcc/x86_64-w64-mingw32/8.1.0/libstdc++.dll.a(d005515.o)
                0x0000000000459d08                __imp__ZTTNSt7__cxx1118basic_stringstreamIcSt11char_traitsIcESaIcEEE
                0x0000000000459d08                __imp__ZTTNSt7__cxx1118basic_stringstreamIcSt11char_traitsIcESaIcEEE
 .idata$5       0x0000000000459d10        0x8 C:/mingw64/w64/bin/../lib/gcc/x86_64-w64-mingw32/8.1.0/libstdc++.dll.a(d005526.o)
                0x0000000000459d10                __imp__ZTTSt13basic_fstreamIcSt11char_traitsIcEE
                0x0000000000459d10                __imp__ZTTSt13basic_fstreamIcSt11char_traitsIcEE
 .idata$5       0x0000000000459d18        0x8 C:/mingw64/w64/bin/../lib/gcc/x86_64-w64-mingw32/8.1.0/libstdc++.dll.a(d005545.o)
                0x0000000000459d18                __imp__ZTVN10__cxxabiv117__class_type_infoE
                0x0000000000459d18                __imp__ZTVN10__cxxabiv117__class_type_infoE
 .idata$5       0x0000000000459d20        0x8 C:/mingw64/w64/bin/../lib/gcc/x86_64-w64-mingw32/8.1.0/libstdc++.dll.a(d005550.o)
                0x0000000000459d20                __imp__ZTVN10__cxxabiv120__si_class_type_infoE
                0x0000000000459d20                __imp__ZTVN10__cxxabiv120__si_class_type_infoE
 .idata$5       0x0000000000459d28        0x8 C:/mingw64/w64/bin/../lib/gcc/x86_64-w64-mingw32/8.1.0/libstdc++.dll.a(d005575.o)
                0x0000000000459d28                __imp__ZTVNSt7__cxx1115basic_stringbufIcSt11char_traitsIcESaIcEEE
                0x0000000000459d28                __imp__ZTVNSt7__cxx1115basic_stringbufIcSt11char_traitsIcESaIcEEE
 .idata$5       0x0000000000459d30        0x8 C:/mingw64/w64/bin/../lib/gcc/x86_64-w64-mingw32/8.1.0/libstdc++.dll.a(d005587.o)
                0x0000000000459d30                __imp__ZTVNSt7__cxx1118basic_stringstreamIcSt11char_traitsIcESaIcEEE
                0x0000000000459d30                __imp__ZTVNSt7__cxx1118basic_stringstreamIcSt11char_traitsIcESaIcEEE
 .idata$5       0x0000000000459d38        0x8 C:/mingw64/w64/bin/../lib/gcc/x86_64-w64-mingw32/8.1.0/libstdc++.dll.a(d005634.o)
                0x0000000000459d38                __imp__ZTVSt13basic_filebufIcSt11char_traitsIcEE
                0x0000000000459d38                __imp__ZTVSt13basic_filebufIcSt11char_traitsIcEE
 .idata$5       0x0000000000459d40        0x8 C:/mingw64/w64/bin/../lib/gcc/x86_64-w64-mingw32/8.1.0/libstdc++.dll.a(d005636.o)
                0x0000000000459d40                __imp__ZTVSt13basic_fstreamIcSt11char_traitsIcEE
                0x0000000000459d40                __imp__ZTVSt13basic_fstreamIcSt11char_traitsIcEE
 .idata$5       0x0000000000459d48        0x8 C:/mingw64/w64/bin/../lib/gcc/x86_64-w64-mingw32/8.1.0/libstdc++.dll.a(d005652.o)
                0x0000000000459d48                __imp__ZTVSt15basic_streambufIcSt11char_traitsIcEE
                0x0000000000459d48                __imp__ZTVSt15basic_streambufIcSt11char_traitsIcEE
 .idata$5       0x0000000000459d50        0x8 C:/mingw64/w64/bin/../lib/gcc/x86_64-w64-mingw32/8.1.0/libstdc++.dll.a(d005727.o)
                0x0000000000459d50                __imp__ZTVSt9basic_iosIcSt11char_traitsIcEE
                0x0000000000459d50                __imp__ZTVSt9basic_iosIcSt11char_traitsIcEE
 .idata$5       0x0000000000459d58        0x8 C:/mingw64/w64/bin/../lib/gcc/x86_64-w64-mingw32/8.1.0/libstdc++.dll.a(d005817.o)
                0x0000000000459d58                __imp__ZdaPv
 .idata$5       0x0000000000459d60        0x8 C:/mingw64/w64/bin/../lib/gcc/x86_64-w64-mingw32/8.1.0/libstdc++.dll.a(d005823.o)
                0x0000000000459d60                __imp__ZdlPv
 .idata$5       0x0000000000459d68        0x8 C:/mingw64/w64/bin/../lib/gcc/x86_64-w64-mingw32/8.1.0/libstdc++.dll.a(d005827.o)
                0x0000000000459d68                __imp__ZdlPvy
 .idata$5       0x0000000000459d70        0x8 C:/mingw64/w64/bin/../lib/gcc/x86_64-w64-mingw32/8.1.0/libstdc++.dll.a(d005829.o)
                0x0000000000459d70                __imp__Znay
 .idata$5       0x0000000000459d78        0x8 C:/mingw64/w64/bin/../lib/gcc/x86_64-w64-mingw32/8.1.0/libstdc++.dll.a(d005833.o)
                0x0000000000459d78                __imp__Znwy
 .idata$5       0x0000000000459d80        0x8 C:/mingw64/w64/bin/../lib/gcc/x86_64-w64-mingw32/8.1.0/libstdc++.dll.a(d005843.o)
                0x0000000000459d80                __imp___cxa_begin_catch
 .idata$5       0x0000000000459d88        0x8 C:/mingw64/w64/bin/../lib/gcc/x86_64-w64-mingw32/8.1.0/libstdc++.dll.a(d005849.o)
                0x0000000000459d88                __imp___cxa_end_catch
 .idata$5       0x0000000000459d90        0x8 C:/mingw64/w64/bin/../lib/gcc/x86_64-w64-mingw32/8.1.0/libstdc++.dll.a(d005852.o)
                0x0000000000459d90                __imp___cxa_get_exception_ptr
 .idata$5       0x0000000000459d98        0x8 C:/mingw64/w64/bin/../lib/gcc/x86_64-w64-mingw32/8.1.0/libstdc++.dll.a(d005855.o)
                0x0000000000459d98                __imp___cxa_guard_abort
 .idata$5       0x0000000000459da0        0x8 C:/mingw64/w64/bin/../lib/gcc/x86_64-w64-mingw32/8.1.0/libstdc++.dll.a(d005856.o)
                0x0000000000459da0                __imp___cxa_guard_acquire
 .idata$5       0x0000000000459da8        0x8 C:/mingw64/w64/bin/../lib/gcc/x86_64-w64-mingw32/8.1.0/libstdc++.dll.a(d005857.o)
                0x0000000000459da8                __imp___cxa_guard_release
 .idata$5       0x0000000000459db0        0x8 C:/mingw64/w64/bin/../lib/gcc/x86_64-w64-mingw32/8.1.0/libstdc++.dll.a(d005860.o)
                0x0000000000459db0                __imp___cxa_rethrow
 .idata$5       0x0000000000459db8        0x8 C:/mingw64/w64/bin/../lib/gcc/x86_64-w64-mingw32/8.1.0/libstdc++.dll.a(d005864.o)
                0x0000000000459db8                __imp___cxa_throw_bad_array_new_length
 .idata$5       0x0000000000459dc0        0x8 C:/mingw64/w64/bin/../lib/gcc/x86_64-w64-mingw32/8.1.0/libstdc++.dll.a(d005880.o)
                0x0000000000459dc0                __imp___gxx_personality_seh0
 .idata$5       0x0000000000459dc8        0x8 C:/mingw64/w64/bin/../lib/gcc/x86_64-w64-mingw32/8.1.0/libstdc++.dll.a(d005884.o)
                0x0000000000459dd0                __IAT_end__ = .
 SORT_BY_NAME(*)(.idata$6)
 .idata$6       0x0000000000459dd0        0xe C:/mingw64/w64/bin/../lib/gcc/x86_64-w64-mingw32/8.1.0/../../../../x86_64-w64-mingw32/lib/../lib/libkernel32.a(dqifs00191.o)
 .idata$6       0x0000000000459dde       0x18 C:/mingw64/w64/bin/../lib/gcc/x86_64-w64-mingw32/8.1.0/../../../../x86_64-w64-mingw32/lib/../lib/libkernel32.a(dqifs00268.o)
 .idata$6       0x0000000000459df6       0x18 C:/mingw64/w64/bin/../lib/gcc/x86_64-w64-mingw32/8.1.0/../../../../x86_64-w64-mingw32/lib/../lib/libkernel32.a(dqifs00304.o)
 .idata$6       0x0000000000459e0e       0x1e C:/mingw64/w64/bin/../lib/gcc/x86_64-w64-mingw32/8.1.0/../../../../x86_64-w64-mingw32/lib/../lib/libkernel32.a(dqifs00514.o)
 .idata$6       0x0000000000459e2c       0x18 C:/mingw64/w64/bin/../lib/gcc/x86_64-w64-mingw32/8.1.0/../../../../x86_64-w64-mingw32/lib/../lib/libkernel32.a(dqifs00528.o)
 .idata$6       0x0000000000459e44       0x14 C:/mingw64/w64/bin/../lib/gcc/x86_64-w64-mingw32/8.1.0/../../../../x86_64-w64-mingw32/lib/../lib/libkernel32.a(dqifs00535.o)
 .idata$6       0x0000000000459e58       0x16 C:/mingw64/w64/bin/../lib/gcc/x86_64-w64-mingw32/8.1.0/../../../../x86_64-w64-mingw32/lib/../lib/libkernel32.a(dqifs00536.o)
 .idata$6       0x0000000000459e6e       0x16 C:/mingw64/w64/bin/../lib/gcc/x86_64-w64-mingw32/8.1.0/../../../../x86_64-w64-mingw32/lib/../lib/libkernel32.a(dqifs00540.o)
 .idata$6       0x0000000000459e84       0x16 C:/mingw64/w64/bin/../lib/gcc/x86_64-w64-mingw32/8.1.0/../../../../x86_64-w64-mingw32/lib/../lib/libkernel32.a(dqifs00578.o)
 .idata$6       0x0000000000459e9a       0x10 C:/mingw64/w64/bin/../lib/gcc/x86_64-w64-mingw32/8.1.0/../../../../x86_64-w64-mingw32/lib/../lib/libkernel32.a(dqifs00609.o)
 .idata$6       0x0000000000459eaa       0x16 C:/mingw64/w64/bin/../lib/gcc/x86_64-w64-mingw32/8.1.0/../../../../x86_64-w64-mingw32/lib/../lib/libkernel32.a(dqifs00628.o)
 .idata$6       0x0000000000459ec0       0x12 C:/mingw64/w64/bin/../lib/gcc/x86_64-w64-mingw32/8.1.0/../../../../x86_64-w64-mingw32/lib/../lib/libkernel32.a(dqifs00721.o)
 .idata$6       0x0000000000459ed2       0x10 C:/mingw64/w64/bin/../lib/gcc/x86_64-w64-mingw32/8.1.0/../../../../x86_64-w64-mingw32/lib/../lib/libkernel32.a(dqifs00724.o)
 .idata$6       0x0000000000459ee2       0x1a C:/mingw64/w64/bin/../lib/gcc/x86_64-w64-mingw32/8.1.0/../../../../x86_64-w64-mingw32/lib/../lib/libkernel32.a(dqifs00746.o)
 .idata$6       0x0000000000459efc       0x10 C:/mingw64/w64/bin/../lib/gcc/x86_64-w64-mingw32/8.1.0/../../../../x86_64-w64-mingw32/lib/../lib/libkernel32.a(dqifs00774.o)
 .idata$6       0x0000000000459f0c       0x1c C:/mingw64/w64/bin/../lib/gcc/x86_64-w64-mingw32/8.1.0/../../../../x86_64-w64-mingw32/lib/../lib/libkernel32.a(dqifs00863.o)
 .idata$6       0x0000000000459f28       0x14 C:/mingw64/w64/bin/../lib/gcc/x86_64-w64-mingw32/8.1.0/../../../../x86_64-w64-mingw32/lib/../lib/libkernel32.a(dqifs00889.o)
 .idata$6       0x0000000000459f3c       0x18 C:/mingw64/w64/bin/../lib/gcc/x86_64-w64-mingw32/8.1.0/../../../../x86_64-w64-mingw32/lib/../lib/libkernel32.a(dqifs00951.o)
 .idata$6       0x0000000000459f54       0x16 C:/mingw64/w64/bin/../lib/gcc/x86_64-w64-mingw32/8.1.0/../../../../x86_64-w64-mingw32/lib/../lib/libkernel32.a(dqifs00999.o)
 .idata$6       0x0000000000459f6a       0x10 C:/mingw64/w64/bin/../lib/gcc/x86_64-w64-mingw32/8.1.0/../../../../x86_64-w64-mingw32/lib/../lib/libkernel32.a(dqifs01051.o)
 .idata$6       0x0000000000459f7a       0x1a C:/mingw64/w64/bin/../lib/gcc/x86_64-w64-mingw32/8.1.0/../../../../x86_64-w64-mingw32/lib/../lib/libkernel32.a(dqifs01093.o)
 .idata$6       0x0000000000459f94       0x12 C:/mingw64/w64/bin/../lib/gcc/x86_64-w64-mingw32/8.1.0/../../../../x86_64-w64-mingw32/lib/../lib/libkernel32.a(dqifs01112.o)
 .idata$6       0x0000000000459fa6        0xc C:/mingw64/w64/bin/../lib/gcc/x86_64-w64-mingw32/8.1.0/../../../../x86_64-w64-mingw32/lib/../lib/libkernel32.a(dqifs01128.o)
 .idata$6       0x0000000000459fb2       0x16 C:/mingw64/w64/bin/../lib/gcc/x86_64-w64-mingw32/8.1.0/../../../../x86_64-w64-mingw32/lib/../lib/libkernel32.a(dqifs01179.o)
 .idata$6       0x0000000000459fc8       0x14 C:/mingw64/w64/bin/../lib/gcc/x86_64-w64-mingw32/8.1.0/../../../../x86_64-w64-mingw32/lib/../lib/libkernel32.a(dqifs01180.o)
 .idata$6       0x0000000000459fdc       0x1a C:/mingw64/w64/bin/../lib/gcc/x86_64-w64-mingw32/8.1.0/../../../../x86_64-w64-mingw32/lib/../lib/libkernel32.a(dqifs01187.o)
 .idata$6       0x0000000000459ff6        0xe C:/mingw64/w64/bin/../lib/gcc/x86_64-w64-mingw32/8.1.0/../../../../x86_64-w64-mingw32/lib/../lib/libkernel32.a(dqifs01193.o)
 .idata$6       0x000000000045a004       0x14 C:/mingw64/w64/bin/../lib/gcc/x86_64-w64-mingw32/8.1.0/../../../../x86_64-w64-mingw32/lib/../lib/libkernel32.a(dqifs01194.o)
 .idata$6       0x000000000045a018       0x1e C:/mingw64/w64/bin/../lib/gcc/x86_64-w64-mingw32/8.1.0/../../../../x86_64-w64-mingw32/lib/../lib/libkernel32.a(dqifs01346.o)
 .idata$6       0x000000000045a036        0x8 C:/mingw64/w64/bin/../lib/gcc/x86_64-w64-mingw32/8.1.0/../../../../x86_64-w64-mingw32/lib/../lib/libkernel32.a(dqifs01360.o)
 .idata$6       0x000000000045a03e       0x14 C:/mingw64/w64/bin/../lib/gcc/x86_64-w64-mingw32/8.1.0/../../../../x86_64-w64-mingw32/lib/../lib/libkernel32.a(dqifs01375.o)
 .idata$6       0x000000000045a052        0xe C:/mingw64/w64/bin/../lib/gcc/x86_64-w64-mingw32/8.1.0/../../../../x86_64-w64-mingw32/lib/../lib/libkernel32.a(dqifs01395.o)
 .idata$6       0x000000000045a060       0x1c C:/mingw64/w64/bin/../lib/gcc/x86_64-w64-mingw32/8.1.0/../../../../x86_64-w64-mingw32/lib/../lib/libkernel32.a(dqifs01409.o)
 .idata$6       0x000000000045a07c       0x12 C:/mingw64/w64/bin/../lib/gcc/x86_64-w64-mingw32/8.1.0/../../../../x86_64-w64-mingw32/lib/../lib/libkernel32.a(dqifs01443.o)
 .idata$6       0x000000000045a08e       0x10 C:/mingw64/w64/bin/../lib/gcc/x86_64-w64-mingw32/8.1.0/../../../../x86_64-w64-mingw32/lib/../lib/libkernel32.a(dqifs01445.o)
 .idata$6       0x000000000045a09e       0x16 C:/mingw64/w64/bin/../lib/gcc/x86_64-w64-mingw32/8.1.0/../../../../x86_64-w64-mingw32/lib/../lib/libkernel32.a(dqifs01490.o)
 .idata$6       0x000000000045a0b4        0xc C:/mingw64/w64/bin/../lib/gcc/x86_64-w64-mingw32/8.1.0/../../../../x86_64-w64-mingw32/lib/../lib/libkernel32.a(dqifs01510.o)
 .idata$6       0x000000000045a0c0       0x18 C:/mingw64/w64/bin/../lib/gcc/x86_64-w64-mingw32/8.1.0/../../../../x86_64-w64-mingw32/lib/../lib/libkernel32.a(dqifs01527.o)
 .idata$6       0x000000000045a0d8       0x16 C:/mingw64/w64/bin/../lib/gcc/x86_64-w64-mingw32/8.1.0/../../../../x86_64-w64-mingw32/lib/../lib/libmsvcrt.a(duags00063.o)
 .idata$6       0x000000000045a0ee       0x16 C:/mingw64/w64/bin/../lib/gcc/x86_64-w64-mingw32/8.1.0/../../../../x86_64-w64-mingw32/lib/../lib/libmsvcrt.a(duags00066.o)
 .idata$6       0x000000000045a104        0xa C:/mingw64/w64/bin/../lib/gcc/x86_64-w64-mingw32/8.1.0/../../../../x86_64-w64-mingw32/lib/../lib/libmsvcrt.a(duags00069.o)
 .idata$6       0x000000000045a10e        0xa C:/mingw64/w64/bin/../lib/gcc/x86_64-w64-mingw32/8.1.0/../../../../x86_64-w64-mingw32/lib/../lib/libmsvcrt.a(duags00070.o)
 .idata$6       0x000000000045a118       0x10 C:/mingw64/w64/bin/../lib/gcc/x86_64-w64-mingw32/8.1.0/../../../../x86_64-w64-mingw32/lib/../lib/libmsvcrt.a(duags00081.o)
 .idata$6       0x000000000045a128        0xc C:/mingw64/w64/bin/../lib/gcc/x86_64-w64-mingw32/8.1.0/../../../../x86_64-w64-mingw32/lib/../lib/libmsvcrt.a(duags00082.o)
 .idata$6       0x000000000045a134        0xe C:/mingw64/w64/bin/../lib/gcc/x86_64-w64-mingw32/8.1.0/../../../../x86_64-w64-mingw32/lib/../lib/libmsvcrt.a(duags00083.o)
 .idata$6       0x000000000045a142       0x10 C:/mingw64/w64/bin/../lib/gcc/x86_64-w64-mingw32/8.1.0/../../../../x86_64-w64-mingw32/lib/../lib/libmsvcrt.a(duags00090.o)
 .idata$6       0x000000000045a152       0x12 C:/mingw64/w64/bin/../lib/gcc/x86_64-w64-mingw32/8.1.0/../../../../x86_64-w64-mingw32/lib/../lib/libmsvcrt.a(duags00096.o)
 .idata$6       0x000000000045a164       0x14 C:/mingw64/w64/bin/../lib/gcc/x86_64-w64-mingw32/8.1.0/../../../../x86_64-w64-mingw32/lib/../lib/libmsvcrt.a(duags00098.o)
 .idata$6       0x000000000045a178        0xa C:/mingw64/w64/bin/../lib/gcc/x86_64-w64-mingw32/8.1.0/../../../../x86_64-w64-mingw32/lib/../lib/libmsvcrt.a(duags00114.o)
 .idata$6       0x000000000045a182        0xa C:/mingw64/w64/bin/../lib/gcc/x86_64-w64-mingw32/8.1.0/../../../../x86_64-w64-mingw32/lib/../lib/libmsvcrt.a(duags00115.o)
 .idata$6       0x000000000045a18c        0xe C:/mingw64/w64/bin/../lib/gcc/x86_64-w64-mingw32/8.1.0/../../../../x86_64-w64-mingw32/lib/../lib/libmsvcrt.a(duags00122.o)
 .idata$6       0x000000000045a19a        0xa C:/mingw64/w64/bin/../lib/gcc/x86_64-w64-mingw32/8.1.0/../../../../x86_64-w64-mingw32/lib/../lib/libmsvcrt.a(duags00141.o)
 .idata$6       0x000000000045a1a4        0xa C:/mingw64/w64/bin/../lib/gcc/x86_64-w64-mingw32/8.1.0/../../../../x86_64-w64-mingw32/lib/../lib/libmsvcrt.a(duags00166.o)
 .idata$6       0x000000000045a1ae        0xa C:/mingw64/w64/bin/../lib/gcc/x86_64-w64-mingw32/8.1.0/../../../../x86_64-w64-mingw32/lib/../lib/libmsvcrt.a(duags00203.o)
 .idata$6       0x000000000045a1b8        0xe C:/mingw64/w64/bin/../lib/gcc/x86_64-w64-mingw32/8.1.0/../../../../x86_64-w64-mingw32/lib/../lib/libmsvcrt.a(duags00237.o)
 .idata$6       0x000000000045a1c6       0x10 C:/mingw64/w64/bin/../lib/gcc/x86_64-w64-mingw32/8.1.0/../../../../x86_64-w64-mingw32/lib/../lib/libmsvcrt.a(duags00240.o)
 .idata$6       0x000000000045a1d6        0xa C:/mingw64/w64/bin/../lib/gcc/x86_64-w64-mingw32/8.1.0/../../../../x86_64-w64-mingw32/lib/../lib/libmsvcrt.a(duags00243.o)
 .idata$6       0x000000000045a1e0        0xe C:/mingw64/w64/bin/../lib/gcc/x86_64-w64-mingw32/8.1.0/../../../../x86_64-w64-mingw32/lib/../lib/libmsvcrt.a(duags00245.o)
 .idata$6       0x000000000045a1ee        0xa C:/mingw64/w64/bin/../lib/gcc/x86_64-w64-mingw32/8.1.0/../../../../x86_64-w64-mingw32/lib/../lib/libmsvcrt.a(duags00253.o)
 .idata$6       0x000000000045a1f8       0x12 C:/mingw64/w64/bin/../lib/gcc/x86_64-w64-mingw32/8.1.0/../../../../x86_64-w64-mingw32/lib/../lib/libmsvcrt.a(duags00291.o)
 .idata$6       0x000000000045a20a        0xa C:/mingw64/w64/bin/../lib/gcc/x86_64-w64-mingw32/8.1.0/../../../../x86_64-w64-mingw32/lib/../lib/libmsvcrt.a(duags00301.o)
 .idata$6       0x000000000045a214        0xc C:/mingw64/w64/bin/../lib/gcc/x86_64-w64-mingw32/8.1.0/../../../../x86_64-w64-mingw32/lib/../lib/libmsvcrt.a(duags00332.o)
 .idata$6       0x000000000045a220        0xa C:/mingw64/w64/bin/../lib/gcc/x86_64-w64-mingw32/8.1.0/../../../../x86_64-w64-mingw32/lib/../lib/libmsvcrt.a(duags00337.o)
 .idata$6       0x000000000045a22a       0x10 C:/mingw64/w64/bin/../lib/gcc/x86_64-w64-mingw32/8.1.0/../../../../x86_64-w64-mingw32/lib/../lib/libmsvcrt.a(duags00440.o)
 .idata$6       0x000000000045a23a        0x8 C:/mingw64/w64/bin/../lib/gcc/x86_64-w64-mingw32/8.1.0/../../../../x86_64-w64-mingw32/lib/../lib/libmsvcrt.a(duags00441.o)
 .idata$6       0x000000000045a242        0xa C:/mingw64/w64/bin/../lib/gcc/x86_64-w64-mingw32/8.1.0/../../../../x86_64-w64-mingw32/lib/../lib/libmsvcrt.a(duags00614.o)
 .idata$6       0x000000000045a24c        0x8 C:/mingw64/w64/bin/../lib/gcc/x86_64-w64-mingw32/8.1.0/../../../../x86_64-w64-mingw32/lib/../lib/libmsvcrt.a(duags00616.o)
 .idata$6       0x000000000045a254       0x12 C:/mingw64/w64/bin/../lib/gcc/x86_64-w64-mingw32/8.1.0/../../../../x86_64-w64-mingw32/lib/../lib/libmsvcrt.a(duags00617.o)
 .idata$6       0x000000000045a266        0xa C:/mingw64/w64/bin/../lib/gcc/x86_64-w64-mingw32/8.1.0/../../../../x86_64-w64-mingw32/lib/../lib/libmsvcrt.a(duags00634.o)
 .idata$6       0x000000000045a270        0x8 C:/mingw64/w64/bin/../lib/gcc/x86_64-w64-mingw32/8.1.0/../../../../x86_64-w64-mingw32/lib/../lib/libmsvcrt.a(duags00647.o)
 .idata$6       0x000000000045a278        0xa C:/mingw64/w64/bin/../lib/gcc/x86_64-w64-mingw32/8.1.0/../../../../x86_64-w64-mingw32/lib/../lib/libmsvcrt.a(duags00723.o)
 .idata$6       0x000000000045a282        0xa C:/mingw64/w64/bin/../lib/gcc/x86_64-w64-mingw32/8.1.0/../../../../x86_64-w64-mingw32/lib/../lib/libmsvcrt.a(duags00730.o)
 .idata$6       0x000000000045a28c        0xc C:/mingw64/w64/bin/../lib/gcc/x86_64-w64-mingw32/8.1.0/../../../../x86_64-w64-mingw32/lib/../lib/libmsvcrt.a(duags00749.o)
 .idata$6       0x000000000045a298        0xa C:/mingw64/w64/bin/../lib/gcc/x86_64-w64-mingw32/8.1.0/../../../../x86_64-w64-mingw32/lib/../lib/libmsvcrt.a(duags00791.o)
 .idata$6       0x000000000045a2a2        0xa C:/mingw64/w64/bin/../lib/gcc/x86_64-w64-mingw32/8.1.0/../../../../x86_64-w64-mingw32/lib/../lib/libmsvcrt.a(duags00821.o)
 .idata$6       0x000000000045a2ac        0x8 C:/mingw64/w64/bin/../lib/gcc/x86_64-w64-mingw32/8.1.0/../../../../x86_64-w64-mingw32/lib/../lib/libmsvcrt.a(duags01032.o)
 .idata$6       0x000000000045a2b4        0xa C:/mingw64/w64/bin/../lib/gcc/x86_64-w64-mingw32/8.1.0/../../../../x86_64-w64-mingw32/lib/../lib/libmsvcrt.a(duags01050.o)
 .idata$6       0x000000000045a2be        0x8 C:/mingw64/w64/bin/../lib/gcc/x86_64-w64-mingw32/8.1.0/../../../../x86_64-w64-mingw32/lib/../lib/libmsvcrt.a(duags01063.o)
 .idata$6       0x000000000045a2c6        0xa C:/mingw64/w64/bin/../lib/gcc/x86_64-w64-mingw32/8.1.0/../../../../x86_64-w64-mingw32/lib/../lib/libmsvcrt.a(duags01067.o)
 .idata$6       0x000000000045a2d0        0x8 C:/mingw64/w64/bin/../lib/gcc/x86_64-w64-mingw32/8.1.0/../../../../x86_64-w64-mingw32/lib/../lib/libmsvcrt.a(duags01073.o)
 .idata$6       0x000000000045a2d8        0x8 C:/mingw64/w64/bin/../lib/gcc/x86_64-w64-mingw32/8.1.0/../../../../x86_64-w64-mingw32/lib/../lib/libmsvcrt.a(duags01080.o)
 .idata$6       0x000000000045a2e0        0xa C:/mingw64/w64/bin/../lib/gcc/x86_64-w64-mingw32/8.1.0/../../../../x86_64-w64-mingw32/lib/../lib/libmsvcrt.a(duags01082.o)
 .idata$6       0x000000000045a2ea        0x8 C:/mingw64/w64/bin/../lib/gcc/x86_64-w64-mingw32/8.1.0/../../../../x86_64-w64-mingw32/lib/../lib/libmsvcrt.a(duags01084.o)
 .idata$6       0x000000000045a2f2        0x8 C:/mingw64/w64/bin/../lib/gcc/x86_64-w64-mingw32/8.1.0/../../../../x86_64-w64-mingw32/lib/../lib/libmsvcrt.a(duags01085.o)
 .idata$6       0x000000000045a2fa        0x8 C:/mingw64/w64/bin/../lib/gcc/x86_64-w64-mingw32/8.1.0/../../../../x86_64-w64-mingw32/lib/../lib/libmsvcrt.a(duags01088.o)
 .idata$6       0x000000000045a302        0x8 C:/mingw64/w64/bin/../lib/gcc/x86_64-w64-mingw32/8.1.0/../../../../x86_64-w64-mingw32/lib/../lib/libmsvcrt.a(duags01089.o)
 .idata$6       0x000000000045a30a        0xa C:/mingw64/w64/bin/../lib/gcc/x86_64-w64-mingw32/8.1.0/../../../../x86_64-w64-mingw32/lib/../lib/libmsvcrt.a(duags01101.o)
 .idata$6       0x000000000045a314        0xa C:/mingw64/w64/bin/../lib/gcc/x86_64-w64-mingw32/8.1.0/../../../../x86_64-w64-mingw32/lib/../lib/libmsvcrt.a(duags01106.o)
 .idata$6       0x000000000045a31e        0xa C:/mingw64/w64/bin/../lib/gcc/x86_64-w64-mingw32/8.1.0/../../../../x86_64-w64-mingw32/lib/../lib/libmsvcrt.a(duags01113.o)
 .idata$6       0x000000000045a328        0xa C:/mingw64/w64/bin/../lib/gcc/x86_64-w64-mingw32/8.1.0/../../../../x86_64-w64-mingw32/lib/../lib/libmsvcrt.a(duags01114.o)
 .idata$6       0x000000000045a332        0xa C:/mingw64/w64/bin/../lib/gcc/x86_64-w64-mingw32/8.1.0/../../../../x86_64-w64-mingw32/lib/../lib/libmsvcrt.a(duags01121.o)
 .idata$6       0x000000000045a33c        0xa C:/mingw64/w64/bin/../lib/gcc/x86_64-w64-mingw32/8.1.0/../../../../x86_64-w64-mingw32/lib/../lib/libmsvcrt.a(duags01122.o)
 .idata$6       0x000000000045a346        0xc C:/mingw64/w64/bin/../lib/gcc/x86_64-w64-mingw32/8.1.0/../../../../x86_64-w64-mingw32/lib/../lib/libmsvcrt.a(duags01138.o)
 .idata$6       0x000000000045a352        0xe C:/mingw64/w64/bin/../lib/gcc/x86_64-w64-mingw32/8.1.0/../../../../x86_64-w64-mingw32/lib/../lib/libmsvcrt.a(duags01142.o)
 .idata$6       0x000000000045a360        0xa C:/mingw64/w64/bin/../lib/gcc/x86_64-w64-mingw32/8.1.0/../../../../x86_64-w64-mingw32/lib/../lib/libmsvcrt.a(duags01149.o)
 .idata$6       0x000000000045a36a        0xa C:/mingw64/w64/bin/../lib/gcc/x86_64-w64-mingw32/8.1.0/../../../../x86_64-w64-mingw32/lib/../lib/libmsvcrt.a(duags01156.o)
 .idata$6       0x000000000045a374        0xa C:/mingw64/w64/bin/../lib/gcc/x86_64-w64-mingw32/8.1.0/../../../../x86_64-w64-mingw32/lib/../lib/libmsvcrt.a(duags01157.o)
 .idata$6       0x000000000045a37e        0xa C:/mingw64/w64/bin/../lib/gcc/x86_64-w64-mingw32/8.1.0/../../../../x86_64-w64-mingw32/lib/../lib/libmsvcrt.a(duags01158.o)
 .idata$6       0x000000000045a388        0xa C:/mingw64/w64/bin/../lib/gcc/x86_64-w64-mingw32/8.1.0/../../../../x86_64-w64-mingw32/lib/../lib/libmsvcrt.a(duags01159.o)
 .idata$6       0x000000000045a392        0xa C:/mingw64/w64/bin/../lib/gcc/x86_64-w64-mingw32/8.1.0/../../../../x86_64-w64-mingw32/lib/../lib/libmsvcrt.a(duags01187.o)
 .idata$6       0x000000000045a39c        0xa C:/mingw64/w64/bin/../lib/gcc/x86_64-w64-mingw32/8.1.0/../../../../x86_64-w64-mingw32/lib/../lib/libmsvcrt.a(duags01198.o)
 .idata$6       0x000000000045a3a6        0xa C:/mingw64/w64/bin/../lib/gcc/x86_64-w64-mingw32/8.1.0/../../../../x86_64-w64-mingw32/lib/../lib/libmsvcrt.a(duags01200.o)
 .idata$6       0x000000000045a3b0        0xa C:/mingw64/w64/bin/../lib/gcc/x86_64-w64-mingw32/8.1.0/../../../../x86_64-w64-mingw32/lib/../lib/libmsvcrt.a(duags01203.o)
 .idata$6       0x000000000045a3ba        0xc C:/mingw64/w64/bin/../lib/gcc/x86_64-w64-mingw32/8.1.0/../../../../x86_64-w64-mingw32/lib/../lib/libmsvcrt.a(duags01206.o)
 .idata$6       0x000000000045a3c6        0xc C:/mingw64/w64/bin/../lib/gcc/x86_64-w64-mingw32/8.1.0/../../../../x86_64-w64-mingw32/lib/../lib/libmsvcrt.a(duags01207.o)
 .idata$6       0x000000000045a3d2        0xa C:/mingw64/w64/bin/../lib/gcc/x86_64-w64-mingw32/8.1.0/../../../../x86_64-w64-mingw32/lib/../lib/libmsvcrt.a(duags01208.o)
 .idata$6       0x000000000045a3dc        0xa C:/mingw64/w64/bin/../lib/gcc/x86_64-w64-mingw32/8.1.0/../../../../x86_64-w64-mingw32/lib/../lib/libmsvcrt.a(duags01209.o)
 .idata$6       0x000000000045a3e6        0xa C:/mingw64/w64/bin/../lib/gcc/x86_64-w64-mingw32/8.1.0/../../../../x86_64-w64-mingw32/lib/../lib/libmsvcrt.a(duags01211.o)
 .idata$6       0x000000000045a3f0        0xa C:/mingw64/w64/bin/../lib/gcc/x86_64-w64-mingw32/8.1.0/../../../../x86_64-w64-mingw32/lib/../lib/libmsvcrt.a(duags01212.o)
 .idata$6       0x000000000045a3fa        0xa C:/mingw64/w64/bin/../lib/gcc/x86_64-w64-mingw32/8.1.0/../../../../x86_64-w64-mingw32/lib/../lib/libmsvcrt.a(duags01215.o)
 .idata$6       0x000000000045a404        0xa C:/mingw64/w64/bin/../lib/gcc/x86_64-w64-mingw32/8.1.0/../../../../x86_64-w64-mingw32/lib/../lib/libmsvcrt.a(duags01222.o)
 .idata$6       0x000000000045a40e        0xa C:/mingw64/w64/bin/../lib/gcc/x86_64-w64-mingw32/8.1.0/../../../../x86_64-w64-mingw32/lib/../lib/libmsvcrt.a(duags01223.o)
 .idata$6       0x000000000045a418        0xa C:/mingw64/w64/bin/../lib/gcc/x86_64-w64-mingw32/8.1.0/../../../../x86_64-w64-mingw32/lib/../lib/libmsvcrt.a(duags01235.o)
 .idata$6       0x000000000045a422        0xa C:/mingw64/w64/bin/../lib/gcc/x86_64-w64-mingw32/8.1.0/../../../../x86_64-w64-mingw32/lib/../lib/libmsvcrt.a(duags01237.o)
 .idata$6       0x000000000045a42c        0xa C:/mingw64/w64/bin/../lib/gcc/x86_64-w64-mingw32/8.1.0/../../../../x86_64-w64-mingw32/lib/../lib/libmsvcrt.a(duags01238.o)
 .idata$6       0x000000000045a436        0xc C:/mingw64/w64/bin/../lib/gcc/x86_64-w64-mingw32/8.1.0/../../../../x86_64-w64-mingw32/lib/../lib/libmsvcrt.a(duags01243.o)
 .idata$6       0x000000000045a442        0xa C:/mingw64/w64/bin/../lib/gcc/x86_64-w64-mingw32/8.1.0/../../../../x86_64-w64-mingw32/lib/../lib/libmsvcrt.a(duags01264.o)
 .idata$6       0x000000000045a44c       0x24 C:/mingw64/w64/bin/../lib/gcc/x86_64-w64-mingw32/8.1.0/libstdc++.dll.a(d000678.o)
 .idata$6       0x000000000045a470       0x20 C:/mingw64/w64/bin/../lib/gcc/x86_64-w64-mingw32/8.1.0/libstdc++.dll.a(d000693.o)
 .idata$6       0x000000000045a490       0x24 C:/mingw64/w64/bin/../lib/gcc/x86_64-w64-mingw32/8.1.0/libstdc++.dll.a(d000830.o)
 .idata$6       0x000000000045a4b4       0x50 C:/mingw64/w64/bin/../lib/gcc/x86_64-w64-mingw32/8.1.0/libstdc++.dll.a(d000937.o)
 .idata$6       0x000000000045a504       0x54 C:/mingw64/w64/bin/../lib/gcc/x86_64-w64-mingw32/8.1.0/libstdc++.dll.a(d000944.o)
 .idata$6       0x000000000045a558       0x54 C:/mingw64/w64/bin/../lib/gcc/x86_64-w64-mingw32/8.1.0/libstdc++.dll.a(d000948.o)
 .idata$6       0x000000000045a5ac       0x50 C:/mingw64/w64/bin/../lib/gcc/x86_64-w64-mingw32/8.1.0/libstdc++.dll.a(d000950.o)
 .idata$6       0x000000000045a5fc       0x44 C:/mingw64/w64/bin/../lib/gcc/x86_64-w64-mingw32/8.1.0/libstdc++.dll.a(d000958.o)
 .idata$6       0x000000000045a640       0x44 C:/mingw64/w64/bin/../lib/gcc/x86_64-w64-mingw32/8.1.0/libstdc++.dll.a(d000960.o)
 .idata$6       0x000000000045a684       0x44 C:/mingw64/w64/bin/../lib/gcc/x86_64-w64-mingw32/8.1.0/libstdc++.dll.a(d000971.o)
 .idata$6       0x000000000045a6c8       0x44 C:/mingw64/w64/bin/../lib/gcc/x86_64-w64-mingw32/8.1.0/libstdc++.dll.a(d000975.o)
 .idata$6       0x000000000045a70c       0x48 C:/mingw64/w64/bin/../lib/gcc/x86_64-w64-mingw32/8.1.0/libstdc++.dll.a(d000977.o)
 .idata$6       0x000000000045a754       0x38 C:/mingw64/w64/bin/../lib/gcc/x86_64-w64-mingw32/8.1.0/libstdc++.dll.a(d001343.o)
 .idata$6       0x000000000045a78c       0x3c C:/mingw64/w64/bin/../lib/gcc/x86_64-w64-mingw32/8.1.0/libstdc++.dll.a(d001344.o)
 .idata$6       0x000000000045a7c8       0x14 C:/mingw64/w64/bin/../lib/gcc/x86_64-w64-mingw32/8.1.0/libstdc++.dll.a(d001664.o)
 .idata$6       0x000000000045a7dc       0x20 C:/mingw64/w64/bin/../lib/gcc/x86_64-w64-mingw32/8.1.0/libstdc++.dll.a(d001668.o)
 .idata$6       0x000000000045a7fc       0x10 C:/mingw64/w64/bin/../lib/gcc/x86_64-w64-mingw32/8.1.0/libstdc++.dll.a(d001669.o)
 .idata$6       0x000000000045a80c       0x10 C:/mingw64/w64/bin/../lib/gcc/x86_64-w64-mingw32/8.1.0/libstdc++.dll.a(d001707.o)
 .idata$6       0x000000000045a81c       0x10 C:/mingw64/w64/bin/../lib/gcc/x86_64-w64-mingw32/8.1.0/libstdc++.dll.a(d001709.o)
 .idata$6       0x000000000045a82c        0xc C:/mingw64/w64/bin/../lib/gcc/x86_64-w64-mingw32/8.1.0/libstdc++.dll.a(d001748.o)
 .idata$6       0x000000000045a838       0x20 C:/mingw64/w64/bin/../lib/gcc/x86_64-w64-mingw32/8.1.0/libstdc++.dll.a(d002047.o)
 .idata$6       0x000000000045a858       0x48 C:/mingw64/w64/bin/../lib/gcc/x86_64-w64-mingw32/8.1.0/libstdc++.dll.a(d002272.o)
 .idata$6       0x000000000045a8a0       0x34 C:/mingw64/w64/bin/../lib/gcc/x86_64-w64-mingw32/8.1.0/libstdc++.dll.a(d002277.o)
 .idata$6       0x000000000045a8d4       0x30 C:/mingw64/w64/bin/../lib/gcc/x86_64-w64-mingw32/8.1.0/libstdc++.dll.a(d002290.o)
 .idata$6       0x000000000045a904       0x30 C:/mingw64/w64/bin/../lib/gcc/x86_64-w64-mingw32/8.1.0/libstdc++.dll.a(d002294.o)
 .idata$6       0x000000000045a934       0x30 C:/mingw64/w64/bin/../lib/gcc/x86_64-w64-mingw32/8.1.0/libstdc++.dll.a(d002347.o)
 .idata$6       0x000000000045a964       0x20 C:/mingw64/w64/bin/../lib/gcc/x86_64-w64-mingw32/8.1.0/libstdc++.dll.a(d002489.o)
 .idata$6       0x000000000045a984       0x1c C:/mingw64/w64/bin/../lib/gcc/x86_64-w64-mingw32/8.1.0/libstdc++.dll.a(d002496.o)
 .idata$6       0x000000000045a9a0       0x14 C:/mingw64/w64/bin/../lib/gcc/x86_64-w64-mingw32/8.1.0/libstdc++.dll.a(d003694.o)
 .idata$6       0x000000000045a9b4       0x14 C:/mingw64/w64/bin/../lib/gcc/x86_64-w64-mingw32/8.1.0/libstdc++.dll.a(d003701.o)
 .idata$6       0x000000000045a9c8       0x4c C:/mingw64/w64/bin/../lib/gcc/x86_64-w64-mingw32/8.1.0/libstdc++.dll.a(d003763.o)
 .idata$6       0x000000000045aa14       0x50 C:/mingw64/w64/bin/../lib/gcc/x86_64-w64-mingw32/8.1.0/libstdc++.dll.a(d003782.o)
 .idata$6       0x000000000045aa64       0x44 C:/mingw64/w64/bin/../lib/gcc/x86_64-w64-mingw32/8.1.0/libstdc++.dll.a(d003790.o)
 .idata$6       0x000000000045aaa8       0x44 C:/mingw64/w64/bin/../lib/gcc/x86_64-w64-mingw32/8.1.0/libstdc++.dll.a(d003797.o)
 .idata$6       0x000000000045aaec       0x44 C:/mingw64/w64/bin/../lib/gcc/x86_64-w64-mingw32/8.1.0/libstdc++.dll.a(d003851.o)
 .idata$6       0x000000000045ab30       0x44 C:/mingw64/w64/bin/../lib/gcc/x86_64-w64-mingw32/8.1.0/libstdc++.dll.a(d003852.o)
 .idata$6       0x000000000045ab74       0x48 C:/mingw64/w64/bin/../lib/gcc/x86_64-w64-mingw32/8.1.0/libstdc++.dll.a(d003854.o)
 .idata$6       0x000000000045abbc       0x48 C:/mingw64/w64/bin/../lib/gcc/x86_64-w64-mingw32/8.1.0/libstdc++.dll.a(d003855.o)
 .idata$6       0x000000000045ac04       0x48 C:/mingw64/w64/bin/../lib/gcc/x86_64-w64-mingw32/8.1.0/libstdc++.dll.a(d003856.o)
 .idata$6       0x000000000045ac4c       0x4c C:/mingw64/w64/bin/../lib/gcc/x86_64-w64-mingw32/8.1.0/libstdc++.dll.a(d003858.o)
 .idata$6       0x000000000045ac98       0x40 C:/mingw64/w64/bin/../lib/gcc/x86_64-w64-mingw32/8.1.0/libstdc++.dll.a(d003895.o)
 .idata$6       0x000000000045acd8       0x48 C:/mingw64/w64/bin/../lib/gcc/x86_64-w64-mingw32/8.1.0/libstdc++.dll.a(d003998.o)
 .idata$6       0x000000000045ad20       0x48 C:/mingw64/w64/bin/../lib/gcc/x86_64-w64-mingw32/8.1.0/libstdc++.dll.a(d004000.o)
 .idata$6       0x000000000045ad68       0x48 C:/mingw64/w64/bin/../lib/gcc/x86_64-w64-mingw32/8.1.0/libstdc++.dll.a(d004072.o)
 .idata$6       0x000000000045adb0       0x44 C:/mingw64/w64/bin/../lib/gcc/x86_64-w64-mingw32/8.1.0/libstdc++.dll.a(d004202.o)
 .idata$6       0x000000000045adf4       0x30 C:/mingw64/w64/bin/../lib/gcc/x86_64-w64-mingw32/8.1.0/libstdc++.dll.a(d004423.o)
 .idata$6       0x000000000045ae24       0x30 C:/mingw64/w64/bin/../lib/gcc/x86_64-w64-mingw32/8.1.0/libstdc++.dll.a(d004424.o)
 .idata$6       0x000000000045ae54       0x1c C:/mingw64/w64/bin/../lib/gcc/x86_64-w64-mingw32/8.1.0/libstdc++.dll.a(d004448.o)
 .idata$6       0x000000000045ae70       0x1c C:/mingw64/w64/bin/../lib/gcc/x86_64-w64-mingw32/8.1.0/libstdc++.dll.a(d004450.o)
 .idata$6       0x000000000045ae8c       0x18 C:/mingw64/w64/bin/../lib/gcc/x86_64-w64-mingw32/8.1.0/libstdc++.dll.a(d004490.o)
 .idata$6       0x000000000045aea4       0x18 C:/mingw64/w64/bin/../lib/gcc/x86_64-w64-mingw32/8.1.0/libstdc++.dll.a(d004493.o)
 .idata$6       0x000000000045aebc       0x48 C:/mingw64/w64/bin/../lib/gcc/x86_64-w64-mingw32/8.1.0/libstdc++.dll.a(d004582.o)
 .idata$6       0x000000000045af04       0x40 C:/mingw64/w64/bin/../lib/gcc/x86_64-w64-mingw32/8.1.0/libstdc++.dll.a(d004586.o)
 .idata$6       0x000000000045af44       0x1c C:/mingw64/w64/bin/../lib/gcc/x86_64-w64-mingw32/8.1.0/libstdc++.dll.a(d004661.o)
 .idata$6       0x000000000045af60       0x50 C:/mingw64/w64/bin/../lib/gcc/x86_64-w64-mingw32/8.1.0/libstdc++.dll.a(d004685.o)
 .idata$6       0x000000000045afb0       0x1c C:/mingw64/w64/bin/../lib/gcc/x86_64-w64-mingw32/8.1.0/libstdc++.dll.a(d004687.o)
 .idata$6       0x000000000045afcc       0x1c C:/mingw64/w64/bin/../lib/gcc/x86_64-w64-mingw32/8.1.0/libstdc++.dll.a(d004692.o)
 .idata$6       0x000000000045afe8       0x34 C:/mingw64/w64/bin/../lib/gcc/x86_64-w64-mingw32/8.1.0/libstdc++.dll.a(d004699.o)
 .idata$6       0x000000000045b01c       0x34 C:/mingw64/w64/bin/../lib/gcc/x86_64-w64-mingw32/8.1.0/libstdc++.dll.a(d004700.o)
 .idata$6       0x000000000045b050       0x34 C:/mingw64/w64/bin/../lib/gcc/x86_64-w64-mingw32/8.1.0/libstdc++.dll.a(d004701.o)
 .idata$6       0x000000000045b084       0x20 C:/mingw64/w64/bin/../lib/gcc/x86_64-w64-mingw32/8.1.0/libstdc++.dll.a(d004705.o)
 .idata$6       0x000000000045b0a4       0x20 C:/mingw64/w64/bin/../lib/gcc/x86_64-w64-mingw32/8.1.0/libstdc++.dll.a(d004713.o)
 .idata$6       0x000000000045b0c4       0x20 C:/mingw64/w64/bin/../lib/gcc/x86_64-w64-mingw32/8.1.0/libstdc++.dll.a(d004714.o)
 .idata$6       0x000000000045b0e4       0x24 C:/mingw64/w64/bin/../lib/gcc/x86_64-w64-mingw32/8.1.0/libstdc++.dll.a(d004727.o)
 .idata$6       0x000000000045b108       0x28 C:/mingw64/w64/bin/../lib/gcc/x86_64-w64-mingw32/8.1.0/libstdc++.dll.a(d004728.o)
 .idata$6       0x000000000045b130       0x24 C:/mingw64/w64/bin/../lib/gcc/x86_64-w64-mingw32/8.1.0/libstdc++.dll.a(d004729.o)
 .idata$6       0x000000000045b154       0x44 C:/mingw64/w64/bin/../lib/gcc/x86_64-w64-mingw32/8.1.0/libstdc++.dll.a(d004732.o)
 .idata$6       0x000000000045b198        0xc C:/mingw64/w64/bin/../lib/gcc/x86_64-w64-mingw32/8.1.0/libstdc++.dll.a(d004736.o)
                0x000000000045b198                __nm__ZSt4cerr
 .idata$6       0x000000000045b1a4        0xc C:/mingw64/w64/bin/../lib/gcc/x86_64-w64-mingw32/8.1.0/libstdc++.dll.a(d004738.o)
                0x000000000045b1a4                __nm__ZSt4cout
 .idata$6       0x000000000045b1b0       0x40 C:/mingw64/w64/bin/../lib/gcc/x86_64-w64-mingw32/8.1.0/libstdc++.dll.a(d004739.o)
 .idata$6       0x000000000045b1f0       0x70 C:/mingw64/w64/bin/../lib/gcc/x86_64-w64-mingw32/8.1.0/libstdc++.dll.a(d004750.o)
 .idata$6       0x000000000045b260       0x3c C:/mingw64/w64/bin/../lib/gcc/x86_64-w64-mingw32/8.1.0/libstdc++.dll.a(d004847.o)
 .idata$6       0x000000000045b29c       0x44 C:/mingw64/w64/bin/../lib/gcc/x86_64-w64-mingw32/8.1.0/libstdc++.dll.a(d005515.o)
                0x000000000045b29c                __nm__ZTTNSt7__cxx1118basic_stringstreamIcSt11char_traitsIcESaIcEEE
 .idata$6       0x000000000045b2e0       0x30 C:/mingw64/w64/bin/../lib/gcc/x86_64-w64-mingw32/8.1.0/libstdc++.dll.a(d005526.o)
                0x000000000045b2e0                __nm__ZTTSt13basic_fstreamIcSt11char_traitsIcEE
 .idata$6       0x000000000045b310       0x28 C:/mingw64/w64/bin/../lib/gcc/x86_64-w64-mingw32/8.1.0/libstdc++.dll.a(d005545.o)
                0x000000000045b310                __nm__ZTVN10__cxxabiv117__class_type_infoE
 .idata$6       0x000000000045b338       0x2c C:/mingw64/w64/bin/../lib/gcc/x86_64-w64-mingw32/8.1.0/libstdc++.dll.a(d005550.o)
                0x000000000045b338                __nm__ZTVN10__cxxabiv120__si_class_type_infoE
 .idata$6       0x000000000045b364       0x40 C:/mingw64/w64/bin/../lib/gcc/x86_64-w64-mingw32/8.1.0/libstdc++.dll.a(d005575.o)
                0x000000000045b364                __nm__ZTVNSt7__cxx1115basic_stringbufIcSt11char_traitsIcESaIcEEE
 .idata$6       0x000000000045b3a4       0x44 C:/mingw64/w64/bin/../lib/gcc/x86_64-w64-mingw32/8.1.0/libstdc++.dll.a(d005587.o)
                0x000000000045b3a4                __nm__ZTVNSt7__cxx1118basic_stringstreamIcSt11char_traitsIcESaIcEEE
 .idata$6       0x000000000045b3e8       0x30 C:/mingw64/w64/bin/../lib/gcc/x86_64-w64-mingw32/8.1.0/libstdc++.dll.a(d005634.o)
                0x000000000045b3e8                __nm__ZTVSt13basic_filebufIcSt11char_traitsIcEE
 .idata$6       0x000000000045b418       0x30 C:/mingw64/w64/bin/../lib/gcc/x86_64-w64-mingw32/8.1.0/libstdc++.dll.a(d005636.o)
                0x000000000045b418                __nm__ZTVSt13basic_fstreamIcSt11char_traitsIcEE
 .idata$6       0x000000000045b448       0x30 C:/mingw64/w64/bin/../lib/gcc/x86_64-w64-mingw32/8.1.0/libstdc++.dll.a(d005652.o)
                0x000000000045b448                __nm__ZTVSt15basic_streambufIcSt11char_traitsIcEE
 .idata$6       0x000000000045b478       0x28 C:/mingw64/w64/bin/../lib/gcc/x86_64-w64-mingw32/8.1.0/libstdc++.dll.a(d005727.o)
                0x000000000045b478                __nm__ZTVSt9basic_iosIcSt11char_traitsIcEE
 .idata$6       0x000000000045b4a0        0xc C:/mingw64/w64/bin/../lib/gcc/x86_64-w64-mingw32/8.1.0/libstdc++.dll.a(d005817.o)
 .idata$6       0x000000000045b4ac        0xc C:/mingw64/w64/bin/../lib/gcc/x86_64-w64-mingw32/8.1.0/libstdc++.dll.a(d005823.o)
 .idata$6       0x000000000045b4b8        0xc C:/mingw64/w64/bin/../lib/gcc/x86_64-w64-mingw32/8.1.0/libstdc++.dll.a(d005827.o)
 .idata$6       0x000000000045b4c4        0x8 C:/mingw64/w64/bin/../lib/gcc/x86_64-w64-mingw32/8.1.0/libstdc++.dll.a(d005829.o)
 .idata$6       0x000000000045b4cc        0x8 C:/mingw64/w64/bin/../lib/gcc/x86_64-w64-mingw32/8.1.0/libstdc++.dll.a(d005833.o)
 .idata$6       0x000000000045b4d4       0x14 C:/mingw64/w64/bin/../lib/gcc/x86_64-w64-mingw32/8.1.0/libstdc++.dll.a(d005843.o)
 .idata$6       0x000000000045b4e8       0x14 C:/mingw64/w64/bin/../lib/gcc/x86_64-w64-mingw32/8.1.0/libstdc++.dll.a(d005849.o)
 .idata$6       0x000000000045b4fc       0x1c C:/mingw64/w64/bin/../lib/gcc/x86_64-w64-mingw32/8.1.0/libstdc++.dll.a(d005852.o)
 .idata$6       0x000000000045b518       0x14 C:/mingw64/w64/bin/../lib/gcc/x86_64-w64-mingw32/8.1.0/libstdc++.dll.a(d005855.o)
 .idata$6       0x000000000045b52c       0x18 C:/mingw64/w64/bin/../lib/gcc/x86_64-w64-mingw32/8.1.0/libstdc++.dll.a(d005856.o)
 .idata$6       0x000000000045b544       0x18 C:/mingw64/w64/bin/../lib/gcc/x86_64-w64-mingw32/8.1.0/libstdc++.dll.a(d005857.o)
 .idata$6       0x000000000045b55c       0x10 C:/mingw64/w64/bin/../lib/gcc/x86_64-w64-mingw32/8.1.0/libstdc++.dll.a(d005860.o)
 .idata$6       0x000000000045b56c       0x24 C:/mingw64/w64/bin/../lib/gcc/x86_64-w64-mingw32/8.1.0/libstdc++.dll.a(d005864.o)
 .idata$6       0x000000000045b590       0x1c C:/mingw64/w64/bin/../lib/gcc/x86_64-w64-mingw32/8.1.0/libstdc++.dll.a(d005880.o)
 SORT_BY_NAME(*)(.idata$7)
 .idata$7       0x000000000045b5ac        0x4 C:/mingw64/w64/bin/../lib/gcc/x86_64-w64-mingw32/8.1.0/../../../../x86_64-w64-mingw32/lib/../lib/libkernel32.a(dqifs00191.o)
 .idata$7       0x000000000045b5b0        0x4 C:/mingw64/w64/bin/../lib/gcc/x86_64-w64-mingw32/8.1.0/../../../../x86_64-w64-mingw32/lib/../lib/libkernel32.a(dqifs00268.o)
 .idata$7       0x000000000045b5b4        0x4 C:/mingw64/w64/bin/../lib/gcc/x86_64-w64-mingw32/8.1.0/../../../../x86_64-w64-mingw32/lib/../lib/libkernel32.a(dqifs00304.o)
 .idata$7       0x000000000045b5b8        0x4 C:/mingw64/w64/bin/../lib/gcc/x86_64-w64-mingw32/8.1.0/../../../../x86_64-w64-mingw32/lib/../lib/libkernel32.a(dqifs00514.o)
 .idata$7       0x000000000045b5bc        0x4 C:/mingw64/w64/bin/../lib/gcc/x86_64-w64-mingw32/8.1.0/../../../../x86_64-w64-mingw32/lib/../lib/libkernel32.a(dqifs00528.o)
 .idata$7       0x000000000045b5c0        0x4 C:/mingw64/w64/bin/../lib/gcc/x86_64-w64-mingw32/8.1.0/../../../../x86_64-w64-mingw32/lib/../lib/libkernel32.a(dqifs00535.o)
 .idata$7       0x000000000045b5c4        0x4 C:/mingw64/w64/bin/../lib/gcc/x86_64-w64-mingw32/8.1.0/../../../../x86_64-w64-mingw32/lib/../lib/libkernel32.a(dqifs00536.o)
 .idata$7       0x000000000045b5c8        0x4 C:/mingw64/w64/bin/../lib/gcc/x86_64-w64-mingw32/8.1.0/../../../../x86_64-w64-mingw32/lib/../lib/libkernel32.a(dqifs00540.o)
 .idata$7       0x000000000045b5cc        0x4 C:/mingw64/w64/bin/../lib/gcc/x86_64-w64-mingw32/8.1.0/../../../../x86_64-w64-mingw32/lib/../lib/libkernel32.a(dqifs00578.o)
 .idata$7       0x000000000045b5d0        0x4 C:/mingw64/w64/bin/../lib/gcc/x86_64-w64-mingw32/8.1.0/../../../../x86_64-w64-mingw32/lib/../lib/libkernel32.a(dqifs00609.o)
 .idata$7       0x000000000045b5d4        0x4 C:/mingw64/w64/bin/../lib/gcc/x86_64-w64-mingw32/8.1.0/../../../../x86_64-w64-mingw32/lib/../lib/libkernel32.a(dqifs00628.o)
 .idata$7       0x000000000045b5d8        0x4 C:/mingw64/w64/bin/../lib/gcc/x86_64-w64-mingw32/8.1.0/../../../../x86_64-w64-mingw32/lib/../lib/libkernel32.a(dqifs00721.o)
 .idata$7       0x000000000045b5dc        0x4 C:/mingw64/w64/bin/../lib/gcc/x86_64-w64-mingw32/8.1.0/../../../../x86_64-w64-mingw32/lib/../lib/libkernel32.a(dqifs00724.o)
 .idata$7       0x000000000045b5e0        0x4 C:/mingw64/w64/bin/../lib/gcc/x86_64-w64-mingw32/8.1.0/../../../../x86_64-w64-mingw32/lib/../lib/libkernel32.a(dqifs00746.o)
 .idata$7       0x000000000045b5e4        0x4 C:/mingw64/w64/bin/../lib/gcc/x86_64-w64-mingw32/8.1.0/../../../../x86_64-w64-mingw32/lib/../lib/libkernel32.a(dqifs00774.o)
 .idata$7       0x000000000045b5e8        0x4 C:/mingw64/w64/bin/../lib/gcc/x86_64-w64-mingw32/8.1.0/../../../../x86_64-w64-mingw32/lib/../lib/libkernel32.a(dqifs00863.o)
 .idata$7       0x000000000045b5ec        0x4 C:/mingw64/w64/bin/../lib/gcc/x86_64-w64-mingw32/8.1.0/../../../../x86_64-w64-mingw32/lib/../lib/libkernel32.a(dqifs00889.o)
 .idata$7       0x000000000045b5f0        0x4 C:/mingw64/w64/bin/../lib/gcc/x86_64-w64-mingw32/8.1.0/../../../../x86_64-w64-mingw32/lib/../lib/libkernel32.a(dqifs00951.o)
 .idata$7       0x000000000045b5f4        0x4 C:/mingw64/w64/bin/../lib/gcc/x86_64-w64-mingw32/8.1.0/../../../../x86_64-w64-mingw32/lib/../lib/libkernel32.a(dqifs00999.o)
 .idata$7       0x000000000045b5f8        0x4 C:/mingw64/w64/bin/../lib/gcc/x86_64-w64-mingw32/8.1.0/../../../../x86_64-w64-mingw32/lib/../lib/libkernel32.a(dqifs01051.o)
 .idata$7       0x000000000045b5fc        0x4 C:/mingw64/w64/bin/../lib/gcc/x86_64-w64-mingw32/8.1.0/../../../../x86_64-w64-mingw32/lib/../lib/libkernel32.a(dqifs01093.o)
 .idata$7       0x000000000045b600        0x4 C:/mingw64/w64/bin/../lib/gcc/x86_64-w64-mingw32/8.1.0/../../../../x86_64-w64-mingw32/lib/../lib/libkernel32.a(dqifs01112.o)
 .idata$7       0x000000000045b604        0x4 C:/mingw64/w64/bin/../lib/gcc/x86_64-w64-mingw32/8.1.0/../../../../x86_64-w64-mingw32/lib/../lib/libkernel32.a(dqifs01128.o)
 .idata$7       0x000000000045b608        0x4 C:/mingw64/w64/bin/../lib/gcc/x86_64-w64-mingw32/8.1.0/../../../../x86_64-w64-mingw32/lib/../lib/libkernel32.a(dqifs01179.o)
 .idata$7       0x000000000045b60c        0x4 C:/mingw64/w64/bin/../lib/gcc/x86_64-w64-mingw32/8.1.0/../../../../x86_64-w64-mingw32/lib/../lib/libkernel32.a(dqifs01180.o)
 .idata$7       0x000000000045b610        0x4 C:/mingw64/w64/bin/../lib/gcc/x86_64-w64-mingw32/8.1.0/../../../../x86_64-w64-mingw32/lib/../lib/libkernel32.a(dqifs01187.o)
 .idata$7       0x000000000045b614        0x4 C:/mingw64/w64/bin/../lib/gcc/x86_64-w64-mingw32/8.1.0/../../../../x86_64-w64-mingw32/lib/../lib/libkernel32.a(dqifs01193.o)
 .idata$7       0x000000000045b618        0x4 C:/mingw64/w64/bin/../lib/gcc/x86_64-w64-mingw32/8.1.0/../../../../x86_64-w64-mingw32/lib/../lib/libkernel32.a(dqifs01194.o)
 .idata$7       0x000000000045b61c        0x4 C:/mingw64/w64/bin/../lib/gcc/x86_64-w64-mingw32/8.1.0/../../../../x86_64-w64-mingw32/lib/../lib/libkernel32.a(dqifs01346.o)
 .idata$7       0x000000000045b620        0x4 C:/mingw64/w64/bin/../lib/gcc/x86_64-w64-mingw32/8.1.0/../../../../x86_64-w64-mingw32/lib/../lib/libkernel32.a(dqifs01360.o)
 .idata$7       0x000000000045b624        0x4 C:/mingw64/w64/bin/../lib/gcc/x86_64-w64-mingw32/8.1.0/../../../../x86_64-w64-mingw32/lib/../lib/libkernel32.a(dqifs01375.o)
 .idata$7       0x000000000045b628        0x4 C:/mingw64/w64/bin/../lib/gcc/x86_64-w64-mingw32/8.1.0/../../../../x86_64-w64-mingw32/lib/../lib/libkernel32.a(dqifs01395.o)
 .idata$7       0x000000000045b62c        0x4 C:/mingw64/w64/bin/../lib/gcc/x86_64-w64-mingw32/8.1.0/../../../../x86_64-w64-mingw32/lib/../lib/libkernel32.a(dqifs01409.o)
 .idata$7       0x000000000045b630        0x4 C:/mingw64/w64/bin/../lib/gcc/x86_64-w64-mingw32/8.1.0/../../../../x86_64-w64-mingw32/lib/../lib/libkernel32.a(dqifs01443.o)
 .idata$7       0x000000000045b634        0x4 C:/mingw64/w64/bin/../lib/gcc/x86_64-w64-mingw32/8.1.0/../../../../x86_64-w64-mingw32/lib/../lib/libkernel32.a(dqifs01445.o)
 .idata$7       0x000000000045b638        0x4 C:/mingw64/w64/bin/../lib/gcc/x86_64-w64-mingw32/8.1.0/../../../../x86_64-w64-mingw32/lib/../lib/libkernel32.a(dqifs01490.o)
 .idata$7       0x000000000045b63c        0x4 C:/mingw64/w64/bin/../lib/gcc/x86_64-w64-mingw32/8.1.0/../../../../x86_64-w64-mingw32/lib/../lib/libkernel32.a(dqifs01510.o)
 .idata$7       0x000000000045b640        0x4 C:/mingw64/w64/bin/../lib/gcc/x86_64-w64-mingw32/8.1.0/../../../../x86_64-w64-mingw32/lib/../lib/libkernel32.a(dqifs01527.o)
 .idata$7       0x000000000045b644       0x10 C:/mingw64/w64/bin/../lib/gcc/x86_64-w64-mingw32/8.1.0/../../../../x86_64-w64-mingw32/lib/../lib/libkernel32.a(dqift.o)
                0x000000000045b644                __lib64_libkernel32_a_iname
 .idata$7       0x000000000045b654        0x4 C:/mingw64/w64/bin/../lib/gcc/x86_64-w64-mingw32/8.1.0/../../../../x86_64-w64-mingw32/lib/../lib/libmsvcrt.a(duags00063.o)
 .idata$7       0x000000000045b658        0x4 C:/mingw64/w64/bin/../lib/gcc/x86_64-w64-mingw32/8.1.0/../../../../x86_64-w64-mingw32/lib/../lib/libmsvcrt.a(duags00066.o)
 .idata$7       0x000000000045b65c        0x4 C:/mingw64/w64/bin/../lib/gcc/x86_64-w64-mingw32/8.1.0/../../../../x86_64-w64-mingw32/lib/../lib/libmsvcrt.a(duags00069.o)
 .idata$7       0x000000000045b660        0x4 C:/mingw64/w64/bin/../lib/gcc/x86_64-w64-mingw32/8.1.0/../../../../x86_64-w64-mingw32/lib/../lib/libmsvcrt.a(duags00070.o)
 .idata$7       0x000000000045b664        0x4 C:/mingw64/w64/bin/../lib/gcc/x86_64-w64-mingw32/8.1.0/../../../../x86_64-w64-mingw32/lib/../lib/libmsvcrt.a(duags00081.o)
 .idata$7       0x000000000045b668        0x4 C:/mingw64/w64/bin/../lib/gcc/x86_64-w64-mingw32/8.1.0/../../../../x86_64-w64-mingw32/lib/../lib/libmsvcrt.a(duags00082.o)
 .idata$7       0x000000000045b66c        0x4 C:/mingw64/w64/bin/../lib/gcc/x86_64-w64-mingw32/8.1.0/../../../../x86_64-w64-mingw32/lib/../lib/libmsvcrt.a(duags00083.o)
 .idata$7       0x000000000045b670        0x4 C:/mingw64/w64/bin/../lib/gcc/x86_64-w64-mingw32/8.1.0/../../../../x86_64-w64-mingw32/lib/../lib/libmsvcrt.a(duags00090.o)
 .idata$7       0x000000000045b674        0x4 C:/mingw64/w64/bin/../lib/gcc/x86_64-w64-mingw32/8.1.0/../../../../x86_64-w64-mingw32/lib/../lib/libmsvcrt.a(duags00096.o)
 .idata$7       0x000000000045b678        0x4 C:/mingw64/w64/bin/../lib/gcc/x86_64-w64-mingw32/8.1.0/../../../../x86_64-w64-mingw32/lib/../lib/libmsvcrt.a(duags00098.o)
 .idata$7       0x000000000045b67c        0x4 C:/mingw64/w64/bin/../lib/gcc/x86_64-w64-mingw32/8.1.0/../../../../x86_64-w64-mingw32/lib/../lib/libmsvcrt.a(duags00114.o)
 .idata$7       0x000000000045b680        0x4 C:/mingw64/w64/bin/../lib/gcc/x86_64-w64-mingw32/8.1.0/../../../../x86_64-w64-mingw32/lib/../lib/libmsvcrt.a(duags00115.o)
 .idata$7       0x000000000045b684        0x4 C:/mingw64/w64/bin/../lib/gcc/x86_64-w64-mingw32/8.1.0/../../../../x86_64-w64-mingw32/lib/../lib/libmsvcrt.a(duags00122.o)
 .idata$7       0x000000000045b688        0x4 C:/mingw64/w64/bin/../lib/gcc/x86_64-w64-mingw32/8.1.0/../../../../x86_64-w64-mingw32/lib/../lib/libmsvcrt.a(duags00141.o)
 .idata$7       0x000000000045b68c        0x4 C:/mingw64/w64/bin/../lib/gcc/x86_64-w64-mingw32/8.1.0/../../../../x86_64-w64-mingw32/lib/../lib/libmsvcrt.a(duags00166.o)
 .idata$7       0x000000000045b690        0x4 C:/mingw64/w64/bin/../lib/gcc/x86_64-w64-mingw32/8.1.0/../../../../x86_64-w64-mingw32/lib/../lib/libmsvcrt.a(duags00203.o)
 .idata$7       0x000000000045b694        0x4 C:/mingw64/w64/bin/../lib/gcc/x86_64-w64-mingw32/8.1.0/../../../../x86_64-w64-mingw32/lib/../lib/libmsvcrt.a(duags00237.o)
 .idata$7       0x000000000045b698        0x4 C:/mingw64/w64/bin/../lib/gcc/x86_64-w64-mingw32/8.1.0/../../../../x86_64-w64-mingw32/lib/../lib/libmsvcrt.a(duags00240.o)
 .idata$7       0x000000000045b69c        0x4 C:/mingw64/w64/bin/../lib/gcc/x86_64-w64-mingw32/8.1.0/../../../../x86_64-w64-mingw32/lib/../lib/libmsvcrt.a(duags00243.o)
 .idata$7       0x000000000045b6a0        0x4 C:/mingw64/w64/bin/../lib/gcc/x86_64-w64-mingw32/8.1.0/../../../../x86_64-w64-mingw32/lib/../lib/libmsvcrt.a(duags00245.o)
 .idata$7       0x000000000045b6a4        0x4 C:/mingw64/w64/bin/../lib/gcc/x86_64-w64-mingw32/8.1.0/../../../../x86_64-w64-mingw32/lib/../lib/libmsvcrt.a(duags00253.o)
 .idata$7       0x000000000045b6a8        0x4 C:/mingw64/w64/bin/../lib/gcc/x86_64-w64-mingw32/8.1.0/../../../../x86_64-w64-mingw32/lib/../lib/libmsvcrt.a(duags00291.o)
 .idata$7       0x000000000045b6ac        0x4 C:/mingw64/w64/bin/../lib/gcc/x86_64-w64-mingw32/8.1.0/../../../../x86_64-w64-mingw32/lib/../lib/libmsvcrt.a(duags00301.o)
 .idata$7       0x000000000045b6b0        0x4 C:/mingw64/w64/bin/../lib/gcc/x86_64-w64-mingw32/8.1.0/../../../../x86_64-w64-mingw32/lib/../lib/libmsvcrt.a(duags00332.o)
 .idata$7       0x000000000045b6b4        0x4 C:/mingw64/w64/bin/../lib/gcc/x86_64-w64-mingw32/8.1.0/../../../../x86_64-w64-mingw32/lib/../lib/libmsvcrt.a(duags00337.o)
 .idata$7       0x000000000045b6b8        0x4 C:/mingw64/w64/bin/../lib/gcc/x86_64-w64-mingw32/8.1.0/../../../../x86_64-w64-mingw32/lib/../lib/libmsvcrt.a(duags00440.o)
 .idata$7       0x000000000045b6bc        0x4 C:/mingw64/w64/bin/../lib/gcc/x86_64-w64-mingw32/8.1.0/../../../../x86_64-w64-mingw32/lib/../lib/libmsvcrt.a(duags00441.o)
 .idata$7       0x000000000045b6c0        0x4 C:/mingw64/w64/bin/../lib/gcc/x86_64-w64-mingw32/8.1.0/../../../../x86_64-w64-mingw32/lib/../lib/libmsvcrt.a(duags00614.o)
 .idata$7       0x000000000045b6c4        0x4 C:/mingw64/w64/bin/../lib/gcc/x86_64-w64-mingw32/8.1.0/../../../../x86_64-w64-mingw32/lib/../lib/libmsvcrt.a(duags00616.o)
 .idata$7       0x000000000045b6c8        0x4 C:/mingw64/w64/bin/../lib/gcc/x86_64-w64-mingw32/8.1.0/../../../../x86_64-w64-mingw32/lib/../lib/libmsvcrt.a(duags00617.o)
 .idata$7       0x000000000045b6cc        0x4 C:/mingw64/w64/bin/../lib/gcc/x86_64-w64-mingw32/8.1.0/../../../../x86_64-w64-mingw32/lib/../lib/libmsvcrt.a(duags00634.o)
 .idata$7       0x000000000045b6d0        0x4 C:/mingw64/w64/bin/../lib/gcc/x86_64-w64-mingw32/8.1.0/../../../../x86_64-w64-mingw32/lib/../lib/libmsvcrt.a(duags00647.o)
 .idata$7       0x000000000045b6d4        0x4 C:/mingw64/w64/bin/../lib/gcc/x86_64-w64-mingw32/8.1.0/../../../../x86_64-w64-mingw32/lib/../lib/libmsvcrt.a(duags00723.o)
 .idata$7       0x000000000045b6d8        0x4 C:/mingw64/w64/bin/../lib/gcc/x86_64-w64-mingw32/8.1.0/../../../../x86_64-w64-mingw32/lib/../lib/libmsvcrt.a(duags00730.o)
 .idata$7       0x000000000045b6dc        0x4 C:/mingw64/w64/bin/../lib/gcc/x86_64-w64-mingw32/8.1.0/../../../../x86_64-w64-mingw32/lib/../lib/libmsvcrt.a(duags00749.o)
 .idata$7       0x000000000045b6e0        0x4 C:/mingw64/w64/bin/../lib/gcc/x86_64-w64-mingw32/8.1.0/../../../../x86_64-w64-mingw32/lib/../lib/libmsvcrt.a(duags00791.o)
 .idata$7       0x000000000045b6e4        0x4 C:/mingw64/w64/bin/../lib/gcc/x86_64-w64-mingw32/8.1.0/../../../../x86_64-w64-mingw32/lib/../lib/libmsvcrt.a(duags00821.o)
 .idata$7       0x000000000045b6e8        0x4 C:/mingw64/w64/bin/../lib/gcc/x86_64-w64-mingw32/8.1.0/../../../../x86_64-w64-mingw32/lib/../lib/libmsvcrt.a(duags01032.o)
 .idata$7       0x000000000045b6ec        0x4 C:/mingw64/w64/bin/../lib/gcc/x86_64-w64-mingw32/8.1.0/../../../../x86_64-w64-mingw32/lib/../lib/libmsvcrt.a(duags01050.o)
 .idata$7       0x000000000045b6f0        0x4 C:/mingw64/w64/bin/../lib/gcc/x86_64-w64-mingw32/8.1.0/../../../../x86_64-w64-mingw32/lib/../lib/libmsvcrt.a(duags01063.o)
 .idata$7       0x000000000045b6f4        0x4 C:/mingw64/w64/bin/../lib/gcc/x86_64-w64-mingw32/8.1.0/../../../../x86_64-w64-mingw32/lib/../lib/libmsvcrt.a(duags01067.o)
 .idata$7       0x000000000045b6f8        0x4 C:/mingw64/w64/bin/../lib/gcc/x86_64-w64-mingw32/8.1.0/../../../../x86_64-w64-mingw32/lib/../lib/libmsvcrt.a(duags01073.o)
 .idata$7       0x000000000045b6fc        0x4 C:/mingw64/w64/bin/../lib/gcc/x86_64-w64-mingw32/8.1.0/../../../../x86_64-w64-mingw32/lib/../lib/libmsvcrt.a(duags01080.o)
 .idata$7       0x000000000045b700        0x4 C:/mingw64/w64/bin/../lib/gcc/x86_64-w64-mingw32/8.1.0/../../../../x86_64-w64-mingw32/lib/../lib/libmsvcrt.a(duags01082.o)
 .idata$7       0x000000000045b704        0x4 C:/mingw64/w64/bin/../lib/gcc/x86_64-w64-mingw32/8.1.0/../../../../x86_64-w64-mingw32/lib/../lib/libmsvcrt.a(duags01084.o)
 .idata$7       0x000000000045b708        0x4 C:/mingw64/w64/bin/../lib/gcc/x86_64-w64-mingw32/8.1.0/../../../../x86_64-w64-mingw32/lib/../lib/libmsvcrt.a(duags01085.o)
 .idata$7       0x000000000045b70c        0x4 C:/mingw64/w64/bin/../lib/gcc/x86_64-w64-mingw32/8.1.0/../../../../x86_64-w64-mingw32/lib/../lib/libmsvcrt.a(duags01088.o)
 .idata$7       0x000000000045b710        0x4 C:/mingw64/w64/bin/../lib/gcc/x86_64-w64-mingw32/8.1.0/../../../../x86_64-w64-mingw32/lib/../lib/libmsvcrt.a(duags01089.o)
 .idata$7       0x000000000045b714        0x4 C:/mingw64/w64/bin/../lib/gcc/x86_64-w64-mingw32/8.1.0/../../../../x86_64-w64-mingw32/lib/../lib/libmsvcrt.a(duags01101.o)
 .idata$7       0x000000000045b718        0x4 C:/mingw64/w64/bin/../lib/gcc/x86_64-w64-mingw32/8.1.0/../../../../x86_64-w64-mingw32/lib/../lib/libmsvcrt.a(duags01106.o)
 .idata$7       0x000000000045b71c        0x4 C:/mingw64/w64/bin/../lib/gcc/x86_64-w64-mingw32/8.1.0/../../../../x86_64-w64-mingw32/lib/../lib/libmsvcrt.a(duags01113.o)
 .idata$7       0x000000000045b720        0x4 C:/mingw64/w64/bin/../lib/gcc/x86_64-w64-mingw32/8.1.0/../../../../x86_64-w64-mingw32/lib/../lib/libmsvcrt.a(duags01114.o)
 .idata$7       0x000000000045b724        0x4 C:/mingw64/w64/bin/../lib/gcc/x86_64-w64-mingw32/8.1.0/../../../../x86_64-w64-mingw32/lib/../lib/libmsvcrt.a(duags01121.o)
 .idata$7       0x000000000045b728        0x4 C:/mingw64/w64/bin/../lib/gcc/x86_64-w64-mingw32/8.1.0/../../../../x86_64-w64-mingw32/lib/../lib/libmsvcrt.a(duags01122.o)
 .idata$7       0x000000000045b72c        0x4 C:/mingw64/w64/bin/../lib/gcc/x86_64-w64-mingw32/8.1.0/../../../../x86_64-w64-mingw32/lib/../lib/libmsvcrt.a(duags01138.o)
 .idata$7       0x000000000045b730        0x4 C:/mingw64/w64/bin/../lib/gcc/x86_64-w64-mingw32/8.1.0/../../../../x86_64-w64-mingw32/lib/../lib/libmsvcrt.a(duags01142.o)
 .idata$7       0x000000000045b734        0x4 C:/mingw64/w64/bin/../lib/gcc/x86_64-w64-mingw32/8.1.0/../../../../x86_64-w64-mingw32/lib/../lib/libmsvcrt.a(duags01149.o)
 .idata$7       0x000000000045b738        0x4 C:/mingw64/w64/bin/../lib/gcc/x86_64-w64-mingw32/8.1.0/../../../../x86_64-w64-mingw32/lib/../lib/libmsvcrt.a(duags01156.o)
 .idata$7       0x000000000045b73c        0x4 C:/mingw64/w64/bin/../lib/gcc/x86_64-w64-mingw32/8.1.0/../../../../x86_64-w64-mingw32/lib/../lib/libmsvcrt.a(duags01157.o)
 .idata$7       0x000000000045b740        0x4 C:/mingw64/w64/bin/../lib/gcc/x86_64-w64-mingw32/8.1.0/../../../../x86_64-w64-mingw32/lib/../lib/libmsvcrt.a(duags01158.o)
 .idata$7       0x000000000045b744        0x4 C:/mingw64/w64/bin/../lib/gcc/x86_64-w64-mingw32/8.1.0/../../../../x86_64-w64-mingw32/lib/../lib/libmsvcrt.a(duags01159.o)
 .idata$7       0x000000000045b748        0x4 C:/mingw64/w64/bin/../lib/gcc/x86_64-w64-mingw32/8.1.0/../../../../x86_64-w64-mingw32/lib/../lib/libmsvcrt.a(duags01187.o)
 .idata$7       0x000000000045b74c        0x4 C:/mingw64/w64/bin/../lib/gcc/x86_64-w64-mingw32/8.1.0/../../../../x86_64-w64-mingw32/lib/../lib/libmsvcrt.a(duags01198.o)
 .idata$7       0x000000000045b750        0x4 C:/mingw64/w64/bin/../lib/gcc/x86_64-w64-mingw32/8.1.0/../../../../x86_64-w64-mingw32/lib/../lib/libmsvcrt.a(duags01200.o)
 .idata$7       0x000000000045b754        0x4 C:/mingw64/w64/bin/../lib/gcc/x86_64-w64-mingw32/8.1.0/../../../../x86_64-w64-mingw32/lib/../lib/libmsvcrt.a(duags01203.o)
 .idata$7       0x000000000045b758        0x4 C:/mingw64/w64/bin/../lib/gcc/x86_64-w64-mingw32/8.1.0/../../../../x86_64-w64-mingw32/lib/../lib/libmsvcrt.a(duags01206.o)
 .idata$7       0x000000000045b75c        0x4 C:/mingw64/w64/bin/../lib/gcc/x86_64-w64-mingw32/8.1.0/../../../../x86_64-w64-mingw32/lib/../lib/libmsvcrt.a(duags01207.o)
 .idata$7       0x000000000045b760        0x4 C:/mingw64/w64/bin/../lib/gcc/x86_64-w64-mingw32/8.1.0/../../../../x86_64-w64-mingw32/lib/../lib/libmsvcrt.a(duags01208.o)
 .idata$7       0x000000000045b764        0x4 C:/mingw64/w64/bin/../lib/gcc/x86_64-w64-mingw32/8.1.0/../../../../x86_64-w64-mingw32/lib/../lib/libmsvcrt.a(duags01209.o)
 .idata$7       0x000000000045b768        0x4 C:/mingw64/w64/bin/../lib/gcc/x86_64-w64-mingw32/8.1.0/../../../../x86_64-w64-mingw32/lib/../lib/libmsvcrt.a(duags01211.o)
 .idata$7       0x000000000045b76c        0x4 C:/mingw64/w64/bin/../lib/gcc/x86_64-w64-mingw32/8.1.0/../../../../x86_64-w64-mingw32/lib/../lib/libmsvcrt.a(duags01212.o)
 .idata$7       0x000000000045b770        0x4 C:/mingw64/w64/bin/../lib/gcc/x86_64-w64-mingw32/8.1.0/../../../../x86_64-w64-mingw32/lib/../lib/libmsvcrt.a(duags01215.o)
 .idata$7       0x000000000045b774        0x4 C:/mingw64/w64/bin/../lib/gcc/x86_64-w64-mingw32/8.1.0/../../../../x86_64-w64-mingw32/lib/../lib/libmsvcrt.a(duags01222.o)
 .idata$7       0x000000000045b778        0x4 C:/mingw64/w64/bin/../lib/gcc/x86_64-w64-mingw32/8.1.0/../../../../x86_64-w64-mingw32/lib/../lib/libmsvcrt.a(duags01223.o)
 .idata$7       0x000000000045b77c        0x4 C:/mingw64/w64/bin/../lib/gcc/x86_64-w64-mingw32/8.1.0/../../../../x86_64-w64-mingw32/lib/../lib/libmsvcrt.a(duags01235.o)
 .idata$7       0x000000000045b780        0x4 C:/mingw64/w64/bin/../lib/gcc/x86_64-w64-mingw32/8.1.0/../../../../x86_64-w64-mingw32/lib/../lib/libmsvcrt.a(duags01237.o)
 .idata$7       0x000000000045b784        0x4 C:/mingw64/w64/bin/../lib/gcc/x86_64-w64-mingw32/8.1.0/../../../../x86_64-w64-mingw32/lib/../lib/libmsvcrt.a(duags01238.o)
 .idata$7       0x000000000045b788        0x4 C:/mingw64/w64/bin/../lib/gcc/x86_64-w64-mingw32/8.1.0/../../../../x86_64-w64-mingw32/lib/../lib/libmsvcrt.a(duags01243.o)
 .idata$7       0x000000000045b78c        0x4 C:/mingw64/w64/bin/../lib/gcc/x86_64-w64-mingw32/8.1.0/../../../../x86_64-w64-mingw32/lib/../lib/libmsvcrt.a(duags01264.o)
 .idata$7       0x000000000045b790        0xc C:/mingw64/w64/bin/../lib/gcc/x86_64-w64-mingw32/8.1.0/../../../../x86_64-w64-mingw32/lib/../lib/libmsvcrt.a(duagt.o)
                0x000000000045b790                __lib64_libmsvcrt_os_a_iname
 .idata$7       0x000000000045b79c        0x4 C:/mingw64/w64/bin/../lib/gcc/x86_64-w64-mingw32/8.1.0/libstdc++.dll.a(d000678.o)
 .idata$7       0x000000000045b7a0        0x4 C:/mingw64/w64/bin/../lib/gcc/x86_64-w64-mingw32/8.1.0/libstdc++.dll.a(d000693.o)
 .idata$7       0x000000000045b7a4        0x4 C:/mingw64/w64/bin/../lib/gcc/x86_64-w64-mingw32/8.1.0/libstdc++.dll.a(d000830.o)
 .idata$7       0x000000000045b7a8        0x4 C:/mingw64/w64/bin/../lib/gcc/x86_64-w64-mingw32/8.1.0/libstdc++.dll.a(d000937.o)
 .idata$7       0x000000000045b7ac        0x4 C:/mingw64/w64/bin/../lib/gcc/x86_64-w64-mingw32/8.1.0/libstdc++.dll.a(d000944.o)
 .idata$7       0x000000000045b7b0        0x4 C:/mingw64/w64/bin/../lib/gcc/x86_64-w64-mingw32/8.1.0/libstdc++.dll.a(d000948.o)
 .idata$7       0x000000000045b7b4        0x4 C:/mingw64/w64/bin/../lib/gcc/x86_64-w64-mingw32/8.1.0/libstdc++.dll.a(d000950.o)
 .idata$7       0x000000000045b7b8        0x4 C:/mingw64/w64/bin/../lib/gcc/x86_64-w64-mingw32/8.1.0/libstdc++.dll.a(d000958.o)
 .idata$7       0x000000000045b7bc        0x4 C:/mingw64/w64/bin/../lib/gcc/x86_64-w64-mingw32/8.1.0/libstdc++.dll.a(d000960.o)
 .idata$7       0x000000000045b7c0        0x4 C:/mingw64/w64/bin/../lib/gcc/x86_64-w64-mingw32/8.1.0/libstdc++.dll.a(d000971.o)
 .idata$7       0x000000000045b7c4        0x4 C:/mingw64/w64/bin/../lib/gcc/x86_64-w64-mingw32/8.1.0/libstdc++.dll.a(d000975.o)
 .idata$7       0x000000000045b7c8        0x4 C:/mingw64/w64/bin/../lib/gcc/x86_64-w64-mingw32/8.1.0/libstdc++.dll.a(d000977.o)
 .idata$7       0x000000000045b7cc        0x4 C:/mingw64/w64/bin/../lib/gcc/x86_64-w64-mingw32/8.1.0/libstdc++.dll.a(d001343.o)
 .idata$7       0x000000000045b7d0        0x4 C:/mingw64/w64/bin/../lib/gcc/x86_64-w64-mingw32/8.1.0/libstdc++.dll.a(d001344.o)
 .idata$7       0x000000000045b7d4        0x4 C:/mingw64/w64/bin/../lib/gcc/x86_64-w64-mingw32/8.1.0/libstdc++.dll.a(d001664.o)
 .idata$7       0x000000000045b7d8        0x4 C:/mingw64/w64/bin/../lib/gcc/x86_64-w64-mingw32/8.1.0/libstdc++.dll.a(d001668.o)
 .idata$7       0x000000000045b7dc        0x4 C:/mingw64/w64/bin/../lib/gcc/x86_64-w64-mingw32/8.1.0/libstdc++.dll.a(d001669.o)
 .idata$7       0x000000000045b7e0        0x4 C:/mingw64/w64/bin/../lib/gcc/x86_64-w64-mingw32/8.1.0/libstdc++.dll.a(d001707.o)
 .idata$7       0x000000000045b7e4        0x4 C:/mingw64/w64/bin/../lib/gcc/x86_64-w64-mingw32/8.1.0/libstdc++.dll.a(d001709.o)
 .idata$7       0x000000000045b7e8        0x4 C:/mingw64/w64/bin/../lib/gcc/x86_64-w64-mingw32/8.1.0/libstdc++.dll.a(d001748.o)
 .idata$7       0x000000000045b7ec        0x4 C:/mingw64/w64/bin/../lib/gcc/x86_64-w64-mingw32/8.1.0/libstdc++.dll.a(d002047.o)
 .idata$7       0x000000000045b7f0        0x4 C:/mingw64/w64/bin/../lib/gcc/x86_64-w64-mingw32/8.1.0/libstdc++.dll.a(d002272.o)
 .idata$7       0x000000000045b7f4        0x4 C:/mingw64/w64/bin/../lib/gcc/x86_64-w64-mingw32/8.1.0/libstdc++.dll.a(d002277.o)
 .idata$7       0x000000000045b7f8        0x4 C:/mingw64/w64/bin/../lib/gcc/x86_64-w64-mingw32/8.1.0/libstdc++.dll.a(d002290.o)
 .idata$7       0x000000000045b7fc        0x4 C:/mingw64/w64/bin/../lib/gcc/x86_64-w64-mingw32/8.1.0/libstdc++.dll.a(d002294.o)
 .idata$7       0x000000000045b800        0x4 C:/mingw64/w64/bin/../lib/gcc/x86_64-w64-mingw32/8.1.0/libstdc++.dll.a(d002347.o)
 .idata$7       0x000000000045b804        0x4 C:/mingw64/w64/bin/../lib/gcc/x86_64-w64-mingw32/8.1.0/libstdc++.dll.a(d002489.o)
 .idata$7       0x000000000045b808        0x4 C:/mingw64/w64/bin/../lib/gcc/x86_64-w64-mingw32/8.1.0/libstdc++.dll.a(d002496.o)
 .idata$7       0x000000000045b80c        0x4 C:/mingw64/w64/bin/../lib/gcc/x86_64-w64-mingw32/8.1.0/libstdc++.dll.a(d003694.o)
 .idata$7       0x000000000045b810        0x4 C:/mingw64/w64/bin/../lib/gcc/x86_64-w64-mingw32/8.1.0/libstdc++.dll.a(d003701.o)
 .idata$7       0x000000000045b814        0x4 C:/mingw64/w64/bin/../lib/gcc/x86_64-w64-mingw32/8.1.0/libstdc++.dll.a(d003763.o)
 .idata$7       0x000000000045b818        0x4 C:/mingw64/w64/bin/../lib/gcc/x86_64-w64-mingw32/8.1.0/libstdc++.dll.a(d003782.o)
 .idata$7       0x000000000045b81c        0x4 C:/mingw64/w64/bin/../lib/gcc/x86_64-w64-mingw32/8.1.0/libstdc++.dll.a(d003790.o)
 .idata$7       0x000000000045b820        0x4 C:/mingw64/w64/bin/../lib/gcc/x86_64-w64-mingw32/8.1.0/libstdc++.dll.a(d003797.o)
 .idata$7       0x000000000045b824        0x4 C:/mingw64/w64/bin/../lib/gcc/x86_64-w64-mingw32/8.1.0/libstdc++.dll.a(d003851.o)
 .idata$7       0x000000000045b828        0x4 C:/mingw64/w64/bin/../lib/gcc/x86_64-w64-mingw32/8.1.0/libstdc++.dll.a(d003852.o)
 .idata$7       0x000000000045b82c        0x4 C:/mingw64/w64/bin/../lib/gcc/x86_64-w64-mingw32/8.1.0/libstdc++.dll.a(d003854.o)
 .idata$7       0x000000000045b830        0x4 C:/mingw64/w64/bin/../lib/gcc/x86_64-w64-mingw32/8.1.0/libstdc++.dll.a(d003855.o)
 .idata$7       0x000000000045b834        0x4 C:/mingw64/w64/bin/../lib/gcc/x86_64-w64-mingw32/8.1.0/libstdc++.dll.a(d003856.o)
 .idata$7       0x000000000045b838        0x4 C:/mingw64/w64/bin/../lib/gcc/x86_64-w64-mingw32/8.1.0/libstdc++.dll.a(d003858.o)
 .idata$7       0x000000000045b83c        0x4 C:/mingw64/w64/bin/../lib/gcc/x86_64-w64-mingw32/8.1.0/libstdc++.dll.a(d003895.o)
 .idata$7       0x000000000045b840        0x4 C:/mingw64/w64/bin/../lib/gcc/x86_64-w64-mingw32/8.1.0/libstdc++.dll.a(d003998.o)
 .idata$7       0x000000000045b844        0x4 C:/mingw64/w64/bin/../lib/gcc/x86_64-w64-mingw32/8.1.0/libstdc++.dll.a(d004000.o)
 .idata$7       0x000000000045b848        0x4 C:/mingw64/w64/bin/../lib/gcc/x86_64-w64-mingw32/8.1.0/libstdc++.dll.a(d004072.o)
 .idata$7       0x000000000045b84c        0x4 C:/mingw64/w64/bin/../lib/gcc/x86_64-w64-mingw32/8.1.0/libstdc++.dll.a(d004202.o)
 .idata$7       0x000000000045b850        0x4 C:/mingw64/w64/bin/../lib/gcc/x86_64-w64-mingw32/8.1.0/libstdc++.dll.a(d004423.o)
 .idata$7       0x000000000045b854        0x4 C:/mingw64/w64/bin/../lib/gcc/x86_64-w64-mingw32/8.1.0/libstdc++.dll.a(d004424.o)
 .idata$7       0x000000000045b858        0x4 C:/mingw64/w64/bin/../lib/gcc/x86_64-w64-mingw32/8.1.0/libstdc++.dll.a(d004448.o)
 .idata$7       0x000000000045b85c        0x4 C:/mingw64/w64/bin/../lib/gcc/x86_64-w64-mingw32/8.1.0/libstdc++.dll.a(d004450.o)
 .idata$7       0x000000000045b860        0x4 C:/mingw64/w64/bin/../lib/gcc/x86_64-w64-mingw32/8.1.0/libstdc++.dll.a(d004490.o)
 .idata$7       0x000000000045b864        0x4 C:/mingw64/w64/bin/../lib/gcc/x86_64-w64-mingw32/8.1.0/libstdc++.dll.a(d004493.o)
 .idata$7       0x000000000045b868        0x4 C:/mingw64/w64/bin/../lib/gcc/x86_64-w64-mingw32/8.1.0/libstdc++.dll.a(d004582.o)
 .idata$7       0x000000000045b86c        0x4 C:/mingw64/w64/bin/../lib/gcc/x86_64-w64-mingw32/8.1.0/libstdc++.dll.a(d004586.o)
 .idata$7       0x000000000045b870        0x4 C:/mingw64/w64/bin/../lib/gcc/x86_64-w64-mingw32/8.1.0/libstdc++.dll.a(d004661.o)
 .idata$7       0x000000000045b874        0x4 C:/mingw64/w64/bin/../lib/gcc/x86_64-w64-mingw32/8.1.0/libstdc++.dll.a(d004685.o)
 .idata$7       0x000000000045b878        0x4 C:/mingw64/w64/bin/../lib/gcc/x86_64-w64-mingw32/8.1.0/libstdc++.dll.a(d004687.o)
 .idata$7       0x000000000045b87c        0x4 C:/mingw64/w64/bin/../lib/gcc/x86_64-w64-mingw32/8.1.0/libstdc++.dll.a(d004692.o)
 .idata$7       0x000000000045b880        0x4 C:/mingw64/w64/bin/../lib/gcc/x86_64-w64-mingw32/8.1.0/libstdc++.dll.a(d004699.o)
 .idata$7       0x000000000045b884        0x4 C:/mingw64/w64/bin/../lib/gcc/x86_64-w64-mingw32/8.1.0/libstdc++.dll.a(d004700.o)
 .idata$7       0x000000000045b888        0x4 C:/mingw64/w64/bin/../lib/gcc/x86_64-w64-mingw32/8.1.0/libstdc++.dll.a(d004701.o)
 .idata$7       0x000000000045b88c        0x4 C:/mingw64/w64/bin/../lib/gcc/x86_64-w64-mingw32/8.1.0/libstdc++.dll.a(d004705.o)
 .idata$7       0x000000000045b890        0x4 C:/mingw64/w64/bin/../lib/gcc/x86_64-w64-mingw32/8.1.0/libstdc++.dll.a(d004713.o)
 .idata$7       0x000000000045b894        0x4 C:/mingw64/w64/bin/../lib/gcc/x86_64-w64-mingw32/8.1.0/libstdc++.dll.a(d004714.o)
 .idata$7       0x000000000045b898        0x4 C:/mingw64/w64/bin/../lib/gcc/x86_64-w64-mingw32/8.1.0/libstdc++.dll.a(d004727.o)
 .idata$7       0x000000000045b89c        0x4 C:/mingw64/w64/bin/../lib/gcc/x86_64-w64-mingw32/8.1.0/libstdc++.dll.a(d004728.o)
 .idata$7       0x000000000045b8a0        0x4 C:/mingw64/w64/bin/../lib/gcc/x86_64-w64-mingw32/8.1.0/libstdc++.dll.a(d004729.o)
 .idata$7       0x000000000045b8a4        0x4 C:/mingw64/w64/bin/../lib/gcc/x86_64-w64-mingw32/8.1.0/libstdc++.dll.a(d004732.o)
 .idata$7       0x000000000045b8a8        0x4 C:/mingw64/w64/bin/../lib/gcc/x86_64-w64-mingw32/8.1.0/libstdc++.dll.a(d004736.o)
 .idata$7       0x000000000045b8ac        0x4 C:/mingw64/w64/bin/../lib/gcc/x86_64-w64-mingw32/8.1.0/libstdc++.dll.a(d004738.o)
 .idata$7       0x000000000045b8b0        0x4 C:/mingw64/w64/bin/../lib/gcc/x86_64-w64-mingw32/8.1.0/libstdc++.dll.a(d004739.o)
 .idata$7       0x000000000045b8b4        0x4 C:/mingw64/w64/bin/../lib/gcc/x86_64-w64-mingw32/8.1.0/libstdc++.dll.a(d004750.o)
 .idata$7       0x000000000045b8b8        0x4 C:/mingw64/w64/bin/../lib/gcc/x86_64-w64-mingw32/8.1.0/libstdc++.dll.a(d004847.o)
 .idata$7       0x000000000045b8bc        0x4 C:/mingw64/w64/bin/../lib/gcc/x86_64-w64-mingw32/8.1.0/libstdc++.dll.a(d005515.o)
 .idata$7       0x000000000045b8c0        0x4 C:/mingw64/w64/bin/../lib/gcc/x86_64-w64-mingw32/8.1.0/libstdc++.dll.a(d005526.o)
 .idata$7       0x000000000045b8c4        0x4 C:/mingw64/w64/bin/../lib/gcc/x86_64-w64-mingw32/8.1.0/libstdc++.dll.a(d005545.o)
 .idata$7       0x000000000045b8c8        0x4 C:/mingw64/w64/bin/../lib/gcc/x86_64-w64-mingw32/8.1.0/libstdc++.dll.a(d005550.o)
 .idata$7       0x000000000045b8cc        0x4 C:/mingw64/w64/bin/../lib/gcc/x86_64-w64-mingw32/8.1.0/libstdc++.dll.a(d005575.o)
 .idata$7       0x000000000045b8d0        0x4 C:/mingw64/w64/bin/../lib/gcc/x86_64-w64-mingw32/8.1.0/libstdc++.dll.a(d005587.o)
 .idata$7       0x000000000045b8d4        0x4 C:/mingw64/w64/bin/../lib/gcc/x86_64-w64-mingw32/8.1.0/libstdc++.dll.a(d005634.o)
 .idata$7       0x000000000045b8d8        0x4 C:/mingw64/w64/bin/../lib/gcc/x86_64-w64-mingw32/8.1.0/libstdc++.dll.a(d005636.o)
 .idata$7       0x000000000045b8dc        0x4 C:/mingw64/w64/bin/../lib/gcc/x86_64-w64-mingw32/8.1.0/libstdc++.dll.a(d005652.o)
 .idata$7       0x000000000045b8e0        0x4 C:/mingw64/w64/bin/../lib/gcc/x86_64-w64-mingw32/8.1.0/libstdc++.dll.a(d005727.o)
 .idata$7       0x000000000045b8e4        0x4 C:/mingw64/w64/bin/../lib/gcc/x86_64-w64-mingw32/8.1.0/libstdc++.dll.a(d005817.o)
 .idata$7       0x000000000045b8e8        0x4 C:/mingw64/w64/bin/../lib/gcc/x86_64-w64-mingw32/8.1.0/libstdc++.dll.a(d005823.o)
 .idata$7       0x000000000045b8ec        0x4 C:/mingw64/w64/bin/../lib/gcc/x86_64-w64-mingw32/8.1.0/libstdc++.dll.a(d005827.o)
 .idata$7       0x000000000045b8f0        0x4 C:/mingw64/w64/bin/../lib/gcc/x86_64-w64-mingw32/8.1.0/libstdc++.dll.a(d005829.o)
 .idata$7       0x000000000045b8f4        0x4 C:/mingw64/w64/bin/../lib/gcc/x86_64-w64-mingw32/8.1.0/libstdc++.dll.a(d005833.o)
 .idata$7       0x000000000045b8f8        0x4 C:/mingw64/w64/bin/../lib/gcc/x86_64-w64-mingw32/8.1.0/libstdc++.dll.a(d005843.o)
 .idata$7       0x000000000045b8fc        0x4 C:/mingw64/w64/bin/../lib/gcc/x86_64-w64-mingw32/8.1.0/libstdc++.dll.a(d005849.o)
 .idata$7       0x000000000045b900        0x4 C:/mingw64/w64/bin/../lib/gcc/x86_64-w64-mingw32/8.1.0/libstdc++.dll.a(d005852.o)
 .idata$7       0x000000000045b904        0x4 C:/mingw64/w64/bin/../lib/gcc/x86_64-w64-mingw32/8.1.0/libstdc++.dll.a(d005855.o)
 .idata$7       0x000000000045b908        0x4 C:/mingw64/w64/bin/../lib/gcc/x86_64-w64-mingw32/8.1.0/libstdc++.dll.a(d005856.o)
 .idata$7       0x000000000045b90c        0x4 C:/mingw64/w64/bin/../lib/gcc/x86_64-w64-mingw32/8.1.0/libstdc++.dll.a(d005857.o)
 .idata$7       0x000000000045b910        0x4 C:/mingw64/w64/bin/../lib/gcc/x86_64-w64-mingw32/8.1.0/libstdc++.dll.a(d005860.o)
 .idata$7       0x000000000045b914        0x4 C:/mingw64/w64/bin/../lib/gcc/x86_64-w64-mingw32/8.1.0/libstdc++.dll.a(d005864.o)
 .idata$7       0x000000000045b918        0x4 C:/mingw64/w64/bin/../lib/gcc/x86_64-w64-mingw32/8.1.0/libstdc++.dll.a(d005880.o)
 .idata$7       0x000000000045b91c       0x10 C:/mingw64/w64/bin/../lib/gcc/x86_64-w64-mingw32/8.1.0/libstdc++.dll.a(d005884.o)
                0x000000000045b91c                libstdc___6_dll_iname

.CRT            0x000000000045c000      0x200
                0x000000000045c000                ___crt_xc_start__ = .
 *(SORT_BY_NAME(.CRT$XC*))
 .CRT$XCA       0x000000000045c000        0x8 C:/mingw64/w64/bin/../lib/gcc/x86_64-w64-mingw32/8.1.0/../../../../x86_64-w64-mingw32/lib/../lib/libmingw32.a(lib64_libmingw32_a-cinitexe.o)
                0x000000000045c000                __xc_a
 .CRT$XCAA      0x000000000045c008        0x8 C:/mingw64/w64/bin/../lib/gcc/x86_64-w64-mingw32/8.1.0/../../../../x86_64-w64-mingw32/lib/../lib/crt2.o
                0x000000000045c008                mingw_pcppinit
 .CRT$XCZ       0x000000000045c010        0x8 C:/mingw64/w64/bin/../lib/gcc/x86_64-w64-mingw32/8.1.0/../../../../x86_64-w64-mingw32/lib/../lib/libmingw32.a(lib64_libmingw32_a-cinitexe.o)
                0x000000000045c010                __xc_z
                0x000000000045c018                ___crt_xc_end__ = .
                0x000000000045c018                ___crt_xi_start__ = .
 *(SORT_BY_NAME(.CRT$XI*))
 .CRT$XIA       0x000000000045c018        0x8 C:/mingw64/w64/bin/../lib/gcc/x86_64-w64-mingw32/8.1.0/../../../../x86_64-w64-mingw32/lib/../lib/libmingw32.a(lib64_libmingw32_a-cinitexe.o)
                0x000000000045c018                __xi_a
 .CRT$XIAA      0x000000000045c020        0x8 C:/mingw64/w64/bin/../lib/gcc/x86_64-w64-mingw32/8.1.0/../../../../x86_64-w64-mingw32/lib/../lib/crt2.o
                0x000000000045c020                mingw_pcinit
 .CRT$XIC       0x000000000045c028        0x8 C:/mingw64/w64/bin/../lib/gcc/x86_64-w64-mingw32/8.1.0/../../../../x86_64-w64-mingw32/lib/../lib/libmingw32.a(lib64_libmingw32_a-charmax.o)
                0x000000000045c028                __mingw_pinit
 .CRT$XIZ       0x000000000045c030        0x8 C:/mingw64/w64/bin/../lib/gcc/x86_64-w64-mingw32/8.1.0/../../../../x86_64-w64-mingw32/lib/../lib/libmingw32.a(lib64_libmingw32_a-cinitexe.o)
                0x000000000045c030                __xi_z
                0x000000000045c038                ___crt_xi_end__ = .
                0x000000000045c038                ___crt_xl_start__ = .
 *(SORT_BY_NAME(.CRT$XL*))
 .CRT$XLA       0x000000000045c038        0x8 C:/mingw64/w64/bin/../lib/gcc/x86_64-w64-mingw32/8.1.0/../../../../x86_64-w64-mingw32/lib/../lib/libmingw32.a(lib64_libmingw32_a-tlssup.o)
                0x000000000045c038                __xl_a
 .CRT$XLC       0x000000000045c040        0x8 C:/mingw64/w64/bin/../lib/gcc/x86_64-w64-mingw32/8.1.0/../../../../x86_64-w64-mingw32/lib/../lib/libmingw32.a(lib64_libmingw32_a-tlssup.o)
                0x000000000045c040                __xl_c
 .CRT$XLD       0x000000000045c048        0x8 C:/mingw64/w64/bin/../lib/gcc/x86_64-w64-mingw32/8.1.0/../../../../x86_64-w64-mingw32/lib/../lib/libmingw32.a(lib64_libmingw32_a-tlssup.o)
                0x000000000045c048                __xl_d
 .CRT$XLZ       0x000000000045c050        0x8 C:/mingw64/w64/bin/../lib/gcc/x86_64-w64-mingw32/8.1.0/../../../../x86_64-w64-mingw32/lib/../lib/libmingw32.a(lib64_libmingw32_a-tlssup.o)
                0x000000000045c050                __xl_z
                0x000000000045c058                ___crt_xp_start__ = .
 *(SORT_BY_NAME(.CRT$XP*))
                0x000000000045c058                ___crt_xp_end__ = .
                0x000000000045c058                ___crt_xt_start__ = .
 *(SORT_BY_NAME(.CRT$XT*))
                0x000000000045c058                ___crt_xt_end__ = .
 .CRT$XDA       0x000000000045c058        0x8 C:/mingw64/w64/bin/../lib/gcc/x86_64-w64-mingw32/8.1.0/../../../../x86_64-w64-mingw32/lib/../lib/libmingw32.a(lib64_libmingw32_a-tlssup.o)
 .CRT$XDZ       0x000000000045c060        0x8 C:/mingw64/w64/bin/../lib/gcc/x86_64-w64-mingw32/8.1.0/../../../../x86_64-w64-mingw32/lib/../lib/libmingw32.a(lib64_libmingw32_a-tlssup.o)

.tls            0x000000000045d000      0x200
                0x000000000045d000                ___tls_start__ = .
 *(.tls$AAA)
 *(.tls)
 .tls           0x000000000045d000        0x8 C:/mingw64/w64/bin/../lib/gcc/x86_64-w64-mingw32/8.1.0/../../../../x86_64-w64-mingw32/lib/../lib/libmingw32.a(lib64_libmingw32_a-tlssup.o)
                0x000000000045d000                _tls_start
 *(.tls$)
 *(SORT_BY_NAME(.tls$*))
 .tls$ZZZ       0x000000000045d008        0x8 C:/mingw64/w64/bin/../lib/gcc/x86_64-w64-mingw32/8.1.0/../../../../x86_64-w64-mingw32/lib/../lib/libmingw32.a(lib64_libmingw32_a-tlssup.o)
                0x000000000045d008                _tls_end
 *(.tls$ZZZ)
                0x000000000045d010                ___tls_end__ = .

.endjunk        0x000000000045e000        0x0
                [!provide]                        PROVIDE (end = .)
                [!provide]                        PROVIDE (_end = .)
                0x000000000045e000                __end__ = .

.rsrc
 *(.rsrc)
 *(.rsrc$*)

.reloc
 *(.reloc)

.stab
 *(.stab)

.stabstr
 *(.stabstr)

.debug_aranges  0x000000000045e000      0x200
 *(.debug_aranges)
 .debug_aranges
                0x000000000045e000       0x30 C:/mingw64/w64/bin/../lib/gcc/x86_64-w64-mingw32/8.1.0/libgcc.a(_chkstk_ms.o)
 .debug_aranges
                0x000000000045e030       0x20 C:/mingw64/w64/bin/../lib/gcc/x86_64-w64-mingw32/8.1.0/libgcc.a(_ctors.o)
 .debug_aranges
                0x000000000045e050       0x30 C:/mingw64/w64/bin/../lib/gcc/x86_64-w64-mingw32/8.1.0/libgcc_eh.a(unwind-seh.o)

.zdebug_aranges
 *(.zdebug_aranges)

.debug_pubnames
 *(.debug_pubnames)

.zdebug_pubnames
 *(.zdebug_pubnames)

.debug_pubtypes
 *(.debug_pubtypes)

.zdebug_pubtypes
 *(.zdebug_pubtypes)

.debug_info     0x000000000045f000     0x9400
 *(.debug_info .gnu.linkonce.wi.*)
 .debug_info    0x000000000045f000       0x2e C:/mingw64/w64/bin/../lib/gcc/x86_64-w64-mingw32/8.1.0/libgcc.a(_chkstk_ms.o)
 .debug_info    0x000000000045f02e     0x1eda C:/mingw64/w64/bin/../lib/gcc/x86_64-w64-mingw32/8.1.0/libgcc.a(_ctors.o)
 .debug_info    0x0000000000460f08     0x733b C:/mingw64/w64/bin/../lib/gcc/x86_64-w64-mingw32/8.1.0/libgcc_eh.a(unwind-seh.o)

.zdebug_info
 *(.zdebug_info .zdebug.gnu.linkonce.wi.*)

.debug_abbrev   0x0000000000469000      0x600
 *(.debug_abbrev)
 .debug_abbrev  0x0000000000469000       0x14 C:/mingw64/w64/bin/../lib/gcc/x86_64-w64-mingw32/8.1.0/libgcc.a(_chkstk_ms.o)
 .debug_abbrev  0x0000000000469014      0x135 C:/mingw64/w64/bin/../lib/gcc/x86_64-w64-mingw32/8.1.0/libgcc.a(_ctors.o)
 .debug_abbrev  0x0000000000469149      0x47e C:/mingw64/w64/bin/../lib/gcc/x86_64-w64-mingw32/8.1.0/libgcc_eh.a(unwind-seh.o)

.zdebug_abbrev
 *(.zdebug_abbrev)

.debug_line     0x000000000046a000      0xa00
 *(.debug_line)
 .debug_line    0x000000000046a000       0x7b C:/mingw64/w64/bin/../lib/gcc/x86_64-w64-mingw32/8.1.0/libgcc.a(_chkstk_ms.o)
 .debug_line    0x000000000046a07b      0x1a7 C:/mingw64/w64/bin/../lib/gcc/x86_64-w64-mingw32/8.1.0/libgcc.a(_ctors.o)
 .debug_line    0x000000000046a222      0x758 C:/mingw64/w64/bin/../lib/gcc/x86_64-w64-mingw32/8.1.0/libgcc_eh.a(unwind-seh.o)

.zdebug_line
 *(.zdebug_line)

.debug_frame    0x000000000046b000      0x400
 *(.debug_frame)
 .debug_frame   0x000000000046b000       0x48 C:/mingw64/w64/bin/../lib/gcc/x86_64-w64-mingw32/8.1.0/libgcc.a(_chkstk_ms.o)
 .debug_frame   0x000000000046b048      0x2e8 C:/mingw64/w64/bin/../lib/gcc/x86_64-w64-mingw32/8.1.0/libgcc_eh.a(unwind-seh.o)

.zdebug_frame
 *(.zdebug_frame)

.debug_str      0x000000000046c000      0x200
 *(.debug_str)
 .debug_str     0x000000000046c000       0x9b C:/mingw64/w64/bin/../lib/gcc/x86_64-w64-mingw32/8.1.0/libgcc.a(_chkstk_ms.o)
 .debug_str     0x000000000046c09b        0x0 C:/mingw64/w64/bin/../lib/gcc/x86_64-w64-mingw32/8.1.0/libgcc.a(_ctors.o)
 .debug_str     0x000000000046c09b       0xa6 C:/mingw64/w64/bin/../lib/gcc/x86_64-w64-mingw32/8.1.0/libgcc_eh.a(unwind-seh.o)

.zdebug_str
 *(.zdebug_str)

.debug_loc      0x000000000046d000      0xc00
 *(.debug_loc)
 .debug_loc     0x000000000046d000      0xb63 C:/mingw64/w64/bin/../lib/gcc/x86_64-w64-mingw32/8.1.0/libgcc_eh.a(unwind-seh.o)

.zdebug_loc
 *(.zdebug_loc)

.debug_macinfo
 *(.debug_macinfo)

.zdebug_macinfo
 *(.zdebug_macinfo)

.debug_weaknames
 *(.debug_weaknames)

.zdebug_weaknames
 *(.zdebug_weaknames)

.debug_funcnames
 *(.debug_funcnames)

.zdebug_funcnames
 *(.zdebug_funcnames)

.debug_typenames
 *(.debug_typenames)

.zdebug_typenames
 *(.zdebug_typenames)

.debug_varnames
 *(.debug_varnames)

.zdebug_varnames
 *(.zdebug_varnames)

.debug_macro
 *(.debug_macro)

.zdebug_macro
 *(.zdebug_macro)

.debug_ranges
 *(.debug_ranges)

.zdebug_ranges
 *(.zdebug_ranges)

.debug_types
 *(.debug_types .gnu.linkonce.wt.*)

.zdebug_types
 *(.zdebug_types .zdebug.gnu.linkonce.wt.*)

.debug_gdb_scripts
 *(.debug_gdb_scripts)

.zdebug_gdb_scripts
 *(.zdebug_gdb_scripts)
OUTPUT(ocpplib.exe pei-x86-64)
LOAD rtr000000.o
LOAD ertr000001.o
LOAD rtr000002.o
LOAD rtr000003.o
LOAD rtr000004.o
LOAD rtr000005.o
LOAD rtr000006.o
LOAD rtr000007.o
LOAD rtr000008.o
LOAD rtr000009.o
LOAD rtr000010.o
LOAD rtr000011.o
LOAD rtr000012.o
LOAD rtr000013.o
LOAD rtr000014.o
LOAD rtr000015.o
LOAD rtr000016.o
LOAD rtr000017.o
LOAD rtr000018.o
LOAD rtr000019.o
LOAD rtr000020.o
LOAD rtr000021.o
LOAD rtr000022.o
LOAD rtr000023.o
LOAD rtr000024.o
LOAD rtr000025.o
LOAD rtr000026.o
LOAD rtr000027.o
LOAD rtr000028.o
LOAD rtr000029.o
LOAD rtr000030.o
LOAD rtr000031.o
LOAD rtr000032.o
LOAD rtr000033.o
LOAD rtr000034.o
LOAD rtr000035.o
LOAD rtr000036.o
